ARM GAS  /tmp/ccd22iA4.s 			page 1


   1              		.cpu cortex-m0plus
   2              		.arch armv6s-m
   3              		.fpu softvfp
   4              		.eabi_attribute 20, 1
   5              		.eabi_attribute 21, 1
   6              		.eabi_attribute 23, 3
   7              		.eabi_attribute 24, 1
   8              		.eabi_attribute 25, 1
   9              		.eabi_attribute 26, 1
  10              		.eabi_attribute 30, 1
  11              		.eabi_attribute 34, 0
  12              		.eabi_attribute 18, 4
  13              		.file	"stm32l0xx_hal_flash_ex.c"
  14              		.text
  15              	.Ltext0:
  16              		.cfi_sections	.debug_frame
  17              		.section	.text.FLASH_OB_GetUser,"ax",%progbits
  18              		.align	1
  19              		.syntax unified
  20              		.code	16
  21              		.thumb_func
  23              	FLASH_OB_GetUser:
  24              	.LFB51:
  25              		.file 1 "Drivers/STM32L0xx_HAL_Driver/Src/stm32l0xx_hal_flash_ex.c"
   1:Drivers/STM32L0xx_HAL_Driver/Src/stm32l0xx_hal_flash_ex.c **** /**
   2:Drivers/STM32L0xx_HAL_Driver/Src/stm32l0xx_hal_flash_ex.c ****   ******************************************************************************
   3:Drivers/STM32L0xx_HAL_Driver/Src/stm32l0xx_hal_flash_ex.c ****   * @file    stm32l0xx_hal_flash_ex.c
   4:Drivers/STM32L0xx_HAL_Driver/Src/stm32l0xx_hal_flash_ex.c ****   * @author  MCD Application Team
   5:Drivers/STM32L0xx_HAL_Driver/Src/stm32l0xx_hal_flash_ex.c ****   * @brief   Extended FLASH HAL module driver.
   6:Drivers/STM32L0xx_HAL_Driver/Src/stm32l0xx_hal_flash_ex.c ****   *    
   7:Drivers/STM32L0xx_HAL_Driver/Src/stm32l0xx_hal_flash_ex.c ****   *          This file provides firmware functions to manage the following 
   8:Drivers/STM32L0xx_HAL_Driver/Src/stm32l0xx_hal_flash_ex.c ****   *          functionalities of the internal FLASH memory:
   9:Drivers/STM32L0xx_HAL_Driver/Src/stm32l0xx_hal_flash_ex.c ****   *            + FLASH Interface configuration
  10:Drivers/STM32L0xx_HAL_Driver/Src/stm32l0xx_hal_flash_ex.c ****   *            + FLASH Memory Erasing
  11:Drivers/STM32L0xx_HAL_Driver/Src/stm32l0xx_hal_flash_ex.c ****   *            + DATA EEPROM Programming/Erasing
  12:Drivers/STM32L0xx_HAL_Driver/Src/stm32l0xx_hal_flash_ex.c ****   *            + Option Bytes Programming
  13:Drivers/STM32L0xx_HAL_Driver/Src/stm32l0xx_hal_flash_ex.c ****   *            + Interrupts management
  14:Drivers/STM32L0xx_HAL_Driver/Src/stm32l0xx_hal_flash_ex.c ****   *    
  15:Drivers/STM32L0xx_HAL_Driver/Src/stm32l0xx_hal_flash_ex.c ****   @verbatim
  16:Drivers/STM32L0xx_HAL_Driver/Src/stm32l0xx_hal_flash_ex.c ****   ==============================================================================
  17:Drivers/STM32L0xx_HAL_Driver/Src/stm32l0xx_hal_flash_ex.c ****                ##### Flash peripheral Extended features  #####
  18:Drivers/STM32L0xx_HAL_Driver/Src/stm32l0xx_hal_flash_ex.c ****   ==============================================================================
  19:Drivers/STM32L0xx_HAL_Driver/Src/stm32l0xx_hal_flash_ex.c ****            
  20:Drivers/STM32L0xx_HAL_Driver/Src/stm32l0xx_hal_flash_ex.c ****   [..] Comparing to other products, the FLASH interface for STM32L0xx
  21:Drivers/STM32L0xx_HAL_Driver/Src/stm32l0xx_hal_flash_ex.c ****        devices contains the following additional features        
  22:Drivers/STM32L0xx_HAL_Driver/Src/stm32l0xx_hal_flash_ex.c ****        (+) Erase functions
  23:Drivers/STM32L0xx_HAL_Driver/Src/stm32l0xx_hal_flash_ex.c ****        (+) DATA_EEPROM memory management
  24:Drivers/STM32L0xx_HAL_Driver/Src/stm32l0xx_hal_flash_ex.c ****        (+) BOOT option bit configuration       
  25:Drivers/STM32L0xx_HAL_Driver/Src/stm32l0xx_hal_flash_ex.c ****        (+) PCROP protection for all sectors
  26:Drivers/STM32L0xx_HAL_Driver/Src/stm32l0xx_hal_flash_ex.c ****    
  27:Drivers/STM32L0xx_HAL_Driver/Src/stm32l0xx_hal_flash_ex.c ****                       ##### How to use this driver #####
  28:Drivers/STM32L0xx_HAL_Driver/Src/stm32l0xx_hal_flash_ex.c ****   ==============================================================================
  29:Drivers/STM32L0xx_HAL_Driver/Src/stm32l0xx_hal_flash_ex.c ****   [..] This driver provides functions to configure and program the FLASH memory 
  30:Drivers/STM32L0xx_HAL_Driver/Src/stm32l0xx_hal_flash_ex.c ****        of all STM32L0xx. It includes:
  31:Drivers/STM32L0xx_HAL_Driver/Src/stm32l0xx_hal_flash_ex.c ****        (+) Full DATA_EEPROM erase and program management
  32:Drivers/STM32L0xx_HAL_Driver/Src/stm32l0xx_hal_flash_ex.c ****        (+) Boot activation
  33:Drivers/STM32L0xx_HAL_Driver/Src/stm32l0xx_hal_flash_ex.c ****        (+) PCROP protection configuration and control for all pages
ARM GAS  /tmp/ccd22iA4.s 			page 2


  34:Drivers/STM32L0xx_HAL_Driver/Src/stm32l0xx_hal_flash_ex.c ****   
  35:Drivers/STM32L0xx_HAL_Driver/Src/stm32l0xx_hal_flash_ex.c ****   @endverbatim
  36:Drivers/STM32L0xx_HAL_Driver/Src/stm32l0xx_hal_flash_ex.c ****   ******************************************************************************
  37:Drivers/STM32L0xx_HAL_Driver/Src/stm32l0xx_hal_flash_ex.c ****   * @attention
  38:Drivers/STM32L0xx_HAL_Driver/Src/stm32l0xx_hal_flash_ex.c ****   *
  39:Drivers/STM32L0xx_HAL_Driver/Src/stm32l0xx_hal_flash_ex.c ****   * <h2><center>&copy; Copyright (c) 2016 STMicroelectronics. 
  40:Drivers/STM32L0xx_HAL_Driver/Src/stm32l0xx_hal_flash_ex.c ****   * All rights reserved.</center></h2>
  41:Drivers/STM32L0xx_HAL_Driver/Src/stm32l0xx_hal_flash_ex.c ****   *
  42:Drivers/STM32L0xx_HAL_Driver/Src/stm32l0xx_hal_flash_ex.c ****   * This software component is licensed by ST under BSD 3-Clause license,
  43:Drivers/STM32L0xx_HAL_Driver/Src/stm32l0xx_hal_flash_ex.c ****   * the "License"; You may not use this file except in compliance with the 
  44:Drivers/STM32L0xx_HAL_Driver/Src/stm32l0xx_hal_flash_ex.c ****   * License. You may obtain a copy of the License at:
  45:Drivers/STM32L0xx_HAL_Driver/Src/stm32l0xx_hal_flash_ex.c ****   *                        opensource.org/licenses/BSD-3-Clause
  46:Drivers/STM32L0xx_HAL_Driver/Src/stm32l0xx_hal_flash_ex.c ****   *
  47:Drivers/STM32L0xx_HAL_Driver/Src/stm32l0xx_hal_flash_ex.c ****   ******************************************************************************  
  48:Drivers/STM32L0xx_HAL_Driver/Src/stm32l0xx_hal_flash_ex.c ****   */ 
  49:Drivers/STM32L0xx_HAL_Driver/Src/stm32l0xx_hal_flash_ex.c **** 
  50:Drivers/STM32L0xx_HAL_Driver/Src/stm32l0xx_hal_flash_ex.c **** /* Includes ------------------------------------------------------------------*/
  51:Drivers/STM32L0xx_HAL_Driver/Src/stm32l0xx_hal_flash_ex.c **** #include "stm32l0xx_hal.h"
  52:Drivers/STM32L0xx_HAL_Driver/Src/stm32l0xx_hal_flash_ex.c **** 
  53:Drivers/STM32L0xx_HAL_Driver/Src/stm32l0xx_hal_flash_ex.c **** /** @addtogroup STM32L0xx_HAL_Driver
  54:Drivers/STM32L0xx_HAL_Driver/Src/stm32l0xx_hal_flash_ex.c ****   * @{
  55:Drivers/STM32L0xx_HAL_Driver/Src/stm32l0xx_hal_flash_ex.c ****   */
  56:Drivers/STM32L0xx_HAL_Driver/Src/stm32l0xx_hal_flash_ex.c **** #ifdef HAL_FLASH_MODULE_ENABLED
  57:Drivers/STM32L0xx_HAL_Driver/Src/stm32l0xx_hal_flash_ex.c **** 
  58:Drivers/STM32L0xx_HAL_Driver/Src/stm32l0xx_hal_flash_ex.c **** /** @addtogroup FLASH
  59:Drivers/STM32L0xx_HAL_Driver/Src/stm32l0xx_hal_flash_ex.c ****   * @{
  60:Drivers/STM32L0xx_HAL_Driver/Src/stm32l0xx_hal_flash_ex.c ****   */
  61:Drivers/STM32L0xx_HAL_Driver/Src/stm32l0xx_hal_flash_ex.c **** /** @addtogroup FLASH_Private_Variables
  62:Drivers/STM32L0xx_HAL_Driver/Src/stm32l0xx_hal_flash_ex.c ****  * @{
  63:Drivers/STM32L0xx_HAL_Driver/Src/stm32l0xx_hal_flash_ex.c ****  */
  64:Drivers/STM32L0xx_HAL_Driver/Src/stm32l0xx_hal_flash_ex.c **** /* Variables used for Erase pages under interruption*/
  65:Drivers/STM32L0xx_HAL_Driver/Src/stm32l0xx_hal_flash_ex.c **** extern FLASH_ProcessTypeDef pFlash;
  66:Drivers/STM32L0xx_HAL_Driver/Src/stm32l0xx_hal_flash_ex.c **** /**
  67:Drivers/STM32L0xx_HAL_Driver/Src/stm32l0xx_hal_flash_ex.c ****   * @}
  68:Drivers/STM32L0xx_HAL_Driver/Src/stm32l0xx_hal_flash_ex.c ****   */
  69:Drivers/STM32L0xx_HAL_Driver/Src/stm32l0xx_hal_flash_ex.c **** 
  70:Drivers/STM32L0xx_HAL_Driver/Src/stm32l0xx_hal_flash_ex.c **** /**
  71:Drivers/STM32L0xx_HAL_Driver/Src/stm32l0xx_hal_flash_ex.c ****   * @}
  72:Drivers/STM32L0xx_HAL_Driver/Src/stm32l0xx_hal_flash_ex.c ****   */
  73:Drivers/STM32L0xx_HAL_Driver/Src/stm32l0xx_hal_flash_ex.c ****   
  74:Drivers/STM32L0xx_HAL_Driver/Src/stm32l0xx_hal_flash_ex.c **** /** @defgroup FLASHEx FLASHEx
  75:Drivers/STM32L0xx_HAL_Driver/Src/stm32l0xx_hal_flash_ex.c ****   * @brief FLASH HAL Extension module driver
  76:Drivers/STM32L0xx_HAL_Driver/Src/stm32l0xx_hal_flash_ex.c ****   * @{
  77:Drivers/STM32L0xx_HAL_Driver/Src/stm32l0xx_hal_flash_ex.c ****   */
  78:Drivers/STM32L0xx_HAL_Driver/Src/stm32l0xx_hal_flash_ex.c **** 
  79:Drivers/STM32L0xx_HAL_Driver/Src/stm32l0xx_hal_flash_ex.c **** /* Private typedef -----------------------------------------------------------*/
  80:Drivers/STM32L0xx_HAL_Driver/Src/stm32l0xx_hal_flash_ex.c **** /* Private define ------------------------------------------------------------*/
  81:Drivers/STM32L0xx_HAL_Driver/Src/stm32l0xx_hal_flash_ex.c **** /** @defgroup FLASHEx_Private_Constants FLASHEx Private Constants
  82:Drivers/STM32L0xx_HAL_Driver/Src/stm32l0xx_hal_flash_ex.c ****  * @{
  83:Drivers/STM32L0xx_HAL_Driver/Src/stm32l0xx_hal_flash_ex.c ****  */
  84:Drivers/STM32L0xx_HAL_Driver/Src/stm32l0xx_hal_flash_ex.c **** /**
  85:Drivers/STM32L0xx_HAL_Driver/Src/stm32l0xx_hal_flash_ex.c ****   * @}
  86:Drivers/STM32L0xx_HAL_Driver/Src/stm32l0xx_hal_flash_ex.c ****   */
  87:Drivers/STM32L0xx_HAL_Driver/Src/stm32l0xx_hal_flash_ex.c **** 
  88:Drivers/STM32L0xx_HAL_Driver/Src/stm32l0xx_hal_flash_ex.c **** /* Private macro -------------------------------------------------------------*/
  89:Drivers/STM32L0xx_HAL_Driver/Src/stm32l0xx_hal_flash_ex.c **** /** @defgroup FLASHEx_Private_Macros FLASHEx Private Macros
  90:Drivers/STM32L0xx_HAL_Driver/Src/stm32l0xx_hal_flash_ex.c ****   * @{
ARM GAS  /tmp/ccd22iA4.s 			page 3


  91:Drivers/STM32L0xx_HAL_Driver/Src/stm32l0xx_hal_flash_ex.c ****   */
  92:Drivers/STM32L0xx_HAL_Driver/Src/stm32l0xx_hal_flash_ex.c **** /**
  93:Drivers/STM32L0xx_HAL_Driver/Src/stm32l0xx_hal_flash_ex.c ****   * @}
  94:Drivers/STM32L0xx_HAL_Driver/Src/stm32l0xx_hal_flash_ex.c ****   */ 
  95:Drivers/STM32L0xx_HAL_Driver/Src/stm32l0xx_hal_flash_ex.c **** 
  96:Drivers/STM32L0xx_HAL_Driver/Src/stm32l0xx_hal_flash_ex.c **** /* Private variables ---------------------------------------------------------*/
  97:Drivers/STM32L0xx_HAL_Driver/Src/stm32l0xx_hal_flash_ex.c **** /* Private function prototypes -----------------------------------------------*/
  98:Drivers/STM32L0xx_HAL_Driver/Src/stm32l0xx_hal_flash_ex.c **** /** @defgroup FLASHEx_Private_Functions FLASHEx Private Functions
  99:Drivers/STM32L0xx_HAL_Driver/Src/stm32l0xx_hal_flash_ex.c ****  * @{
 100:Drivers/STM32L0xx_HAL_Driver/Src/stm32l0xx_hal_flash_ex.c ****  */
 101:Drivers/STM32L0xx_HAL_Driver/Src/stm32l0xx_hal_flash_ex.c **** void                      FLASH_PageErase(uint32_t PageAddress);
 102:Drivers/STM32L0xx_HAL_Driver/Src/stm32l0xx_hal_flash_ex.c **** #if defined(FLASH_OPTR_BFB2)
 103:Drivers/STM32L0xx_HAL_Driver/Src/stm32l0xx_hal_flash_ex.c **** static HAL_StatusTypeDef  FLASH_OB_BootConfig(uint8_t OB_BOOT);
 104:Drivers/STM32L0xx_HAL_Driver/Src/stm32l0xx_hal_flash_ex.c **** #endif /* FLASH_OPTR_BFB2 */
 105:Drivers/STM32L0xx_HAL_Driver/Src/stm32l0xx_hal_flash_ex.c **** static HAL_StatusTypeDef  FLASH_OB_RDPConfig(uint8_t OB_RDP);
 106:Drivers/STM32L0xx_HAL_Driver/Src/stm32l0xx_hal_flash_ex.c **** static HAL_StatusTypeDef  FLASH_OB_UserConfig(uint8_t OB_IWDG, uint8_t OB_STOP, uint8_t OB_STDBY);
 107:Drivers/STM32L0xx_HAL_Driver/Src/stm32l0xx_hal_flash_ex.c **** static HAL_StatusTypeDef  FLASH_OB_BORConfig(uint8_t OB_BOR);
 108:Drivers/STM32L0xx_HAL_Driver/Src/stm32l0xx_hal_flash_ex.c **** static uint8_t            FLASH_OB_GetRDP(void);
 109:Drivers/STM32L0xx_HAL_Driver/Src/stm32l0xx_hal_flash_ex.c **** static uint8_t            FLASH_OB_GetUser(void);
 110:Drivers/STM32L0xx_HAL_Driver/Src/stm32l0xx_hal_flash_ex.c **** static uint8_t            FLASH_OB_GetBOR(void);
 111:Drivers/STM32L0xx_HAL_Driver/Src/stm32l0xx_hal_flash_ex.c **** static uint8_t            FLASH_OB_GetBOOTBit1(void);
 112:Drivers/STM32L0xx_HAL_Driver/Src/stm32l0xx_hal_flash_ex.c **** static HAL_StatusTypeDef  FLASH_OB_BOOTBit1Config(uint8_t OB_BootBit1);
 113:Drivers/STM32L0xx_HAL_Driver/Src/stm32l0xx_hal_flash_ex.c **** #if defined(STM32L071xx) || defined(STM32L072xx) || defined(STM32L073xx) || defined(STM32L081xx) ||
 114:Drivers/STM32L0xx_HAL_Driver/Src/stm32l0xx_hal_flash_ex.c **** static HAL_StatusTypeDef  FLASH_OB_ProtectedSectorsConfig(uint32_t Sector, uint32_t Sector2, uint32
 115:Drivers/STM32L0xx_HAL_Driver/Src/stm32l0xx_hal_flash_ex.c **** #else
 116:Drivers/STM32L0xx_HAL_Driver/Src/stm32l0xx_hal_flash_ex.c **** static HAL_StatusTypeDef  FLASH_OB_ProtectedSectorsConfig(uint32_t Sector, uint32_t NewState);
 117:Drivers/STM32L0xx_HAL_Driver/Src/stm32l0xx_hal_flash_ex.c **** #endif
 118:Drivers/STM32L0xx_HAL_Driver/Src/stm32l0xx_hal_flash_ex.c **** static uint32_t           FLASH_OB_GetWRP(void);
 119:Drivers/STM32L0xx_HAL_Driver/Src/stm32l0xx_hal_flash_ex.c **** #if defined(STM32L071xx) || defined(STM32L072xx) || defined(STM32L073xx) || defined(STM32L081xx) ||
 120:Drivers/STM32L0xx_HAL_Driver/Src/stm32l0xx_hal_flash_ex.c **** static uint32_t           FLASH_OB_GetWRP2(void);
 121:Drivers/STM32L0xx_HAL_Driver/Src/stm32l0xx_hal_flash_ex.c **** #endif
 122:Drivers/STM32L0xx_HAL_Driver/Src/stm32l0xx_hal_flash_ex.c **** 
 123:Drivers/STM32L0xx_HAL_Driver/Src/stm32l0xx_hal_flash_ex.c **** /**
 124:Drivers/STM32L0xx_HAL_Driver/Src/stm32l0xx_hal_flash_ex.c ****   * @}
 125:Drivers/STM32L0xx_HAL_Driver/Src/stm32l0xx_hal_flash_ex.c ****   */
 126:Drivers/STM32L0xx_HAL_Driver/Src/stm32l0xx_hal_flash_ex.c **** 
 127:Drivers/STM32L0xx_HAL_Driver/Src/stm32l0xx_hal_flash_ex.c **** /* Exported functions ---------------------------------------------------------*/
 128:Drivers/STM32L0xx_HAL_Driver/Src/stm32l0xx_hal_flash_ex.c **** /** @defgroup FLASHEx_Exported_Functions FLASHEx Exported Functions
 129:Drivers/STM32L0xx_HAL_Driver/Src/stm32l0xx_hal_flash_ex.c ****   * @{
 130:Drivers/STM32L0xx_HAL_Driver/Src/stm32l0xx_hal_flash_ex.c ****   */
 131:Drivers/STM32L0xx_HAL_Driver/Src/stm32l0xx_hal_flash_ex.c **** 
 132:Drivers/STM32L0xx_HAL_Driver/Src/stm32l0xx_hal_flash_ex.c **** /** @defgroup FLASHEx_Exported_Functions_Group1 FLASHEx Memory Erasing functions
 133:Drivers/STM32L0xx_HAL_Driver/Src/stm32l0xx_hal_flash_ex.c ****  *  @brief   FLASH Memory Erasing functions
 134:Drivers/STM32L0xx_HAL_Driver/Src/stm32l0xx_hal_flash_ex.c ****  *
 135:Drivers/STM32L0xx_HAL_Driver/Src/stm32l0xx_hal_flash_ex.c **** @verbatim   
 136:Drivers/STM32L0xx_HAL_Driver/Src/stm32l0xx_hal_flash_ex.c ****   ==============================================================================
 137:Drivers/STM32L0xx_HAL_Driver/Src/stm32l0xx_hal_flash_ex.c ****                 ##### FLASH Erasing Programming functions ##### 
 138:Drivers/STM32L0xx_HAL_Driver/Src/stm32l0xx_hal_flash_ex.c ****   ==============================================================================
 139:Drivers/STM32L0xx_HAL_Driver/Src/stm32l0xx_hal_flash_ex.c **** 
 140:Drivers/STM32L0xx_HAL_Driver/Src/stm32l0xx_hal_flash_ex.c ****     [..] The FLASH Memory Erasing functions, includes the following functions:
 141:Drivers/STM32L0xx_HAL_Driver/Src/stm32l0xx_hal_flash_ex.c ****     (+) @ref HAL_FLASHEx_Erase: return only when erase has been done
 142:Drivers/STM32L0xx_HAL_Driver/Src/stm32l0xx_hal_flash_ex.c ****     (+) @ref HAL_FLASHEx_Erase_IT: end of erase is done when @ref HAL_FLASH_EndOfOperationCallback 
 143:Drivers/STM32L0xx_HAL_Driver/Src/stm32l0xx_hal_flash_ex.c ****         is called with parameter 0xFFFFFFFF
 144:Drivers/STM32L0xx_HAL_Driver/Src/stm32l0xx_hal_flash_ex.c **** 
 145:Drivers/STM32L0xx_HAL_Driver/Src/stm32l0xx_hal_flash_ex.c ****     [..] Any operation of erase should follow these steps:
 146:Drivers/STM32L0xx_HAL_Driver/Src/stm32l0xx_hal_flash_ex.c ****     (#) Call the @ref HAL_FLASH_Unlock() function to enable the flash control register and 
 147:Drivers/STM32L0xx_HAL_Driver/Src/stm32l0xx_hal_flash_ex.c ****         program memory access.
ARM GAS  /tmp/ccd22iA4.s 			page 4


 148:Drivers/STM32L0xx_HAL_Driver/Src/stm32l0xx_hal_flash_ex.c ****     (#) Call the desired function to erase page.
 149:Drivers/STM32L0xx_HAL_Driver/Src/stm32l0xx_hal_flash_ex.c ****     (#) Call the @ref HAL_FLASH_Lock() to disable the flash program memory access 
 150:Drivers/STM32L0xx_HAL_Driver/Src/stm32l0xx_hal_flash_ex.c ****        (recommended to protect the FLASH memory against possible unwanted operation).
 151:Drivers/STM32L0xx_HAL_Driver/Src/stm32l0xx_hal_flash_ex.c **** 
 152:Drivers/STM32L0xx_HAL_Driver/Src/stm32l0xx_hal_flash_ex.c **** @endverbatim
 153:Drivers/STM32L0xx_HAL_Driver/Src/stm32l0xx_hal_flash_ex.c ****   * @{
 154:Drivers/STM32L0xx_HAL_Driver/Src/stm32l0xx_hal_flash_ex.c ****   */
 155:Drivers/STM32L0xx_HAL_Driver/Src/stm32l0xx_hal_flash_ex.c ****   
 156:Drivers/STM32L0xx_HAL_Driver/Src/stm32l0xx_hal_flash_ex.c **** /**
 157:Drivers/STM32L0xx_HAL_Driver/Src/stm32l0xx_hal_flash_ex.c ****   * @brief  Erase the specified FLASH memory Pages 
 158:Drivers/STM32L0xx_HAL_Driver/Src/stm32l0xx_hal_flash_ex.c ****   * @note   To correctly run this function, the @ref HAL_FLASH_Unlock() function
 159:Drivers/STM32L0xx_HAL_Driver/Src/stm32l0xx_hal_flash_ex.c ****   *         must be called before.
 160:Drivers/STM32L0xx_HAL_Driver/Src/stm32l0xx_hal_flash_ex.c ****   *         Call the @ref HAL_FLASH_Lock() to disable the flash memory access 
 161:Drivers/STM32L0xx_HAL_Driver/Src/stm32l0xx_hal_flash_ex.c ****   *         (recommended to protect the FLASH memory against possible unwanted operation)
 162:Drivers/STM32L0xx_HAL_Driver/Src/stm32l0xx_hal_flash_ex.c ****   * @param[in]  pEraseInit pointer to an FLASH_EraseInitTypeDef structure that
 163:Drivers/STM32L0xx_HAL_Driver/Src/stm32l0xx_hal_flash_ex.c ****   *         contains the configuration information for the erasing.
 164:Drivers/STM32L0xx_HAL_Driver/Src/stm32l0xx_hal_flash_ex.c ****   * 
 165:Drivers/STM32L0xx_HAL_Driver/Src/stm32l0xx_hal_flash_ex.c ****   * @param[out]  PageError pointer to variable  that
 166:Drivers/STM32L0xx_HAL_Driver/Src/stm32l0xx_hal_flash_ex.c ****   *         contains the configuration information on faulty page in case of error
 167:Drivers/STM32L0xx_HAL_Driver/Src/stm32l0xx_hal_flash_ex.c ****   *         (0xFFFFFFFF means that all the pages have been correctly erased)
 168:Drivers/STM32L0xx_HAL_Driver/Src/stm32l0xx_hal_flash_ex.c ****   * 
 169:Drivers/STM32L0xx_HAL_Driver/Src/stm32l0xx_hal_flash_ex.c ****   * @retval HAL_StatusTypeDef HAL Status
 170:Drivers/STM32L0xx_HAL_Driver/Src/stm32l0xx_hal_flash_ex.c ****   */
 171:Drivers/STM32L0xx_HAL_Driver/Src/stm32l0xx_hal_flash_ex.c **** HAL_StatusTypeDef HAL_FLASHEx_Erase(FLASH_EraseInitTypeDef *pEraseInit, uint32_t *PageError)
 172:Drivers/STM32L0xx_HAL_Driver/Src/stm32l0xx_hal_flash_ex.c **** {
 173:Drivers/STM32L0xx_HAL_Driver/Src/stm32l0xx_hal_flash_ex.c ****   HAL_StatusTypeDef status = HAL_ERROR;
 174:Drivers/STM32L0xx_HAL_Driver/Src/stm32l0xx_hal_flash_ex.c ****   uint32_t address = 0U;
 175:Drivers/STM32L0xx_HAL_Driver/Src/stm32l0xx_hal_flash_ex.c ****   
 176:Drivers/STM32L0xx_HAL_Driver/Src/stm32l0xx_hal_flash_ex.c ****   /* Process Locked */
 177:Drivers/STM32L0xx_HAL_Driver/Src/stm32l0xx_hal_flash_ex.c ****   __HAL_LOCK(&pFlash);
 178:Drivers/STM32L0xx_HAL_Driver/Src/stm32l0xx_hal_flash_ex.c **** 
 179:Drivers/STM32L0xx_HAL_Driver/Src/stm32l0xx_hal_flash_ex.c ****   /* Wait for last operation to be completed */
 180:Drivers/STM32L0xx_HAL_Driver/Src/stm32l0xx_hal_flash_ex.c ****   status = FLASH_WaitForLastOperation(FLASH_TIMEOUT_VALUE);
 181:Drivers/STM32L0xx_HAL_Driver/Src/stm32l0xx_hal_flash_ex.c **** 
 182:Drivers/STM32L0xx_HAL_Driver/Src/stm32l0xx_hal_flash_ex.c ****   if (status == HAL_OK)
 183:Drivers/STM32L0xx_HAL_Driver/Src/stm32l0xx_hal_flash_ex.c ****   {
 184:Drivers/STM32L0xx_HAL_Driver/Src/stm32l0xx_hal_flash_ex.c ****     /*Initialization of PageError variable*/
 185:Drivers/STM32L0xx_HAL_Driver/Src/stm32l0xx_hal_flash_ex.c ****     *PageError = 0xFFFFFFFFU;
 186:Drivers/STM32L0xx_HAL_Driver/Src/stm32l0xx_hal_flash_ex.c **** 
 187:Drivers/STM32L0xx_HAL_Driver/Src/stm32l0xx_hal_flash_ex.c ****     /* Check the parameters */
 188:Drivers/STM32L0xx_HAL_Driver/Src/stm32l0xx_hal_flash_ex.c ****     assert_param(IS_NBPAGES(pEraseInit->NbPages));
 189:Drivers/STM32L0xx_HAL_Driver/Src/stm32l0xx_hal_flash_ex.c ****     assert_param(IS_FLASH_TYPEERASE(pEraseInit->TypeErase));
 190:Drivers/STM32L0xx_HAL_Driver/Src/stm32l0xx_hal_flash_ex.c ****     assert_param(IS_FLASH_PROGRAM_ADDRESS(pEraseInit->PageAddress));
 191:Drivers/STM32L0xx_HAL_Driver/Src/stm32l0xx_hal_flash_ex.c ****     assert_param(IS_FLASH_PROGRAM_ADDRESS((pEraseInit->PageAddress & ~(FLASH_PAGE_SIZE - 1U)) + pEr
 192:Drivers/STM32L0xx_HAL_Driver/Src/stm32l0xx_hal_flash_ex.c **** 
 193:Drivers/STM32L0xx_HAL_Driver/Src/stm32l0xx_hal_flash_ex.c ****     /* Erase page by page to be done*/
 194:Drivers/STM32L0xx_HAL_Driver/Src/stm32l0xx_hal_flash_ex.c ****     for(address = pEraseInit->PageAddress; 
 195:Drivers/STM32L0xx_HAL_Driver/Src/stm32l0xx_hal_flash_ex.c ****         address < ((pEraseInit->NbPages * FLASH_PAGE_SIZE) + pEraseInit->PageAddress);
 196:Drivers/STM32L0xx_HAL_Driver/Src/stm32l0xx_hal_flash_ex.c ****         address += FLASH_PAGE_SIZE)
 197:Drivers/STM32L0xx_HAL_Driver/Src/stm32l0xx_hal_flash_ex.c ****     {
 198:Drivers/STM32L0xx_HAL_Driver/Src/stm32l0xx_hal_flash_ex.c ****       FLASH_PageErase(address);
 199:Drivers/STM32L0xx_HAL_Driver/Src/stm32l0xx_hal_flash_ex.c **** 
 200:Drivers/STM32L0xx_HAL_Driver/Src/stm32l0xx_hal_flash_ex.c ****       /* Wait for last operation to be completed */
 201:Drivers/STM32L0xx_HAL_Driver/Src/stm32l0xx_hal_flash_ex.c ****       status = FLASH_WaitForLastOperation(FLASH_TIMEOUT_VALUE);
 202:Drivers/STM32L0xx_HAL_Driver/Src/stm32l0xx_hal_flash_ex.c **** 
 203:Drivers/STM32L0xx_HAL_Driver/Src/stm32l0xx_hal_flash_ex.c ****       /* If the erase operation is completed, disable the ERASE Bit */
 204:Drivers/STM32L0xx_HAL_Driver/Src/stm32l0xx_hal_flash_ex.c ****       CLEAR_BIT(FLASH->PECR, FLASH_PECR_PROG);
ARM GAS  /tmp/ccd22iA4.s 			page 5


 205:Drivers/STM32L0xx_HAL_Driver/Src/stm32l0xx_hal_flash_ex.c ****       CLEAR_BIT(FLASH->PECR, FLASH_PECR_ERASE);
 206:Drivers/STM32L0xx_HAL_Driver/Src/stm32l0xx_hal_flash_ex.c **** 
 207:Drivers/STM32L0xx_HAL_Driver/Src/stm32l0xx_hal_flash_ex.c ****       if (status != HAL_OK) 
 208:Drivers/STM32L0xx_HAL_Driver/Src/stm32l0xx_hal_flash_ex.c ****       {
 209:Drivers/STM32L0xx_HAL_Driver/Src/stm32l0xx_hal_flash_ex.c ****         /* In case of error, stop erase procedure and return the faulty address */
 210:Drivers/STM32L0xx_HAL_Driver/Src/stm32l0xx_hal_flash_ex.c ****         *PageError = address;
 211:Drivers/STM32L0xx_HAL_Driver/Src/stm32l0xx_hal_flash_ex.c ****         break;
 212:Drivers/STM32L0xx_HAL_Driver/Src/stm32l0xx_hal_flash_ex.c ****       }
 213:Drivers/STM32L0xx_HAL_Driver/Src/stm32l0xx_hal_flash_ex.c ****     }
 214:Drivers/STM32L0xx_HAL_Driver/Src/stm32l0xx_hal_flash_ex.c ****   }
 215:Drivers/STM32L0xx_HAL_Driver/Src/stm32l0xx_hal_flash_ex.c **** 
 216:Drivers/STM32L0xx_HAL_Driver/Src/stm32l0xx_hal_flash_ex.c ****   /* Process Unlocked */
 217:Drivers/STM32L0xx_HAL_Driver/Src/stm32l0xx_hal_flash_ex.c ****   __HAL_UNLOCK(&pFlash);
 218:Drivers/STM32L0xx_HAL_Driver/Src/stm32l0xx_hal_flash_ex.c **** 
 219:Drivers/STM32L0xx_HAL_Driver/Src/stm32l0xx_hal_flash_ex.c ****   return status;
 220:Drivers/STM32L0xx_HAL_Driver/Src/stm32l0xx_hal_flash_ex.c **** }
 221:Drivers/STM32L0xx_HAL_Driver/Src/stm32l0xx_hal_flash_ex.c **** 
 222:Drivers/STM32L0xx_HAL_Driver/Src/stm32l0xx_hal_flash_ex.c **** /**
 223:Drivers/STM32L0xx_HAL_Driver/Src/stm32l0xx_hal_flash_ex.c ****   * @brief  Perform a page erase of the specified FLASH memory pages  with interrupt enabled
 224:Drivers/STM32L0xx_HAL_Driver/Src/stm32l0xx_hal_flash_ex.c ****   * @note   To correctly run this function, the @ref HAL_FLASH_Unlock() function
 225:Drivers/STM32L0xx_HAL_Driver/Src/stm32l0xx_hal_flash_ex.c ****   *         must be called before.
 226:Drivers/STM32L0xx_HAL_Driver/Src/stm32l0xx_hal_flash_ex.c ****   *         Call the @ref HAL_FLASH_Lock() to disable the flash memory access 
 227:Drivers/STM32L0xx_HAL_Driver/Src/stm32l0xx_hal_flash_ex.c ****   *         (recommended to protect the FLASH memory against possible unwanted operation)
 228:Drivers/STM32L0xx_HAL_Driver/Src/stm32l0xx_hal_flash_ex.c ****   *          End of erase is done when @ref HAL_FLASH_EndOfOperationCallback is called with paramet
 229:Drivers/STM32L0xx_HAL_Driver/Src/stm32l0xx_hal_flash_ex.c ****   *          0xFFFFFFFF
 230:Drivers/STM32L0xx_HAL_Driver/Src/stm32l0xx_hal_flash_ex.c ****   * @param  pEraseInit pointer to an FLASH_EraseInitTypeDef structure that
 231:Drivers/STM32L0xx_HAL_Driver/Src/stm32l0xx_hal_flash_ex.c ****   *         contains the configuration information for the erasing.
 232:Drivers/STM32L0xx_HAL_Driver/Src/stm32l0xx_hal_flash_ex.c ****   * 
 233:Drivers/STM32L0xx_HAL_Driver/Src/stm32l0xx_hal_flash_ex.c ****   * @retval HAL_StatusTypeDef HAL Status
 234:Drivers/STM32L0xx_HAL_Driver/Src/stm32l0xx_hal_flash_ex.c ****   */
 235:Drivers/STM32L0xx_HAL_Driver/Src/stm32l0xx_hal_flash_ex.c **** HAL_StatusTypeDef HAL_FLASHEx_Erase_IT(FLASH_EraseInitTypeDef *pEraseInit)
 236:Drivers/STM32L0xx_HAL_Driver/Src/stm32l0xx_hal_flash_ex.c **** {
 237:Drivers/STM32L0xx_HAL_Driver/Src/stm32l0xx_hal_flash_ex.c ****   HAL_StatusTypeDef status = HAL_ERROR;
 238:Drivers/STM32L0xx_HAL_Driver/Src/stm32l0xx_hal_flash_ex.c **** 
 239:Drivers/STM32L0xx_HAL_Driver/Src/stm32l0xx_hal_flash_ex.c ****   /* If procedure already ongoing, reject the next one */
 240:Drivers/STM32L0xx_HAL_Driver/Src/stm32l0xx_hal_flash_ex.c ****   if (pFlash.ProcedureOnGoing != FLASH_PROC_NONE)
 241:Drivers/STM32L0xx_HAL_Driver/Src/stm32l0xx_hal_flash_ex.c ****   {
 242:Drivers/STM32L0xx_HAL_Driver/Src/stm32l0xx_hal_flash_ex.c ****     return HAL_ERROR;
 243:Drivers/STM32L0xx_HAL_Driver/Src/stm32l0xx_hal_flash_ex.c ****   }
 244:Drivers/STM32L0xx_HAL_Driver/Src/stm32l0xx_hal_flash_ex.c **** 
 245:Drivers/STM32L0xx_HAL_Driver/Src/stm32l0xx_hal_flash_ex.c ****   /* Check the parameters */
 246:Drivers/STM32L0xx_HAL_Driver/Src/stm32l0xx_hal_flash_ex.c ****   assert_param(IS_NBPAGES(pEraseInit->NbPages));
 247:Drivers/STM32L0xx_HAL_Driver/Src/stm32l0xx_hal_flash_ex.c ****   assert_param(IS_FLASH_TYPEERASE(pEraseInit->TypeErase));
 248:Drivers/STM32L0xx_HAL_Driver/Src/stm32l0xx_hal_flash_ex.c ****   assert_param(IS_FLASH_PROGRAM_ADDRESS(pEraseInit->PageAddress));
 249:Drivers/STM32L0xx_HAL_Driver/Src/stm32l0xx_hal_flash_ex.c ****   assert_param(IS_FLASH_PROGRAM_ADDRESS((pEraseInit->PageAddress & ~(FLASH_PAGE_SIZE - 1)) + pErase
 250:Drivers/STM32L0xx_HAL_Driver/Src/stm32l0xx_hal_flash_ex.c **** 
 251:Drivers/STM32L0xx_HAL_Driver/Src/stm32l0xx_hal_flash_ex.c ****   /* Process Locked */
 252:Drivers/STM32L0xx_HAL_Driver/Src/stm32l0xx_hal_flash_ex.c ****   __HAL_LOCK(&pFlash);
 253:Drivers/STM32L0xx_HAL_Driver/Src/stm32l0xx_hal_flash_ex.c **** 
 254:Drivers/STM32L0xx_HAL_Driver/Src/stm32l0xx_hal_flash_ex.c ****   /* Wait for last operation to be completed */
 255:Drivers/STM32L0xx_HAL_Driver/Src/stm32l0xx_hal_flash_ex.c ****   status = FLASH_WaitForLastOperation(FLASH_TIMEOUT_VALUE);
 256:Drivers/STM32L0xx_HAL_Driver/Src/stm32l0xx_hal_flash_ex.c ****   
 257:Drivers/STM32L0xx_HAL_Driver/Src/stm32l0xx_hal_flash_ex.c ****   if (status == HAL_OK)
 258:Drivers/STM32L0xx_HAL_Driver/Src/stm32l0xx_hal_flash_ex.c ****   {
 259:Drivers/STM32L0xx_HAL_Driver/Src/stm32l0xx_hal_flash_ex.c ****     /* Enable End of FLASH Operation and Error source interrupts */
 260:Drivers/STM32L0xx_HAL_Driver/Src/stm32l0xx_hal_flash_ex.c ****     __HAL_FLASH_ENABLE_IT(FLASH_IT_EOP | FLASH_IT_ERR);
 261:Drivers/STM32L0xx_HAL_Driver/Src/stm32l0xx_hal_flash_ex.c ****     
ARM GAS  /tmp/ccd22iA4.s 			page 6


 262:Drivers/STM32L0xx_HAL_Driver/Src/stm32l0xx_hal_flash_ex.c ****     pFlash.ProcedureOnGoing = FLASH_PROC_PAGEERASE;
 263:Drivers/STM32L0xx_HAL_Driver/Src/stm32l0xx_hal_flash_ex.c ****     pFlash.NbPagesToErase = pEraseInit->NbPages;
 264:Drivers/STM32L0xx_HAL_Driver/Src/stm32l0xx_hal_flash_ex.c ****     pFlash.Page = pEraseInit->PageAddress;
 265:Drivers/STM32L0xx_HAL_Driver/Src/stm32l0xx_hal_flash_ex.c **** 
 266:Drivers/STM32L0xx_HAL_Driver/Src/stm32l0xx_hal_flash_ex.c ****     /*Erase 1st page and wait for IT*/
 267:Drivers/STM32L0xx_HAL_Driver/Src/stm32l0xx_hal_flash_ex.c ****     FLASH_PageErase(pEraseInit->PageAddress);
 268:Drivers/STM32L0xx_HAL_Driver/Src/stm32l0xx_hal_flash_ex.c ****   }
 269:Drivers/STM32L0xx_HAL_Driver/Src/stm32l0xx_hal_flash_ex.c ****   else
 270:Drivers/STM32L0xx_HAL_Driver/Src/stm32l0xx_hal_flash_ex.c ****   {
 271:Drivers/STM32L0xx_HAL_Driver/Src/stm32l0xx_hal_flash_ex.c ****     /* Process Unlocked */
 272:Drivers/STM32L0xx_HAL_Driver/Src/stm32l0xx_hal_flash_ex.c ****     __HAL_UNLOCK(&pFlash);
 273:Drivers/STM32L0xx_HAL_Driver/Src/stm32l0xx_hal_flash_ex.c ****   }
 274:Drivers/STM32L0xx_HAL_Driver/Src/stm32l0xx_hal_flash_ex.c **** 
 275:Drivers/STM32L0xx_HAL_Driver/Src/stm32l0xx_hal_flash_ex.c ****   return status;
 276:Drivers/STM32L0xx_HAL_Driver/Src/stm32l0xx_hal_flash_ex.c **** }
 277:Drivers/STM32L0xx_HAL_Driver/Src/stm32l0xx_hal_flash_ex.c **** 
 278:Drivers/STM32L0xx_HAL_Driver/Src/stm32l0xx_hal_flash_ex.c **** /**
 279:Drivers/STM32L0xx_HAL_Driver/Src/stm32l0xx_hal_flash_ex.c ****   * @}
 280:Drivers/STM32L0xx_HAL_Driver/Src/stm32l0xx_hal_flash_ex.c ****   */
 281:Drivers/STM32L0xx_HAL_Driver/Src/stm32l0xx_hal_flash_ex.c **** 
 282:Drivers/STM32L0xx_HAL_Driver/Src/stm32l0xx_hal_flash_ex.c **** /** @defgroup FLASHEx_Exported_Functions_Group2 Option Bytes Programming functions
 283:Drivers/STM32L0xx_HAL_Driver/Src/stm32l0xx_hal_flash_ex.c ****  *  @brief   Option Bytes Programming functions
 284:Drivers/STM32L0xx_HAL_Driver/Src/stm32l0xx_hal_flash_ex.c ****  *
 285:Drivers/STM32L0xx_HAL_Driver/Src/stm32l0xx_hal_flash_ex.c **** @verbatim   
 286:Drivers/STM32L0xx_HAL_Driver/Src/stm32l0xx_hal_flash_ex.c ****   ==============================================================================
 287:Drivers/STM32L0xx_HAL_Driver/Src/stm32l0xx_hal_flash_ex.c ****                 ##### Option Bytes Programming functions ##### 
 288:Drivers/STM32L0xx_HAL_Driver/Src/stm32l0xx_hal_flash_ex.c ****   ==============================================================================  
 289:Drivers/STM32L0xx_HAL_Driver/Src/stm32l0xx_hal_flash_ex.c **** 
 290:Drivers/STM32L0xx_HAL_Driver/Src/stm32l0xx_hal_flash_ex.c ****     [..] Any operation of erase or program should follow these steps:
 291:Drivers/STM32L0xx_HAL_Driver/Src/stm32l0xx_hal_flash_ex.c ****     (#) Call the @ref HAL_FLASH_OB_Unlock() function to enable the Flash option control 
 292:Drivers/STM32L0xx_HAL_Driver/Src/stm32l0xx_hal_flash_ex.c ****         register access.
 293:Drivers/STM32L0xx_HAL_Driver/Src/stm32l0xx_hal_flash_ex.c ****     (#) Call following function to program the desired option bytes.
 294:Drivers/STM32L0xx_HAL_Driver/Src/stm32l0xx_hal_flash_ex.c ****         (++) @ref HAL_FLASHEx_OBProgram:
 295:Drivers/STM32L0xx_HAL_Driver/Src/stm32l0xx_hal_flash_ex.c ****          - To Enable/Disable the desired sector write protection.
 296:Drivers/STM32L0xx_HAL_Driver/Src/stm32l0xx_hal_flash_ex.c ****          - To set the desired read Protection Level.
 297:Drivers/STM32L0xx_HAL_Driver/Src/stm32l0xx_hal_flash_ex.c ****          - To configure the user option Bytes: IWDG, STOP and the Standby.
 298:Drivers/STM32L0xx_HAL_Driver/Src/stm32l0xx_hal_flash_ex.c ****          - To Set the BOR level.
 299:Drivers/STM32L0xx_HAL_Driver/Src/stm32l0xx_hal_flash_ex.c ****     (#) Once all needed option bytes to be programmed are correctly written, call the
 300:Drivers/STM32L0xx_HAL_Driver/Src/stm32l0xx_hal_flash_ex.c ****         @ref HAL_FLASH_OB_Launch(void) function to launch the Option Bytes programming process.
 301:Drivers/STM32L0xx_HAL_Driver/Src/stm32l0xx_hal_flash_ex.c ****     (#) Call the @ref HAL_FLASH_OB_Lock() to disable the Flash option control register access (reco
 302:Drivers/STM32L0xx_HAL_Driver/Src/stm32l0xx_hal_flash_ex.c ****         to protect the option Bytes against possible unwanted operations).
 303:Drivers/STM32L0xx_HAL_Driver/Src/stm32l0xx_hal_flash_ex.c **** 
 304:Drivers/STM32L0xx_HAL_Driver/Src/stm32l0xx_hal_flash_ex.c ****     [..] Proprietary code Read Out Protection (PcROP):
 305:Drivers/STM32L0xx_HAL_Driver/Src/stm32l0xx_hal_flash_ex.c ****     (#) The PcROP sector is selected by using the same option bytes as the Write
 306:Drivers/STM32L0xx_HAL_Driver/Src/stm32l0xx_hal_flash_ex.c ****         protection (nWRPi bits). As a result, these 2 options are exclusive each other.
 307:Drivers/STM32L0xx_HAL_Driver/Src/stm32l0xx_hal_flash_ex.c ****     (#) In order to activate the PcROP (change the function of the nWRPi option bits), 
 308:Drivers/STM32L0xx_HAL_Driver/Src/stm32l0xx_hal_flash_ex.c ****         the WPRMOD option bit must be activated.
 309:Drivers/STM32L0xx_HAL_Driver/Src/stm32l0xx_hal_flash_ex.c ****     (#) The active value of nWRPi bits is inverted when PCROP mode is active, this
 310:Drivers/STM32L0xx_HAL_Driver/Src/stm32l0xx_hal_flash_ex.c ****         means: if WPRMOD = 1 and nWRPi = 1 (default value), then the user sector "i"
 311:Drivers/STM32L0xx_HAL_Driver/Src/stm32l0xx_hal_flash_ex.c ****         is read/write protected.
 312:Drivers/STM32L0xx_HAL_Driver/Src/stm32l0xx_hal_flash_ex.c ****     (#) To activate PCROP mode for Flash sector(s), you need to call the following function:
 313:Drivers/STM32L0xx_HAL_Driver/Src/stm32l0xx_hal_flash_ex.c ****         (++) @ref HAL_FLASHEx_AdvOBProgram in selecting sectors to be read/write protected
 314:Drivers/STM32L0xx_HAL_Driver/Src/stm32l0xx_hal_flash_ex.c ****         (++) @ref HAL_FLASHEx_OB_SelectPCROP to enable the read/write protection
 315:Drivers/STM32L0xx_HAL_Driver/Src/stm32l0xx_hal_flash_ex.c **** 
 316:Drivers/STM32L0xx_HAL_Driver/Src/stm32l0xx_hal_flash_ex.c **** @endverbatim
 317:Drivers/STM32L0xx_HAL_Driver/Src/stm32l0xx_hal_flash_ex.c ****   * @{
 318:Drivers/STM32L0xx_HAL_Driver/Src/stm32l0xx_hal_flash_ex.c ****   */
ARM GAS  /tmp/ccd22iA4.s 			page 7


 319:Drivers/STM32L0xx_HAL_Driver/Src/stm32l0xx_hal_flash_ex.c **** 
 320:Drivers/STM32L0xx_HAL_Driver/Src/stm32l0xx_hal_flash_ex.c **** /**
 321:Drivers/STM32L0xx_HAL_Driver/Src/stm32l0xx_hal_flash_ex.c ****   * @brief  Program option bytes
 322:Drivers/STM32L0xx_HAL_Driver/Src/stm32l0xx_hal_flash_ex.c ****   * @param  pOBInit pointer to an FLASH_OBInitStruct structure that
 323:Drivers/STM32L0xx_HAL_Driver/Src/stm32l0xx_hal_flash_ex.c ****   *         contains the configuration information for the programming.
 324:Drivers/STM32L0xx_HAL_Driver/Src/stm32l0xx_hal_flash_ex.c ****   * 
 325:Drivers/STM32L0xx_HAL_Driver/Src/stm32l0xx_hal_flash_ex.c ****   * @retval HAL_StatusTypeDef HAL Status
 326:Drivers/STM32L0xx_HAL_Driver/Src/stm32l0xx_hal_flash_ex.c ****   */
 327:Drivers/STM32L0xx_HAL_Driver/Src/stm32l0xx_hal_flash_ex.c **** HAL_StatusTypeDef HAL_FLASHEx_OBProgram(FLASH_OBProgramInitTypeDef *pOBInit)
 328:Drivers/STM32L0xx_HAL_Driver/Src/stm32l0xx_hal_flash_ex.c **** {
 329:Drivers/STM32L0xx_HAL_Driver/Src/stm32l0xx_hal_flash_ex.c ****   HAL_StatusTypeDef status = HAL_ERROR;
 330:Drivers/STM32L0xx_HAL_Driver/Src/stm32l0xx_hal_flash_ex.c ****   
 331:Drivers/STM32L0xx_HAL_Driver/Src/stm32l0xx_hal_flash_ex.c ****   /* Process Locked */
 332:Drivers/STM32L0xx_HAL_Driver/Src/stm32l0xx_hal_flash_ex.c ****   __HAL_LOCK(&pFlash);
 333:Drivers/STM32L0xx_HAL_Driver/Src/stm32l0xx_hal_flash_ex.c **** 
 334:Drivers/STM32L0xx_HAL_Driver/Src/stm32l0xx_hal_flash_ex.c ****   /* Check the parameters */
 335:Drivers/STM32L0xx_HAL_Driver/Src/stm32l0xx_hal_flash_ex.c ****   assert_param(IS_OPTIONBYTE(pOBInit->OptionType));
 336:Drivers/STM32L0xx_HAL_Driver/Src/stm32l0xx_hal_flash_ex.c **** 
 337:Drivers/STM32L0xx_HAL_Driver/Src/stm32l0xx_hal_flash_ex.c ****   /*Write protection configuration*/
 338:Drivers/STM32L0xx_HAL_Driver/Src/stm32l0xx_hal_flash_ex.c ****   if((pOBInit->OptionType & OPTIONBYTE_WRP) == OPTIONBYTE_WRP)
 339:Drivers/STM32L0xx_HAL_Driver/Src/stm32l0xx_hal_flash_ex.c ****   {
 340:Drivers/STM32L0xx_HAL_Driver/Src/stm32l0xx_hal_flash_ex.c ****     assert_param(IS_WRPSTATE(pOBInit->WRPState));
 341:Drivers/STM32L0xx_HAL_Driver/Src/stm32l0xx_hal_flash_ex.c **** #if defined(STM32L071xx) || defined(STM32L072xx) || defined(STM32L073xx) || defined(STM32L081xx) ||
 342:Drivers/STM32L0xx_HAL_Driver/Src/stm32l0xx_hal_flash_ex.c ****     status = FLASH_OB_ProtectedSectorsConfig(pOBInit->WRPSector, pOBInit->WRPSector2, pOBInit->WRPS
 343:Drivers/STM32L0xx_HAL_Driver/Src/stm32l0xx_hal_flash_ex.c **** #else
 344:Drivers/STM32L0xx_HAL_Driver/Src/stm32l0xx_hal_flash_ex.c ****     status = FLASH_OB_ProtectedSectorsConfig(pOBInit->WRPSector, pOBInit->WRPState);
 345:Drivers/STM32L0xx_HAL_Driver/Src/stm32l0xx_hal_flash_ex.c **** #endif
 346:Drivers/STM32L0xx_HAL_Driver/Src/stm32l0xx_hal_flash_ex.c ****     if (status != HAL_OK)
 347:Drivers/STM32L0xx_HAL_Driver/Src/stm32l0xx_hal_flash_ex.c ****     {
 348:Drivers/STM32L0xx_HAL_Driver/Src/stm32l0xx_hal_flash_ex.c ****       /* Process Unlocked */
 349:Drivers/STM32L0xx_HAL_Driver/Src/stm32l0xx_hal_flash_ex.c ****       __HAL_UNLOCK(&pFlash);
 350:Drivers/STM32L0xx_HAL_Driver/Src/stm32l0xx_hal_flash_ex.c ****       return status;
 351:Drivers/STM32L0xx_HAL_Driver/Src/stm32l0xx_hal_flash_ex.c ****     }
 352:Drivers/STM32L0xx_HAL_Driver/Src/stm32l0xx_hal_flash_ex.c ****   }
 353:Drivers/STM32L0xx_HAL_Driver/Src/stm32l0xx_hal_flash_ex.c ****   
 354:Drivers/STM32L0xx_HAL_Driver/Src/stm32l0xx_hal_flash_ex.c ****   /* Read protection configuration*/
 355:Drivers/STM32L0xx_HAL_Driver/Src/stm32l0xx_hal_flash_ex.c ****   if((pOBInit->OptionType & OPTIONBYTE_RDP) == OPTIONBYTE_RDP)
 356:Drivers/STM32L0xx_HAL_Driver/Src/stm32l0xx_hal_flash_ex.c ****   {
 357:Drivers/STM32L0xx_HAL_Driver/Src/stm32l0xx_hal_flash_ex.c ****     status = FLASH_OB_RDPConfig(pOBInit->RDPLevel);
 358:Drivers/STM32L0xx_HAL_Driver/Src/stm32l0xx_hal_flash_ex.c ****     if (status != HAL_OK)
 359:Drivers/STM32L0xx_HAL_Driver/Src/stm32l0xx_hal_flash_ex.c ****     {
 360:Drivers/STM32L0xx_HAL_Driver/Src/stm32l0xx_hal_flash_ex.c ****       /* Process Unlocked */
 361:Drivers/STM32L0xx_HAL_Driver/Src/stm32l0xx_hal_flash_ex.c ****       __HAL_UNLOCK(&pFlash);
 362:Drivers/STM32L0xx_HAL_Driver/Src/stm32l0xx_hal_flash_ex.c ****       return status;
 363:Drivers/STM32L0xx_HAL_Driver/Src/stm32l0xx_hal_flash_ex.c ****     }
 364:Drivers/STM32L0xx_HAL_Driver/Src/stm32l0xx_hal_flash_ex.c ****   }
 365:Drivers/STM32L0xx_HAL_Driver/Src/stm32l0xx_hal_flash_ex.c ****   
 366:Drivers/STM32L0xx_HAL_Driver/Src/stm32l0xx_hal_flash_ex.c ****   /* USER  configuration*/
 367:Drivers/STM32L0xx_HAL_Driver/Src/stm32l0xx_hal_flash_ex.c ****   if((pOBInit->OptionType & OPTIONBYTE_USER) == OPTIONBYTE_USER)
 368:Drivers/STM32L0xx_HAL_Driver/Src/stm32l0xx_hal_flash_ex.c ****   {
 369:Drivers/STM32L0xx_HAL_Driver/Src/stm32l0xx_hal_flash_ex.c ****     status = FLASH_OB_UserConfig(pOBInit->USERConfig & OB_IWDG_SW, 
 370:Drivers/STM32L0xx_HAL_Driver/Src/stm32l0xx_hal_flash_ex.c ****                                  pOBInit->USERConfig & OB_STOP_NORST,
 371:Drivers/STM32L0xx_HAL_Driver/Src/stm32l0xx_hal_flash_ex.c ****                                  pOBInit->USERConfig & OB_STDBY_NORST);
 372:Drivers/STM32L0xx_HAL_Driver/Src/stm32l0xx_hal_flash_ex.c ****     if (status != HAL_OK)
 373:Drivers/STM32L0xx_HAL_Driver/Src/stm32l0xx_hal_flash_ex.c ****     {
 374:Drivers/STM32L0xx_HAL_Driver/Src/stm32l0xx_hal_flash_ex.c ****       /* Process Unlocked */
 375:Drivers/STM32L0xx_HAL_Driver/Src/stm32l0xx_hal_flash_ex.c ****       __HAL_UNLOCK(&pFlash);
ARM GAS  /tmp/ccd22iA4.s 			page 8


 376:Drivers/STM32L0xx_HAL_Driver/Src/stm32l0xx_hal_flash_ex.c ****       return status;
 377:Drivers/STM32L0xx_HAL_Driver/Src/stm32l0xx_hal_flash_ex.c ****     }
 378:Drivers/STM32L0xx_HAL_Driver/Src/stm32l0xx_hal_flash_ex.c ****   }
 379:Drivers/STM32L0xx_HAL_Driver/Src/stm32l0xx_hal_flash_ex.c **** 
 380:Drivers/STM32L0xx_HAL_Driver/Src/stm32l0xx_hal_flash_ex.c ****   /* BOR Level  configuration*/
 381:Drivers/STM32L0xx_HAL_Driver/Src/stm32l0xx_hal_flash_ex.c ****   if((pOBInit->OptionType & OPTIONBYTE_BOR) == OPTIONBYTE_BOR)
 382:Drivers/STM32L0xx_HAL_Driver/Src/stm32l0xx_hal_flash_ex.c ****   {
 383:Drivers/STM32L0xx_HAL_Driver/Src/stm32l0xx_hal_flash_ex.c ****     status = FLASH_OB_BORConfig(pOBInit->BORLevel);
 384:Drivers/STM32L0xx_HAL_Driver/Src/stm32l0xx_hal_flash_ex.c ****     if (status != HAL_OK)
 385:Drivers/STM32L0xx_HAL_Driver/Src/stm32l0xx_hal_flash_ex.c ****     {
 386:Drivers/STM32L0xx_HAL_Driver/Src/stm32l0xx_hal_flash_ex.c ****       /* Process Unlocked */
 387:Drivers/STM32L0xx_HAL_Driver/Src/stm32l0xx_hal_flash_ex.c ****       __HAL_UNLOCK(&pFlash);
 388:Drivers/STM32L0xx_HAL_Driver/Src/stm32l0xx_hal_flash_ex.c ****       return status;
 389:Drivers/STM32L0xx_HAL_Driver/Src/stm32l0xx_hal_flash_ex.c ****     }
 390:Drivers/STM32L0xx_HAL_Driver/Src/stm32l0xx_hal_flash_ex.c ****   }
 391:Drivers/STM32L0xx_HAL_Driver/Src/stm32l0xx_hal_flash_ex.c **** 
 392:Drivers/STM32L0xx_HAL_Driver/Src/stm32l0xx_hal_flash_ex.c ****   /* Program BOOT Bit1 config option byte */
 393:Drivers/STM32L0xx_HAL_Driver/Src/stm32l0xx_hal_flash_ex.c ****   if ((pOBInit->OptionType & OPTIONBYTE_BOOT_BIT1) == OPTIONBYTE_BOOT_BIT1)
 394:Drivers/STM32L0xx_HAL_Driver/Src/stm32l0xx_hal_flash_ex.c ****   {
 395:Drivers/STM32L0xx_HAL_Driver/Src/stm32l0xx_hal_flash_ex.c ****     status = FLASH_OB_BOOTBit1Config(pOBInit->BOOTBit1Config);
 396:Drivers/STM32L0xx_HAL_Driver/Src/stm32l0xx_hal_flash_ex.c ****   }
 397:Drivers/STM32L0xx_HAL_Driver/Src/stm32l0xx_hal_flash_ex.c ****   /* Process Unlocked */
 398:Drivers/STM32L0xx_HAL_Driver/Src/stm32l0xx_hal_flash_ex.c ****   __HAL_UNLOCK(&pFlash);
 399:Drivers/STM32L0xx_HAL_Driver/Src/stm32l0xx_hal_flash_ex.c **** 
 400:Drivers/STM32L0xx_HAL_Driver/Src/stm32l0xx_hal_flash_ex.c ****   return status;
 401:Drivers/STM32L0xx_HAL_Driver/Src/stm32l0xx_hal_flash_ex.c **** }
 402:Drivers/STM32L0xx_HAL_Driver/Src/stm32l0xx_hal_flash_ex.c **** 
 403:Drivers/STM32L0xx_HAL_Driver/Src/stm32l0xx_hal_flash_ex.c **** /**
 404:Drivers/STM32L0xx_HAL_Driver/Src/stm32l0xx_hal_flash_ex.c ****   * @brief   Get the Option byte configuration
 405:Drivers/STM32L0xx_HAL_Driver/Src/stm32l0xx_hal_flash_ex.c ****   * @param  pOBInit pointer to an FLASH_OBInitStruct structure that
 406:Drivers/STM32L0xx_HAL_Driver/Src/stm32l0xx_hal_flash_ex.c ****   *         contains the configuration information for the programming.
 407:Drivers/STM32L0xx_HAL_Driver/Src/stm32l0xx_hal_flash_ex.c ****   * 
 408:Drivers/STM32L0xx_HAL_Driver/Src/stm32l0xx_hal_flash_ex.c ****   * @retval None
 409:Drivers/STM32L0xx_HAL_Driver/Src/stm32l0xx_hal_flash_ex.c ****   */
 410:Drivers/STM32L0xx_HAL_Driver/Src/stm32l0xx_hal_flash_ex.c **** void HAL_FLASHEx_OBGetConfig(FLASH_OBProgramInitTypeDef *pOBInit)
 411:Drivers/STM32L0xx_HAL_Driver/Src/stm32l0xx_hal_flash_ex.c **** {
 412:Drivers/STM32L0xx_HAL_Driver/Src/stm32l0xx_hal_flash_ex.c ****   pOBInit->OptionType = OPTIONBYTE_WRP | OPTIONBYTE_RDP | OPTIONBYTE_USER | OPTIONBYTE_BOR;
 413:Drivers/STM32L0xx_HAL_Driver/Src/stm32l0xx_hal_flash_ex.c **** 
 414:Drivers/STM32L0xx_HAL_Driver/Src/stm32l0xx_hal_flash_ex.c ****   /* Get WRP sector */
 415:Drivers/STM32L0xx_HAL_Driver/Src/stm32l0xx_hal_flash_ex.c ****   pOBInit->WRPSector = FLASH_OB_GetWRP();
 416:Drivers/STM32L0xx_HAL_Driver/Src/stm32l0xx_hal_flash_ex.c **** 
 417:Drivers/STM32L0xx_HAL_Driver/Src/stm32l0xx_hal_flash_ex.c **** #if defined(STM32L071xx) || defined(STM32L072xx) || defined(STM32L073xx) || defined(STM32L081xx) ||
 418:Drivers/STM32L0xx_HAL_Driver/Src/stm32l0xx_hal_flash_ex.c ****   pOBInit->WRPSector2 = FLASH_OB_GetWRP2();
 419:Drivers/STM32L0xx_HAL_Driver/Src/stm32l0xx_hal_flash_ex.c **** #endif
 420:Drivers/STM32L0xx_HAL_Driver/Src/stm32l0xx_hal_flash_ex.c **** 
 421:Drivers/STM32L0xx_HAL_Driver/Src/stm32l0xx_hal_flash_ex.c ****   /*Get RDP Level*/
 422:Drivers/STM32L0xx_HAL_Driver/Src/stm32l0xx_hal_flash_ex.c ****   pOBInit->RDPLevel   = FLASH_OB_GetRDP();
 423:Drivers/STM32L0xx_HAL_Driver/Src/stm32l0xx_hal_flash_ex.c **** 
 424:Drivers/STM32L0xx_HAL_Driver/Src/stm32l0xx_hal_flash_ex.c ****   /*Get USER*/
 425:Drivers/STM32L0xx_HAL_Driver/Src/stm32l0xx_hal_flash_ex.c ****   pOBInit->USERConfig = FLASH_OB_GetUser();
 426:Drivers/STM32L0xx_HAL_Driver/Src/stm32l0xx_hal_flash_ex.c **** 
 427:Drivers/STM32L0xx_HAL_Driver/Src/stm32l0xx_hal_flash_ex.c ****   /*Get BOR Level*/
 428:Drivers/STM32L0xx_HAL_Driver/Src/stm32l0xx_hal_flash_ex.c ****   pOBInit->BORLevel   = FLASH_OB_GetBOR();
 429:Drivers/STM32L0xx_HAL_Driver/Src/stm32l0xx_hal_flash_ex.c **** 
 430:Drivers/STM32L0xx_HAL_Driver/Src/stm32l0xx_hal_flash_ex.c ****   /* Get BOOT bit 1 config OB */
 431:Drivers/STM32L0xx_HAL_Driver/Src/stm32l0xx_hal_flash_ex.c ****   pOBInit->BOOTBit1Config = FLASH_OB_GetBOOTBit1();
 432:Drivers/STM32L0xx_HAL_Driver/Src/stm32l0xx_hal_flash_ex.c **** }
ARM GAS  /tmp/ccd22iA4.s 			page 9


 433:Drivers/STM32L0xx_HAL_Driver/Src/stm32l0xx_hal_flash_ex.c **** 
 434:Drivers/STM32L0xx_HAL_Driver/Src/stm32l0xx_hal_flash_ex.c **** #if defined(FLASH_OPTR_WPRMOD) || defined(FLASH_OPTR_BFB2)
 435:Drivers/STM32L0xx_HAL_Driver/Src/stm32l0xx_hal_flash_ex.c ****     
 436:Drivers/STM32L0xx_HAL_Driver/Src/stm32l0xx_hal_flash_ex.c **** /**
 437:Drivers/STM32L0xx_HAL_Driver/Src/stm32l0xx_hal_flash_ex.c ****   * @brief  Program option bytes
 438:Drivers/STM32L0xx_HAL_Driver/Src/stm32l0xx_hal_flash_ex.c ****   * @param  pAdvOBInit pointer to an FLASH_AdvOBProgramInitTypeDef structure that
 439:Drivers/STM32L0xx_HAL_Driver/Src/stm32l0xx_hal_flash_ex.c ****   *         contains the configuration information for the programming.
 440:Drivers/STM32L0xx_HAL_Driver/Src/stm32l0xx_hal_flash_ex.c ****   * 
 441:Drivers/STM32L0xx_HAL_Driver/Src/stm32l0xx_hal_flash_ex.c ****   * @retval HAL_StatusTypeDef HAL Status
 442:Drivers/STM32L0xx_HAL_Driver/Src/stm32l0xx_hal_flash_ex.c ****   */
 443:Drivers/STM32L0xx_HAL_Driver/Src/stm32l0xx_hal_flash_ex.c **** HAL_StatusTypeDef HAL_FLASHEx_AdvOBProgram (FLASH_AdvOBProgramInitTypeDef *pAdvOBInit)
 444:Drivers/STM32L0xx_HAL_Driver/Src/stm32l0xx_hal_flash_ex.c **** {
 445:Drivers/STM32L0xx_HAL_Driver/Src/stm32l0xx_hal_flash_ex.c ****   HAL_StatusTypeDef status = HAL_ERROR;
 446:Drivers/STM32L0xx_HAL_Driver/Src/stm32l0xx_hal_flash_ex.c ****   
 447:Drivers/STM32L0xx_HAL_Driver/Src/stm32l0xx_hal_flash_ex.c ****   /* Check the parameters */
 448:Drivers/STM32L0xx_HAL_Driver/Src/stm32l0xx_hal_flash_ex.c ****   assert_param(IS_OBEX(pAdvOBInit->OptionType));
 449:Drivers/STM32L0xx_HAL_Driver/Src/stm32l0xx_hal_flash_ex.c **** 
 450:Drivers/STM32L0xx_HAL_Driver/Src/stm32l0xx_hal_flash_ex.c **** #if defined(FLASH_OPTR_WPRMOD)
 451:Drivers/STM32L0xx_HAL_Driver/Src/stm32l0xx_hal_flash_ex.c ****     
 452:Drivers/STM32L0xx_HAL_Driver/Src/stm32l0xx_hal_flash_ex.c ****   /* Program PCROP option byte*/
 453:Drivers/STM32L0xx_HAL_Driver/Src/stm32l0xx_hal_flash_ex.c ****   if ((pAdvOBInit->OptionType & OPTIONBYTE_PCROP) == OPTIONBYTE_PCROP)
 454:Drivers/STM32L0xx_HAL_Driver/Src/stm32l0xx_hal_flash_ex.c ****   {
 455:Drivers/STM32L0xx_HAL_Driver/Src/stm32l0xx_hal_flash_ex.c ****     /* Check the parameters */
 456:Drivers/STM32L0xx_HAL_Driver/Src/stm32l0xx_hal_flash_ex.c ****     assert_param(IS_PCROPSTATE(pAdvOBInit->PCROPState));
 457:Drivers/STM32L0xx_HAL_Driver/Src/stm32l0xx_hal_flash_ex.c **** #if defined(STM32L071xx) || defined(STM32L072xx) || defined(STM32L073xx) || defined(STM32L081xx) ||
 458:Drivers/STM32L0xx_HAL_Driver/Src/stm32l0xx_hal_flash_ex.c ****     status = FLASH_OB_ProtectedSectorsConfig(pAdvOBInit->PCROPSector, pAdvOBInit->PCROPSector2, pAd
 459:Drivers/STM32L0xx_HAL_Driver/Src/stm32l0xx_hal_flash_ex.c **** #else
 460:Drivers/STM32L0xx_HAL_Driver/Src/stm32l0xx_hal_flash_ex.c ****     status = FLASH_OB_ProtectedSectorsConfig(pAdvOBInit->PCROPSector, pAdvOBInit->PCROPState);
 461:Drivers/STM32L0xx_HAL_Driver/Src/stm32l0xx_hal_flash_ex.c **** #endif
 462:Drivers/STM32L0xx_HAL_Driver/Src/stm32l0xx_hal_flash_ex.c ****   }
 463:Drivers/STM32L0xx_HAL_Driver/Src/stm32l0xx_hal_flash_ex.c ****   
 464:Drivers/STM32L0xx_HAL_Driver/Src/stm32l0xx_hal_flash_ex.c **** #endif /* FLASH_OPTR_WPRMOD */
 465:Drivers/STM32L0xx_HAL_Driver/Src/stm32l0xx_hal_flash_ex.c **** 
 466:Drivers/STM32L0xx_HAL_Driver/Src/stm32l0xx_hal_flash_ex.c **** #if defined(FLASH_OPTR_BFB2)
 467:Drivers/STM32L0xx_HAL_Driver/Src/stm32l0xx_hal_flash_ex.c ****     
 468:Drivers/STM32L0xx_HAL_Driver/Src/stm32l0xx_hal_flash_ex.c ****   /* Program BOOT config option byte */
 469:Drivers/STM32L0xx_HAL_Driver/Src/stm32l0xx_hal_flash_ex.c ****   if ((pAdvOBInit->OptionType & OPTIONBYTE_BOOTCONFIG) == OPTIONBYTE_BOOTCONFIG)
 470:Drivers/STM32L0xx_HAL_Driver/Src/stm32l0xx_hal_flash_ex.c ****   {
 471:Drivers/STM32L0xx_HAL_Driver/Src/stm32l0xx_hal_flash_ex.c ****     status = FLASH_OB_BootConfig(pAdvOBInit->BootConfig);
 472:Drivers/STM32L0xx_HAL_Driver/Src/stm32l0xx_hal_flash_ex.c ****   }
 473:Drivers/STM32L0xx_HAL_Driver/Src/stm32l0xx_hal_flash_ex.c ****   
 474:Drivers/STM32L0xx_HAL_Driver/Src/stm32l0xx_hal_flash_ex.c **** #endif /* FLASH_OPTR_BFB2 */
 475:Drivers/STM32L0xx_HAL_Driver/Src/stm32l0xx_hal_flash_ex.c **** 
 476:Drivers/STM32L0xx_HAL_Driver/Src/stm32l0xx_hal_flash_ex.c ****   return status;
 477:Drivers/STM32L0xx_HAL_Driver/Src/stm32l0xx_hal_flash_ex.c **** }
 478:Drivers/STM32L0xx_HAL_Driver/Src/stm32l0xx_hal_flash_ex.c **** 
 479:Drivers/STM32L0xx_HAL_Driver/Src/stm32l0xx_hal_flash_ex.c **** /**
 480:Drivers/STM32L0xx_HAL_Driver/Src/stm32l0xx_hal_flash_ex.c ****   * @brief  Get the OBEX byte configuration
 481:Drivers/STM32L0xx_HAL_Driver/Src/stm32l0xx_hal_flash_ex.c ****   * @param  pAdvOBInit pointer to an FLASH_AdvOBProgramInitTypeDef structure that
 482:Drivers/STM32L0xx_HAL_Driver/Src/stm32l0xx_hal_flash_ex.c ****   *         contains the configuration information for the programming.
 483:Drivers/STM32L0xx_HAL_Driver/Src/stm32l0xx_hal_flash_ex.c ****   * 
 484:Drivers/STM32L0xx_HAL_Driver/Src/stm32l0xx_hal_flash_ex.c ****   * @retval None
 485:Drivers/STM32L0xx_HAL_Driver/Src/stm32l0xx_hal_flash_ex.c ****   */
 486:Drivers/STM32L0xx_HAL_Driver/Src/stm32l0xx_hal_flash_ex.c **** void HAL_FLASHEx_AdvOBGetConfig(FLASH_AdvOBProgramInitTypeDef *pAdvOBInit)
 487:Drivers/STM32L0xx_HAL_Driver/Src/stm32l0xx_hal_flash_ex.c **** {
 488:Drivers/STM32L0xx_HAL_Driver/Src/stm32l0xx_hal_flash_ex.c ****   pAdvOBInit->OptionType = 0;
 489:Drivers/STM32L0xx_HAL_Driver/Src/stm32l0xx_hal_flash_ex.c ****   
ARM GAS  /tmp/ccd22iA4.s 			page 10


 490:Drivers/STM32L0xx_HAL_Driver/Src/stm32l0xx_hal_flash_ex.c **** #if defined(FLASH_OPTR_WPRMOD)
 491:Drivers/STM32L0xx_HAL_Driver/Src/stm32l0xx_hal_flash_ex.c ****       
 492:Drivers/STM32L0xx_HAL_Driver/Src/stm32l0xx_hal_flash_ex.c ****   pAdvOBInit->OptionType |= OPTIONBYTE_PCROP;
 493:Drivers/STM32L0xx_HAL_Driver/Src/stm32l0xx_hal_flash_ex.c **** 
 494:Drivers/STM32L0xx_HAL_Driver/Src/stm32l0xx_hal_flash_ex.c **** 
 495:Drivers/STM32L0xx_HAL_Driver/Src/stm32l0xx_hal_flash_ex.c ****   /* Get PCROP state */
 496:Drivers/STM32L0xx_HAL_Driver/Src/stm32l0xx_hal_flash_ex.c ****   pAdvOBInit->PCROPState = (FLASH->OPTR & FLASH_OPTR_WPRMOD) >> FLASH_OPTR_WPRMOD_Pos;
 497:Drivers/STM32L0xx_HAL_Driver/Src/stm32l0xx_hal_flash_ex.c ****   /* Get PCROP protected sector */
 498:Drivers/STM32L0xx_HAL_Driver/Src/stm32l0xx_hal_flash_ex.c ****   pAdvOBInit->PCROPSector = FLASH->WRPR;
 499:Drivers/STM32L0xx_HAL_Driver/Src/stm32l0xx_hal_flash_ex.c **** 
 500:Drivers/STM32L0xx_HAL_Driver/Src/stm32l0xx_hal_flash_ex.c **** #if defined(STM32L071xx) || defined(STM32L072xx) || defined(STM32L073xx) || defined(STM32L081xx) ||
 501:Drivers/STM32L0xx_HAL_Driver/Src/stm32l0xx_hal_flash_ex.c ****   /* Get PCROP protected sector */
 502:Drivers/STM32L0xx_HAL_Driver/Src/stm32l0xx_hal_flash_ex.c ****   pAdvOBInit->PCROPSector2 = FLASH->WRPR2;
 503:Drivers/STM32L0xx_HAL_Driver/Src/stm32l0xx_hal_flash_ex.c **** #endif
 504:Drivers/STM32L0xx_HAL_Driver/Src/stm32l0xx_hal_flash_ex.c **** #endif /* FLASH_OPTR_WPRMOD */
 505:Drivers/STM32L0xx_HAL_Driver/Src/stm32l0xx_hal_flash_ex.c **** 
 506:Drivers/STM32L0xx_HAL_Driver/Src/stm32l0xx_hal_flash_ex.c **** #if defined(FLASH_OPTR_BFB2)
 507:Drivers/STM32L0xx_HAL_Driver/Src/stm32l0xx_hal_flash_ex.c ****       
 508:Drivers/STM32L0xx_HAL_Driver/Src/stm32l0xx_hal_flash_ex.c ****   pAdvOBInit->OptionType |= OPTIONBYTE_BOOTCONFIG;
 509:Drivers/STM32L0xx_HAL_Driver/Src/stm32l0xx_hal_flash_ex.c **** 
 510:Drivers/STM32L0xx_HAL_Driver/Src/stm32l0xx_hal_flash_ex.c ****   /* Get Boot config OB */
 511:Drivers/STM32L0xx_HAL_Driver/Src/stm32l0xx_hal_flash_ex.c ****   pAdvOBInit->BootConfig = (FLASH->OPTR & FLASH_OPTR_BFB2) >> 16U;
 512:Drivers/STM32L0xx_HAL_Driver/Src/stm32l0xx_hal_flash_ex.c **** 
 513:Drivers/STM32L0xx_HAL_Driver/Src/stm32l0xx_hal_flash_ex.c **** #endif /* FLASH_OPTR_BFB2 */
 514:Drivers/STM32L0xx_HAL_Driver/Src/stm32l0xx_hal_flash_ex.c **** }
 515:Drivers/STM32L0xx_HAL_Driver/Src/stm32l0xx_hal_flash_ex.c **** 
 516:Drivers/STM32L0xx_HAL_Driver/Src/stm32l0xx_hal_flash_ex.c **** #endif /* FLASH_OPTR_WPRMOD || FLASH_OPTR_BFB2 */
 517:Drivers/STM32L0xx_HAL_Driver/Src/stm32l0xx_hal_flash_ex.c **** 
 518:Drivers/STM32L0xx_HAL_Driver/Src/stm32l0xx_hal_flash_ex.c **** #if defined(FLASH_OPTR_WPRMOD)
 519:Drivers/STM32L0xx_HAL_Driver/Src/stm32l0xx_hal_flash_ex.c **** 
 520:Drivers/STM32L0xx_HAL_Driver/Src/stm32l0xx_hal_flash_ex.c **** /**
 521:Drivers/STM32L0xx_HAL_Driver/Src/stm32l0xx_hal_flash_ex.c ****   * @brief  Select the Protection Mode (WPRMOD).
 522:Drivers/STM32L0xx_HAL_Driver/Src/stm32l0xx_hal_flash_ex.c ****   * @note   Once WPRMOD bit is active, unprotection of a protected sector is not possible 
 523:Drivers/STM32L0xx_HAL_Driver/Src/stm32l0xx_hal_flash_ex.c ****   * @note   Read a protected sector will set RDERR Flag and write a protected sector will set WRPER
 524:Drivers/STM32L0xx_HAL_Driver/Src/stm32l0xx_hal_flash_ex.c ****   * @retval HAL status
 525:Drivers/STM32L0xx_HAL_Driver/Src/stm32l0xx_hal_flash_ex.c ****   */
 526:Drivers/STM32L0xx_HAL_Driver/Src/stm32l0xx_hal_flash_ex.c **** HAL_StatusTypeDef HAL_FLASHEx_OB_SelectPCROP(void)
 527:Drivers/STM32L0xx_HAL_Driver/Src/stm32l0xx_hal_flash_ex.c **** {
 528:Drivers/STM32L0xx_HAL_Driver/Src/stm32l0xx_hal_flash_ex.c ****   HAL_StatusTypeDef status = HAL_OK;
 529:Drivers/STM32L0xx_HAL_Driver/Src/stm32l0xx_hal_flash_ex.c ****   uint16_t tmp1 = 0;
 530:Drivers/STM32L0xx_HAL_Driver/Src/stm32l0xx_hal_flash_ex.c ****   uint32_t tmp2 = 0;
 531:Drivers/STM32L0xx_HAL_Driver/Src/stm32l0xx_hal_flash_ex.c ****   uint8_t optiontmp = 0;
 532:Drivers/STM32L0xx_HAL_Driver/Src/stm32l0xx_hal_flash_ex.c ****   uint16_t optiontmp2 = 0;
 533:Drivers/STM32L0xx_HAL_Driver/Src/stm32l0xx_hal_flash_ex.c ****   
 534:Drivers/STM32L0xx_HAL_Driver/Src/stm32l0xx_hal_flash_ex.c ****   status = FLASH_WaitForLastOperation(FLASH_TIMEOUT_VALUE);
 535:Drivers/STM32L0xx_HAL_Driver/Src/stm32l0xx_hal_flash_ex.c ****   
 536:Drivers/STM32L0xx_HAL_Driver/Src/stm32l0xx_hal_flash_ex.c ****   /* Mask RDP Byte */
 537:Drivers/STM32L0xx_HAL_Driver/Src/stm32l0xx_hal_flash_ex.c ****   optiontmp =  (uint8_t)(*(__IO uint8_t *)(OB_BASE)); 
 538:Drivers/STM32L0xx_HAL_Driver/Src/stm32l0xx_hal_flash_ex.c ****   
 539:Drivers/STM32L0xx_HAL_Driver/Src/stm32l0xx_hal_flash_ex.c ****   /* Update Option Byte */
 540:Drivers/STM32L0xx_HAL_Driver/Src/stm32l0xx_hal_flash_ex.c ****   optiontmp2 = (uint16_t)(OB_PCROP_SELECTED | optiontmp); 
 541:Drivers/STM32L0xx_HAL_Driver/Src/stm32l0xx_hal_flash_ex.c ****   
 542:Drivers/STM32L0xx_HAL_Driver/Src/stm32l0xx_hal_flash_ex.c ****   /* calculate the option byte to write */
 543:Drivers/STM32L0xx_HAL_Driver/Src/stm32l0xx_hal_flash_ex.c ****   tmp1 = (uint16_t)(~(optiontmp2 ));
 544:Drivers/STM32L0xx_HAL_Driver/Src/stm32l0xx_hal_flash_ex.c ****   tmp2 = (uint32_t)(((uint32_t)((uint32_t)(tmp1) << 16U)) | ((uint32_t)optiontmp2));
 545:Drivers/STM32L0xx_HAL_Driver/Src/stm32l0xx_hal_flash_ex.c ****   
 546:Drivers/STM32L0xx_HAL_Driver/Src/stm32l0xx_hal_flash_ex.c ****   if(status == HAL_OK)
ARM GAS  /tmp/ccd22iA4.s 			page 11


 547:Drivers/STM32L0xx_HAL_Driver/Src/stm32l0xx_hal_flash_ex.c ****   {         
 548:Drivers/STM32L0xx_HAL_Driver/Src/stm32l0xx_hal_flash_ex.c ****     /* Clean the error context */
 549:Drivers/STM32L0xx_HAL_Driver/Src/stm32l0xx_hal_flash_ex.c ****     pFlash.ErrorCode = HAL_FLASH_ERROR_NONE;
 550:Drivers/STM32L0xx_HAL_Driver/Src/stm32l0xx_hal_flash_ex.c **** 
 551:Drivers/STM32L0xx_HAL_Driver/Src/stm32l0xx_hal_flash_ex.c ****     /* program PCRop */
 552:Drivers/STM32L0xx_HAL_Driver/Src/stm32l0xx_hal_flash_ex.c ****     OB->RDP = tmp2;
 553:Drivers/STM32L0xx_HAL_Driver/Src/stm32l0xx_hal_flash_ex.c ****     
 554:Drivers/STM32L0xx_HAL_Driver/Src/stm32l0xx_hal_flash_ex.c ****     /* Wait for last operation to be completed */
 555:Drivers/STM32L0xx_HAL_Driver/Src/stm32l0xx_hal_flash_ex.c ****     status = FLASH_WaitForLastOperation(FLASH_TIMEOUT_VALUE);
 556:Drivers/STM32L0xx_HAL_Driver/Src/stm32l0xx_hal_flash_ex.c ****   }
 557:Drivers/STM32L0xx_HAL_Driver/Src/stm32l0xx_hal_flash_ex.c ****   
 558:Drivers/STM32L0xx_HAL_Driver/Src/stm32l0xx_hal_flash_ex.c ****   /* Return the Read protection operation Status */
 559:Drivers/STM32L0xx_HAL_Driver/Src/stm32l0xx_hal_flash_ex.c ****   return status;            
 560:Drivers/STM32L0xx_HAL_Driver/Src/stm32l0xx_hal_flash_ex.c **** }
 561:Drivers/STM32L0xx_HAL_Driver/Src/stm32l0xx_hal_flash_ex.c **** 
 562:Drivers/STM32L0xx_HAL_Driver/Src/stm32l0xx_hal_flash_ex.c **** /**
 563:Drivers/STM32L0xx_HAL_Driver/Src/stm32l0xx_hal_flash_ex.c ****   * @brief  Deselect the Protection Mode (WPRMOD).
 564:Drivers/STM32L0xx_HAL_Driver/Src/stm32l0xx_hal_flash_ex.c ****   * @note   Once WPRMOD bit is active, unprotection of a protected sector is not possible 
 565:Drivers/STM32L0xx_HAL_Driver/Src/stm32l0xx_hal_flash_ex.c ****   * @note   Read a protected sector will set RDERR Flag and write a protected sector will set WRPER
 566:Drivers/STM32L0xx_HAL_Driver/Src/stm32l0xx_hal_flash_ex.c ****   * @retval HAL status
 567:Drivers/STM32L0xx_HAL_Driver/Src/stm32l0xx_hal_flash_ex.c ****   */
 568:Drivers/STM32L0xx_HAL_Driver/Src/stm32l0xx_hal_flash_ex.c **** HAL_StatusTypeDef HAL_FLASHEx_OB_DeSelectPCROP(void)
 569:Drivers/STM32L0xx_HAL_Driver/Src/stm32l0xx_hal_flash_ex.c **** {
 570:Drivers/STM32L0xx_HAL_Driver/Src/stm32l0xx_hal_flash_ex.c ****   HAL_StatusTypeDef status = HAL_OK;
 571:Drivers/STM32L0xx_HAL_Driver/Src/stm32l0xx_hal_flash_ex.c ****   uint16_t tmp1 = 0;
 572:Drivers/STM32L0xx_HAL_Driver/Src/stm32l0xx_hal_flash_ex.c ****   uint32_t tmp2 = 0;
 573:Drivers/STM32L0xx_HAL_Driver/Src/stm32l0xx_hal_flash_ex.c ****   uint8_t optiontmp = 0;
 574:Drivers/STM32L0xx_HAL_Driver/Src/stm32l0xx_hal_flash_ex.c ****   uint16_t optiontmp2 = 0;
 575:Drivers/STM32L0xx_HAL_Driver/Src/stm32l0xx_hal_flash_ex.c ****   
 576:Drivers/STM32L0xx_HAL_Driver/Src/stm32l0xx_hal_flash_ex.c ****   status = FLASH_WaitForLastOperation(FLASH_TIMEOUT_VALUE);
 577:Drivers/STM32L0xx_HAL_Driver/Src/stm32l0xx_hal_flash_ex.c ****   
 578:Drivers/STM32L0xx_HAL_Driver/Src/stm32l0xx_hal_flash_ex.c ****   /* Mask RDP Byte */
 579:Drivers/STM32L0xx_HAL_Driver/Src/stm32l0xx_hal_flash_ex.c ****   optiontmp =  (uint8_t)(*(__IO uint8_t *)(OB_BASE)); 
 580:Drivers/STM32L0xx_HAL_Driver/Src/stm32l0xx_hal_flash_ex.c ****   
 581:Drivers/STM32L0xx_HAL_Driver/Src/stm32l0xx_hal_flash_ex.c ****   /* Update Option Byte */
 582:Drivers/STM32L0xx_HAL_Driver/Src/stm32l0xx_hal_flash_ex.c ****   optiontmp2 = (uint16_t)(OB_PCROP_DESELECTED | optiontmp); 
 583:Drivers/STM32L0xx_HAL_Driver/Src/stm32l0xx_hal_flash_ex.c ****   
 584:Drivers/STM32L0xx_HAL_Driver/Src/stm32l0xx_hal_flash_ex.c ****   /* calculate the option byte to write */
 585:Drivers/STM32L0xx_HAL_Driver/Src/stm32l0xx_hal_flash_ex.c ****   tmp1 = (uint16_t)(~(optiontmp2 ));
 586:Drivers/STM32L0xx_HAL_Driver/Src/stm32l0xx_hal_flash_ex.c ****   tmp2 = (uint32_t)(((uint32_t)((uint32_t)(tmp1) << 16U)) | ((uint32_t)optiontmp2));
 587:Drivers/STM32L0xx_HAL_Driver/Src/stm32l0xx_hal_flash_ex.c ****   
 588:Drivers/STM32L0xx_HAL_Driver/Src/stm32l0xx_hal_flash_ex.c ****   if(status == HAL_OK)
 589:Drivers/STM32L0xx_HAL_Driver/Src/stm32l0xx_hal_flash_ex.c ****   {         
 590:Drivers/STM32L0xx_HAL_Driver/Src/stm32l0xx_hal_flash_ex.c ****     /* Clean the error context */
 591:Drivers/STM32L0xx_HAL_Driver/Src/stm32l0xx_hal_flash_ex.c ****     pFlash.ErrorCode = HAL_FLASH_ERROR_NONE;
 592:Drivers/STM32L0xx_HAL_Driver/Src/stm32l0xx_hal_flash_ex.c **** 
 593:Drivers/STM32L0xx_HAL_Driver/Src/stm32l0xx_hal_flash_ex.c ****     /* program PCRop */
 594:Drivers/STM32L0xx_HAL_Driver/Src/stm32l0xx_hal_flash_ex.c ****     OB->RDP = tmp2;
 595:Drivers/STM32L0xx_HAL_Driver/Src/stm32l0xx_hal_flash_ex.c ****     
 596:Drivers/STM32L0xx_HAL_Driver/Src/stm32l0xx_hal_flash_ex.c ****     /* Wait for last operation to be completed */
 597:Drivers/STM32L0xx_HAL_Driver/Src/stm32l0xx_hal_flash_ex.c ****     status = FLASH_WaitForLastOperation(FLASH_TIMEOUT_VALUE);
 598:Drivers/STM32L0xx_HAL_Driver/Src/stm32l0xx_hal_flash_ex.c ****   }
 599:Drivers/STM32L0xx_HAL_Driver/Src/stm32l0xx_hal_flash_ex.c ****   
 600:Drivers/STM32L0xx_HAL_Driver/Src/stm32l0xx_hal_flash_ex.c ****   /* Return the Read protection operation Status */
 601:Drivers/STM32L0xx_HAL_Driver/Src/stm32l0xx_hal_flash_ex.c ****   return status;            
 602:Drivers/STM32L0xx_HAL_Driver/Src/stm32l0xx_hal_flash_ex.c **** }
 603:Drivers/STM32L0xx_HAL_Driver/Src/stm32l0xx_hal_flash_ex.c **** 
ARM GAS  /tmp/ccd22iA4.s 			page 12


 604:Drivers/STM32L0xx_HAL_Driver/Src/stm32l0xx_hal_flash_ex.c **** #endif /* FLASH_OPTR_WPRMOD */
 605:Drivers/STM32L0xx_HAL_Driver/Src/stm32l0xx_hal_flash_ex.c **** 
 606:Drivers/STM32L0xx_HAL_Driver/Src/stm32l0xx_hal_flash_ex.c **** /**
 607:Drivers/STM32L0xx_HAL_Driver/Src/stm32l0xx_hal_flash_ex.c ****   * @}
 608:Drivers/STM32L0xx_HAL_Driver/Src/stm32l0xx_hal_flash_ex.c ****   */
 609:Drivers/STM32L0xx_HAL_Driver/Src/stm32l0xx_hal_flash_ex.c **** 
 610:Drivers/STM32L0xx_HAL_Driver/Src/stm32l0xx_hal_flash_ex.c **** /** @defgroup FLASHEx_Exported_Functions_Group3 DATA EEPROM Programming functions
 611:Drivers/STM32L0xx_HAL_Driver/Src/stm32l0xx_hal_flash_ex.c ****  *  @brief   DATA EEPROM Programming functions
 612:Drivers/STM32L0xx_HAL_Driver/Src/stm32l0xx_hal_flash_ex.c ****  *
 613:Drivers/STM32L0xx_HAL_Driver/Src/stm32l0xx_hal_flash_ex.c **** @verbatim   
 614:Drivers/STM32L0xx_HAL_Driver/Src/stm32l0xx_hal_flash_ex.c ****  ===============================================================================
 615:Drivers/STM32L0xx_HAL_Driver/Src/stm32l0xx_hal_flash_ex.c ****                      ##### DATA EEPROM Programming functions ##### 
 616:Drivers/STM32L0xx_HAL_Driver/Src/stm32l0xx_hal_flash_ex.c ****  ===============================================================================  
 617:Drivers/STM32L0xx_HAL_Driver/Src/stm32l0xx_hal_flash_ex.c ****  
 618:Drivers/STM32L0xx_HAL_Driver/Src/stm32l0xx_hal_flash_ex.c ****     [..] Any operation of erase or program should follow these steps:
 619:Drivers/STM32L0xx_HAL_Driver/Src/stm32l0xx_hal_flash_ex.c ****     (#) Call the @ref HAL_FLASHEx_DATAEEPROM_Unlock() function to enable the data EEPROM access
 620:Drivers/STM32L0xx_HAL_Driver/Src/stm32l0xx_hal_flash_ex.c ****         and Flash program erase control register access.
 621:Drivers/STM32L0xx_HAL_Driver/Src/stm32l0xx_hal_flash_ex.c ****     (#) Call the desired function to erase or program data.
 622:Drivers/STM32L0xx_HAL_Driver/Src/stm32l0xx_hal_flash_ex.c ****     (#) Call the @ref HAL_FLASHEx_DATAEEPROM_Lock() to disable the data EEPROM access
 623:Drivers/STM32L0xx_HAL_Driver/Src/stm32l0xx_hal_flash_ex.c ****         and Flash program erase control register access(recommended
 624:Drivers/STM32L0xx_HAL_Driver/Src/stm32l0xx_hal_flash_ex.c ****         to protect the DATA_EEPROM against possible unwanted operation).
 625:Drivers/STM32L0xx_HAL_Driver/Src/stm32l0xx_hal_flash_ex.c **** 
 626:Drivers/STM32L0xx_HAL_Driver/Src/stm32l0xx_hal_flash_ex.c **** @endverbatim
 627:Drivers/STM32L0xx_HAL_Driver/Src/stm32l0xx_hal_flash_ex.c ****   * @{
 628:Drivers/STM32L0xx_HAL_Driver/Src/stm32l0xx_hal_flash_ex.c ****   */
 629:Drivers/STM32L0xx_HAL_Driver/Src/stm32l0xx_hal_flash_ex.c **** 
 630:Drivers/STM32L0xx_HAL_Driver/Src/stm32l0xx_hal_flash_ex.c **** /**
 631:Drivers/STM32L0xx_HAL_Driver/Src/stm32l0xx_hal_flash_ex.c ****   * @brief  Unlocks the data memory and FLASH_PECR register access.
 632:Drivers/STM32L0xx_HAL_Driver/Src/stm32l0xx_hal_flash_ex.c ****   * @retval HAL_StatusTypeDef HAL Status
 633:Drivers/STM32L0xx_HAL_Driver/Src/stm32l0xx_hal_flash_ex.c ****   */
 634:Drivers/STM32L0xx_HAL_Driver/Src/stm32l0xx_hal_flash_ex.c **** HAL_StatusTypeDef HAL_FLASHEx_DATAEEPROM_Unlock(void)
 635:Drivers/STM32L0xx_HAL_Driver/Src/stm32l0xx_hal_flash_ex.c **** {
 636:Drivers/STM32L0xx_HAL_Driver/Src/stm32l0xx_hal_flash_ex.c ****   uint32_t primask_bit;
 637:Drivers/STM32L0xx_HAL_Driver/Src/stm32l0xx_hal_flash_ex.c **** 
 638:Drivers/STM32L0xx_HAL_Driver/Src/stm32l0xx_hal_flash_ex.c ****   if((FLASH->PECR & FLASH_PECR_PELOCK) != RESET)
 639:Drivers/STM32L0xx_HAL_Driver/Src/stm32l0xx_hal_flash_ex.c ****   {  
 640:Drivers/STM32L0xx_HAL_Driver/Src/stm32l0xx_hal_flash_ex.c ****     /* Disable interrupts to avoid any interruption during unlock sequence */
 641:Drivers/STM32L0xx_HAL_Driver/Src/stm32l0xx_hal_flash_ex.c ****     primask_bit = __get_PRIMASK();
 642:Drivers/STM32L0xx_HAL_Driver/Src/stm32l0xx_hal_flash_ex.c ****     __disable_irq();
 643:Drivers/STM32L0xx_HAL_Driver/Src/stm32l0xx_hal_flash_ex.c **** 
 644:Drivers/STM32L0xx_HAL_Driver/Src/stm32l0xx_hal_flash_ex.c ****     /* Unlocking the Data memory and FLASH_PECR register access*/
 645:Drivers/STM32L0xx_HAL_Driver/Src/stm32l0xx_hal_flash_ex.c ****     FLASH->PEKEYR = FLASH_PEKEY1;
 646:Drivers/STM32L0xx_HAL_Driver/Src/stm32l0xx_hal_flash_ex.c ****     FLASH->PEKEYR = FLASH_PEKEY2;
 647:Drivers/STM32L0xx_HAL_Driver/Src/stm32l0xx_hal_flash_ex.c **** 
 648:Drivers/STM32L0xx_HAL_Driver/Src/stm32l0xx_hal_flash_ex.c ****     /* Re-enable the interrupts: restore previous priority mask */
 649:Drivers/STM32L0xx_HAL_Driver/Src/stm32l0xx_hal_flash_ex.c ****     __set_PRIMASK(primask_bit);
 650:Drivers/STM32L0xx_HAL_Driver/Src/stm32l0xx_hal_flash_ex.c **** 
 651:Drivers/STM32L0xx_HAL_Driver/Src/stm32l0xx_hal_flash_ex.c ****     if((FLASH->PECR & FLASH_PECR_PELOCK) != RESET)
 652:Drivers/STM32L0xx_HAL_Driver/Src/stm32l0xx_hal_flash_ex.c ****     {
 653:Drivers/STM32L0xx_HAL_Driver/Src/stm32l0xx_hal_flash_ex.c ****       return HAL_ERROR;
 654:Drivers/STM32L0xx_HAL_Driver/Src/stm32l0xx_hal_flash_ex.c ****     }
 655:Drivers/STM32L0xx_HAL_Driver/Src/stm32l0xx_hal_flash_ex.c ****   }
 656:Drivers/STM32L0xx_HAL_Driver/Src/stm32l0xx_hal_flash_ex.c **** 
 657:Drivers/STM32L0xx_HAL_Driver/Src/stm32l0xx_hal_flash_ex.c ****   return HAL_OK;  
 658:Drivers/STM32L0xx_HAL_Driver/Src/stm32l0xx_hal_flash_ex.c **** }
 659:Drivers/STM32L0xx_HAL_Driver/Src/stm32l0xx_hal_flash_ex.c **** 
 660:Drivers/STM32L0xx_HAL_Driver/Src/stm32l0xx_hal_flash_ex.c **** /**
ARM GAS  /tmp/ccd22iA4.s 			page 13


 661:Drivers/STM32L0xx_HAL_Driver/Src/stm32l0xx_hal_flash_ex.c ****   * @brief  Locks the Data memory and FLASH_PECR register access.
 662:Drivers/STM32L0xx_HAL_Driver/Src/stm32l0xx_hal_flash_ex.c ****   * @retval HAL_StatusTypeDef HAL Status
 663:Drivers/STM32L0xx_HAL_Driver/Src/stm32l0xx_hal_flash_ex.c ****   */
 664:Drivers/STM32L0xx_HAL_Driver/Src/stm32l0xx_hal_flash_ex.c **** HAL_StatusTypeDef HAL_FLASHEx_DATAEEPROM_Lock(void)
 665:Drivers/STM32L0xx_HAL_Driver/Src/stm32l0xx_hal_flash_ex.c **** {
 666:Drivers/STM32L0xx_HAL_Driver/Src/stm32l0xx_hal_flash_ex.c ****   /* Set the PELOCK Bit to lock the data memory and FLASH_PECR register access */
 667:Drivers/STM32L0xx_HAL_Driver/Src/stm32l0xx_hal_flash_ex.c ****   SET_BIT(FLASH->PECR, FLASH_PECR_PELOCK);
 668:Drivers/STM32L0xx_HAL_Driver/Src/stm32l0xx_hal_flash_ex.c ****   
 669:Drivers/STM32L0xx_HAL_Driver/Src/stm32l0xx_hal_flash_ex.c ****   return HAL_OK;
 670:Drivers/STM32L0xx_HAL_Driver/Src/stm32l0xx_hal_flash_ex.c **** }
 671:Drivers/STM32L0xx_HAL_Driver/Src/stm32l0xx_hal_flash_ex.c **** 
 672:Drivers/STM32L0xx_HAL_Driver/Src/stm32l0xx_hal_flash_ex.c **** /**
 673:Drivers/STM32L0xx_HAL_Driver/Src/stm32l0xx_hal_flash_ex.c ****   * @brief  Erase a word in data memory.
 674:Drivers/STM32L0xx_HAL_Driver/Src/stm32l0xx_hal_flash_ex.c ****   * @param  Address specifies the address to be erased.
 675:Drivers/STM32L0xx_HAL_Driver/Src/stm32l0xx_hal_flash_ex.c ****   * @note   To correctly run this function, the @ref HAL_FLASHEx_DATAEEPROM_Unlock() function
 676:Drivers/STM32L0xx_HAL_Driver/Src/stm32l0xx_hal_flash_ex.c ****   *         must be called before.
 677:Drivers/STM32L0xx_HAL_Driver/Src/stm32l0xx_hal_flash_ex.c ****   *         Call the @ref HAL_FLASHEx_DATAEEPROM_Lock() to the data EEPROM access
 678:Drivers/STM32L0xx_HAL_Driver/Src/stm32l0xx_hal_flash_ex.c ****   *         and Flash program erase control register access(recommended to protect 
 679:Drivers/STM32L0xx_HAL_Driver/Src/stm32l0xx_hal_flash_ex.c ****   *         the DATA_EEPROM against possible unwanted operation).
 680:Drivers/STM32L0xx_HAL_Driver/Src/stm32l0xx_hal_flash_ex.c ****   * @retval HAL_StatusTypeDef HAL Status
 681:Drivers/STM32L0xx_HAL_Driver/Src/stm32l0xx_hal_flash_ex.c ****   */
 682:Drivers/STM32L0xx_HAL_Driver/Src/stm32l0xx_hal_flash_ex.c **** HAL_StatusTypeDef HAL_FLASHEx_DATAEEPROM_Erase(uint32_t Address)
 683:Drivers/STM32L0xx_HAL_Driver/Src/stm32l0xx_hal_flash_ex.c **** {
 684:Drivers/STM32L0xx_HAL_Driver/Src/stm32l0xx_hal_flash_ex.c ****   HAL_StatusTypeDef status = HAL_OK;
 685:Drivers/STM32L0xx_HAL_Driver/Src/stm32l0xx_hal_flash_ex.c ****   
 686:Drivers/STM32L0xx_HAL_Driver/Src/stm32l0xx_hal_flash_ex.c ****   /* Check the parameters */
 687:Drivers/STM32L0xx_HAL_Driver/Src/stm32l0xx_hal_flash_ex.c ****   assert_param(IS_FLASH_DATA_ADDRESS(Address));
 688:Drivers/STM32L0xx_HAL_Driver/Src/stm32l0xx_hal_flash_ex.c ****   
 689:Drivers/STM32L0xx_HAL_Driver/Src/stm32l0xx_hal_flash_ex.c ****   /* Wait for last operation to be completed */
 690:Drivers/STM32L0xx_HAL_Driver/Src/stm32l0xx_hal_flash_ex.c ****   status = FLASH_WaitForLastOperation(FLASH_TIMEOUT_VALUE);
 691:Drivers/STM32L0xx_HAL_Driver/Src/stm32l0xx_hal_flash_ex.c ****   
 692:Drivers/STM32L0xx_HAL_Driver/Src/stm32l0xx_hal_flash_ex.c ****   if(status == HAL_OK)
 693:Drivers/STM32L0xx_HAL_Driver/Src/stm32l0xx_hal_flash_ex.c ****   {
 694:Drivers/STM32L0xx_HAL_Driver/Src/stm32l0xx_hal_flash_ex.c ****     /* Clean the error context */
 695:Drivers/STM32L0xx_HAL_Driver/Src/stm32l0xx_hal_flash_ex.c ****     pFlash.ErrorCode = HAL_FLASH_ERROR_NONE;
 696:Drivers/STM32L0xx_HAL_Driver/Src/stm32l0xx_hal_flash_ex.c **** 
 697:Drivers/STM32L0xx_HAL_Driver/Src/stm32l0xx_hal_flash_ex.c ****       /* Write 00000000h to valid address in the data memory */
 698:Drivers/STM32L0xx_HAL_Driver/Src/stm32l0xx_hal_flash_ex.c ****       *(__IO uint32_t *) Address = 0x00000000U;
 699:Drivers/STM32L0xx_HAL_Driver/Src/stm32l0xx_hal_flash_ex.c **** 
 700:Drivers/STM32L0xx_HAL_Driver/Src/stm32l0xx_hal_flash_ex.c ****     status = FLASH_WaitForLastOperation(FLASH_TIMEOUT_VALUE);
 701:Drivers/STM32L0xx_HAL_Driver/Src/stm32l0xx_hal_flash_ex.c ****   }
 702:Drivers/STM32L0xx_HAL_Driver/Src/stm32l0xx_hal_flash_ex.c ****    
 703:Drivers/STM32L0xx_HAL_Driver/Src/stm32l0xx_hal_flash_ex.c ****   /* Return the erase status */
 704:Drivers/STM32L0xx_HAL_Driver/Src/stm32l0xx_hal_flash_ex.c ****   return status;
 705:Drivers/STM32L0xx_HAL_Driver/Src/stm32l0xx_hal_flash_ex.c **** }  
 706:Drivers/STM32L0xx_HAL_Driver/Src/stm32l0xx_hal_flash_ex.c **** 
 707:Drivers/STM32L0xx_HAL_Driver/Src/stm32l0xx_hal_flash_ex.c **** /**
 708:Drivers/STM32L0xx_HAL_Driver/Src/stm32l0xx_hal_flash_ex.c ****   * @brief  Program word at a specified address
 709:Drivers/STM32L0xx_HAL_Driver/Src/stm32l0xx_hal_flash_ex.c ****   * @note   To correctly run this function, the @ref HAL_FLASHEx_DATAEEPROM_Unlock() function
 710:Drivers/STM32L0xx_HAL_Driver/Src/stm32l0xx_hal_flash_ex.c ****   *         must be called before.
 711:Drivers/STM32L0xx_HAL_Driver/Src/stm32l0xx_hal_flash_ex.c ****   *         Call the @ref HAL_FLASHEx_DATAEEPROM_Unlock() to he data EEPROM access
 712:Drivers/STM32L0xx_HAL_Driver/Src/stm32l0xx_hal_flash_ex.c ****   *         and Flash program erase control register access(recommended to protect 
 713:Drivers/STM32L0xx_HAL_Driver/Src/stm32l0xx_hal_flash_ex.c ****   *         the DATA_EEPROM against possible unwanted operation).
 714:Drivers/STM32L0xx_HAL_Driver/Src/stm32l0xx_hal_flash_ex.c ****   * @note   The function @ref HAL_FLASHEx_DATAEEPROM_EnableFixedTimeProgram() can be called before 
 715:Drivers/STM32L0xx_HAL_Driver/Src/stm32l0xx_hal_flash_ex.c ****   *         this function to configure the Fixed Time Programming.
 716:Drivers/STM32L0xx_HAL_Driver/Src/stm32l0xx_hal_flash_ex.c ****   * @param  TypeProgram  Indicate the way to program at a specified address.
 717:Drivers/STM32L0xx_HAL_Driver/Src/stm32l0xx_hal_flash_ex.c ****   *         This parameter can be a value of @ref FLASHEx_Type_Program_Data
ARM GAS  /tmp/ccd22iA4.s 			page 14


 718:Drivers/STM32L0xx_HAL_Driver/Src/stm32l0xx_hal_flash_ex.c ****   * @param  Address  specifie the address to be programmed.
 719:Drivers/STM32L0xx_HAL_Driver/Src/stm32l0xx_hal_flash_ex.c ****   * @param  Data     specifie the data to be programmed
 720:Drivers/STM32L0xx_HAL_Driver/Src/stm32l0xx_hal_flash_ex.c ****   * 
 721:Drivers/STM32L0xx_HAL_Driver/Src/stm32l0xx_hal_flash_ex.c ****   * @retval HAL_StatusTypeDef HAL Status
 722:Drivers/STM32L0xx_HAL_Driver/Src/stm32l0xx_hal_flash_ex.c ****   */
 723:Drivers/STM32L0xx_HAL_Driver/Src/stm32l0xx_hal_flash_ex.c **** 
 724:Drivers/STM32L0xx_HAL_Driver/Src/stm32l0xx_hal_flash_ex.c **** HAL_StatusTypeDef   HAL_FLASHEx_DATAEEPROM_Program(uint32_t TypeProgram, uint32_t Address, uint32_t
 725:Drivers/STM32L0xx_HAL_Driver/Src/stm32l0xx_hal_flash_ex.c **** {
 726:Drivers/STM32L0xx_HAL_Driver/Src/stm32l0xx_hal_flash_ex.c ****   HAL_StatusTypeDef status = HAL_ERROR;
 727:Drivers/STM32L0xx_HAL_Driver/Src/stm32l0xx_hal_flash_ex.c ****   
 728:Drivers/STM32L0xx_HAL_Driver/Src/stm32l0xx_hal_flash_ex.c ****   /* Process Locked */
 729:Drivers/STM32L0xx_HAL_Driver/Src/stm32l0xx_hal_flash_ex.c ****   __HAL_LOCK(&pFlash);
 730:Drivers/STM32L0xx_HAL_Driver/Src/stm32l0xx_hal_flash_ex.c **** 
 731:Drivers/STM32L0xx_HAL_Driver/Src/stm32l0xx_hal_flash_ex.c ****   /* Check the parameters */
 732:Drivers/STM32L0xx_HAL_Driver/Src/stm32l0xx_hal_flash_ex.c ****   assert_param(IS_TYPEPROGRAMDATA(TypeProgram));
 733:Drivers/STM32L0xx_HAL_Driver/Src/stm32l0xx_hal_flash_ex.c ****   assert_param(IS_FLASH_DATA_ADDRESS(Address));
 734:Drivers/STM32L0xx_HAL_Driver/Src/stm32l0xx_hal_flash_ex.c **** 
 735:Drivers/STM32L0xx_HAL_Driver/Src/stm32l0xx_hal_flash_ex.c ****   /* Wait for last operation to be completed */
 736:Drivers/STM32L0xx_HAL_Driver/Src/stm32l0xx_hal_flash_ex.c ****   status = FLASH_WaitForLastOperation(FLASH_TIMEOUT_VALUE);
 737:Drivers/STM32L0xx_HAL_Driver/Src/stm32l0xx_hal_flash_ex.c ****   
 738:Drivers/STM32L0xx_HAL_Driver/Src/stm32l0xx_hal_flash_ex.c ****   if(status == HAL_OK)
 739:Drivers/STM32L0xx_HAL_Driver/Src/stm32l0xx_hal_flash_ex.c ****   {
 740:Drivers/STM32L0xx_HAL_Driver/Src/stm32l0xx_hal_flash_ex.c ****     /* Clean the error context */
 741:Drivers/STM32L0xx_HAL_Driver/Src/stm32l0xx_hal_flash_ex.c ****     pFlash.ErrorCode = HAL_FLASH_ERROR_NONE;
 742:Drivers/STM32L0xx_HAL_Driver/Src/stm32l0xx_hal_flash_ex.c **** 
 743:Drivers/STM32L0xx_HAL_Driver/Src/stm32l0xx_hal_flash_ex.c ****     if(TypeProgram == FLASH_TYPEPROGRAMDATA_WORD)
 744:Drivers/STM32L0xx_HAL_Driver/Src/stm32l0xx_hal_flash_ex.c ****     {
 745:Drivers/STM32L0xx_HAL_Driver/Src/stm32l0xx_hal_flash_ex.c ****       /* Program word (32-bit) at a specified address.*/
 746:Drivers/STM32L0xx_HAL_Driver/Src/stm32l0xx_hal_flash_ex.c ****       *(__IO uint32_t *)Address = Data;
 747:Drivers/STM32L0xx_HAL_Driver/Src/stm32l0xx_hal_flash_ex.c ****     }
 748:Drivers/STM32L0xx_HAL_Driver/Src/stm32l0xx_hal_flash_ex.c ****     else if(TypeProgram == FLASH_TYPEPROGRAMDATA_HALFWORD)
 749:Drivers/STM32L0xx_HAL_Driver/Src/stm32l0xx_hal_flash_ex.c ****     {
 750:Drivers/STM32L0xx_HAL_Driver/Src/stm32l0xx_hal_flash_ex.c ****       /* Program halfword (16-bit) at a specified address.*/
 751:Drivers/STM32L0xx_HAL_Driver/Src/stm32l0xx_hal_flash_ex.c ****       *(__IO uint16_t *)Address = (uint16_t) Data;
 752:Drivers/STM32L0xx_HAL_Driver/Src/stm32l0xx_hal_flash_ex.c ****     }
 753:Drivers/STM32L0xx_HAL_Driver/Src/stm32l0xx_hal_flash_ex.c ****     else if(TypeProgram == FLASH_TYPEPROGRAMDATA_BYTE)
 754:Drivers/STM32L0xx_HAL_Driver/Src/stm32l0xx_hal_flash_ex.c ****     {
 755:Drivers/STM32L0xx_HAL_Driver/Src/stm32l0xx_hal_flash_ex.c ****       /* Program byte (8-bit) at a specified address.*/
 756:Drivers/STM32L0xx_HAL_Driver/Src/stm32l0xx_hal_flash_ex.c ****       *(__IO uint8_t *)Address = (uint8_t) Data;
 757:Drivers/STM32L0xx_HAL_Driver/Src/stm32l0xx_hal_flash_ex.c ****     }
 758:Drivers/STM32L0xx_HAL_Driver/Src/stm32l0xx_hal_flash_ex.c ****     else
 759:Drivers/STM32L0xx_HAL_Driver/Src/stm32l0xx_hal_flash_ex.c ****     {
 760:Drivers/STM32L0xx_HAL_Driver/Src/stm32l0xx_hal_flash_ex.c ****       status = HAL_ERROR;
 761:Drivers/STM32L0xx_HAL_Driver/Src/stm32l0xx_hal_flash_ex.c ****     }
 762:Drivers/STM32L0xx_HAL_Driver/Src/stm32l0xx_hal_flash_ex.c **** 
 763:Drivers/STM32L0xx_HAL_Driver/Src/stm32l0xx_hal_flash_ex.c ****     if (status != HAL_OK)
 764:Drivers/STM32L0xx_HAL_Driver/Src/stm32l0xx_hal_flash_ex.c ****     {
 765:Drivers/STM32L0xx_HAL_Driver/Src/stm32l0xx_hal_flash_ex.c ****       /* Wait for last operation to be completed */
 766:Drivers/STM32L0xx_HAL_Driver/Src/stm32l0xx_hal_flash_ex.c ****       status = FLASH_WaitForLastOperation(FLASH_TIMEOUT_VALUE);
 767:Drivers/STM32L0xx_HAL_Driver/Src/stm32l0xx_hal_flash_ex.c ****     }
 768:Drivers/STM32L0xx_HAL_Driver/Src/stm32l0xx_hal_flash_ex.c ****   }
 769:Drivers/STM32L0xx_HAL_Driver/Src/stm32l0xx_hal_flash_ex.c **** 
 770:Drivers/STM32L0xx_HAL_Driver/Src/stm32l0xx_hal_flash_ex.c ****   /* Process Unlocked */
 771:Drivers/STM32L0xx_HAL_Driver/Src/stm32l0xx_hal_flash_ex.c ****   __HAL_UNLOCK(&pFlash);
 772:Drivers/STM32L0xx_HAL_Driver/Src/stm32l0xx_hal_flash_ex.c **** 
 773:Drivers/STM32L0xx_HAL_Driver/Src/stm32l0xx_hal_flash_ex.c ****   return status;
 774:Drivers/STM32L0xx_HAL_Driver/Src/stm32l0xx_hal_flash_ex.c **** }
ARM GAS  /tmp/ccd22iA4.s 			page 15


 775:Drivers/STM32L0xx_HAL_Driver/Src/stm32l0xx_hal_flash_ex.c **** 
 776:Drivers/STM32L0xx_HAL_Driver/Src/stm32l0xx_hal_flash_ex.c **** /**
 777:Drivers/STM32L0xx_HAL_Driver/Src/stm32l0xx_hal_flash_ex.c ****   * @brief  Enable DATA EEPROM fixed Time programming (2*Tprog).
 778:Drivers/STM32L0xx_HAL_Driver/Src/stm32l0xx_hal_flash_ex.c ****   * @retval None
 779:Drivers/STM32L0xx_HAL_Driver/Src/stm32l0xx_hal_flash_ex.c ****   */
 780:Drivers/STM32L0xx_HAL_Driver/Src/stm32l0xx_hal_flash_ex.c **** void HAL_FLASHEx_DATAEEPROM_EnableFixedTimeProgram(void)
 781:Drivers/STM32L0xx_HAL_Driver/Src/stm32l0xx_hal_flash_ex.c **** {
 782:Drivers/STM32L0xx_HAL_Driver/Src/stm32l0xx_hal_flash_ex.c ****   SET_BIT(FLASH->PECR, FLASH_PECR_FIX);
 783:Drivers/STM32L0xx_HAL_Driver/Src/stm32l0xx_hal_flash_ex.c **** }
 784:Drivers/STM32L0xx_HAL_Driver/Src/stm32l0xx_hal_flash_ex.c **** 
 785:Drivers/STM32L0xx_HAL_Driver/Src/stm32l0xx_hal_flash_ex.c **** /**
 786:Drivers/STM32L0xx_HAL_Driver/Src/stm32l0xx_hal_flash_ex.c ****   * @brief  Disables DATA EEPROM fixed Time programming (2*Tprog).
 787:Drivers/STM32L0xx_HAL_Driver/Src/stm32l0xx_hal_flash_ex.c ****   * @retval None
 788:Drivers/STM32L0xx_HAL_Driver/Src/stm32l0xx_hal_flash_ex.c ****   */
 789:Drivers/STM32L0xx_HAL_Driver/Src/stm32l0xx_hal_flash_ex.c **** void HAL_FLASHEx_DATAEEPROM_DisableFixedTimeProgram(void)
 790:Drivers/STM32L0xx_HAL_Driver/Src/stm32l0xx_hal_flash_ex.c **** {
 791:Drivers/STM32L0xx_HAL_Driver/Src/stm32l0xx_hal_flash_ex.c ****   CLEAR_BIT(FLASH->PECR, FLASH_PECR_FIX);
 792:Drivers/STM32L0xx_HAL_Driver/Src/stm32l0xx_hal_flash_ex.c **** }
 793:Drivers/STM32L0xx_HAL_Driver/Src/stm32l0xx_hal_flash_ex.c **** 
 794:Drivers/STM32L0xx_HAL_Driver/Src/stm32l0xx_hal_flash_ex.c **** /**
 795:Drivers/STM32L0xx_HAL_Driver/Src/stm32l0xx_hal_flash_ex.c ****   * @}
 796:Drivers/STM32L0xx_HAL_Driver/Src/stm32l0xx_hal_flash_ex.c ****   */
 797:Drivers/STM32L0xx_HAL_Driver/Src/stm32l0xx_hal_flash_ex.c **** 
 798:Drivers/STM32L0xx_HAL_Driver/Src/stm32l0xx_hal_flash_ex.c **** /**
 799:Drivers/STM32L0xx_HAL_Driver/Src/stm32l0xx_hal_flash_ex.c ****   * @}
 800:Drivers/STM32L0xx_HAL_Driver/Src/stm32l0xx_hal_flash_ex.c ****   */
 801:Drivers/STM32L0xx_HAL_Driver/Src/stm32l0xx_hal_flash_ex.c **** 
 802:Drivers/STM32L0xx_HAL_Driver/Src/stm32l0xx_hal_flash_ex.c **** /** @addtogroup FLASHEx_Private_Functions
 803:Drivers/STM32L0xx_HAL_Driver/Src/stm32l0xx_hal_flash_ex.c ****  * @{
 804:Drivers/STM32L0xx_HAL_Driver/Src/stm32l0xx_hal_flash_ex.c ****  */
 805:Drivers/STM32L0xx_HAL_Driver/Src/stm32l0xx_hal_flash_ex.c **** 
 806:Drivers/STM32L0xx_HAL_Driver/Src/stm32l0xx_hal_flash_ex.c **** /*
 807:Drivers/STM32L0xx_HAL_Driver/Src/stm32l0xx_hal_flash_ex.c **** ==============================================================================
 808:Drivers/STM32L0xx_HAL_Driver/Src/stm32l0xx_hal_flash_ex.c ****               OPTIONS BYTES
 809:Drivers/STM32L0xx_HAL_Driver/Src/stm32l0xx_hal_flash_ex.c **** ==============================================================================
 810:Drivers/STM32L0xx_HAL_Driver/Src/stm32l0xx_hal_flash_ex.c **** */
 811:Drivers/STM32L0xx_HAL_Driver/Src/stm32l0xx_hal_flash_ex.c **** /**
 812:Drivers/STM32L0xx_HAL_Driver/Src/stm32l0xx_hal_flash_ex.c ****   * @brief  Enables or disables the read out protection.
 813:Drivers/STM32L0xx_HAL_Driver/Src/stm32l0xx_hal_flash_ex.c ****   * @note   To correctly run this function, the @ref HAL_FLASH_OB_Unlock() function
 814:Drivers/STM32L0xx_HAL_Driver/Src/stm32l0xx_hal_flash_ex.c ****   *         must be called before.
 815:Drivers/STM32L0xx_HAL_Driver/Src/stm32l0xx_hal_flash_ex.c ****   * @param  OB_RDP specifies the read protection level. 
 816:Drivers/STM32L0xx_HAL_Driver/Src/stm32l0xx_hal_flash_ex.c ****   *   This parameter can be:
 817:Drivers/STM32L0xx_HAL_Driver/Src/stm32l0xx_hal_flash_ex.c ****   *     @arg @ref OB_RDP_LEVEL_0 No protection
 818:Drivers/STM32L0xx_HAL_Driver/Src/stm32l0xx_hal_flash_ex.c ****   *     @arg @ref OB_RDP_LEVEL_1 Read protection of the memory
 819:Drivers/STM32L0xx_HAL_Driver/Src/stm32l0xx_hal_flash_ex.c ****   *     @arg @ref OB_RDP_LEVEL_2 Chip protection
 820:Drivers/STM32L0xx_HAL_Driver/Src/stm32l0xx_hal_flash_ex.c ****   * 
 821:Drivers/STM32L0xx_HAL_Driver/Src/stm32l0xx_hal_flash_ex.c ****   *  !!!Warning!!! When enabling OB_RDP_LEVEL_2 it's no more possible to go back to level 1 or 0
 822:Drivers/STM32L0xx_HAL_Driver/Src/stm32l0xx_hal_flash_ex.c ****   *   
 823:Drivers/STM32L0xx_HAL_Driver/Src/stm32l0xx_hal_flash_ex.c ****   * @retval HAL status
 824:Drivers/STM32L0xx_HAL_Driver/Src/stm32l0xx_hal_flash_ex.c ****   */
 825:Drivers/STM32L0xx_HAL_Driver/Src/stm32l0xx_hal_flash_ex.c **** static HAL_StatusTypeDef FLASH_OB_RDPConfig(uint8_t OB_RDP)
 826:Drivers/STM32L0xx_HAL_Driver/Src/stm32l0xx_hal_flash_ex.c **** {
 827:Drivers/STM32L0xx_HAL_Driver/Src/stm32l0xx_hal_flash_ex.c ****   HAL_StatusTypeDef status = HAL_OK;
 828:Drivers/STM32L0xx_HAL_Driver/Src/stm32l0xx_hal_flash_ex.c ****   uint32_t tmp1 = 0U, tmp2 = 0U, tmp3 = 0U;
 829:Drivers/STM32L0xx_HAL_Driver/Src/stm32l0xx_hal_flash_ex.c ****   
 830:Drivers/STM32L0xx_HAL_Driver/Src/stm32l0xx_hal_flash_ex.c ****   /* Check the parameters */
 831:Drivers/STM32L0xx_HAL_Driver/Src/stm32l0xx_hal_flash_ex.c ****   assert_param(IS_OB_RDP(OB_RDP));
ARM GAS  /tmp/ccd22iA4.s 			page 16


 832:Drivers/STM32L0xx_HAL_Driver/Src/stm32l0xx_hal_flash_ex.c ****   
 833:Drivers/STM32L0xx_HAL_Driver/Src/stm32l0xx_hal_flash_ex.c ****   tmp1 = (uint32_t)(OB->RDP & FLASH_OPTR_RDPROT);
 834:Drivers/STM32L0xx_HAL_Driver/Src/stm32l0xx_hal_flash_ex.c ****   
 835:Drivers/STM32L0xx_HAL_Driver/Src/stm32l0xx_hal_flash_ex.c **** #if defined(FLASH_OPTR_WPRMOD)
 836:Drivers/STM32L0xx_HAL_Driver/Src/stm32l0xx_hal_flash_ex.c ****     /* Mask WPRMOD bit */
 837:Drivers/STM32L0xx_HAL_Driver/Src/stm32l0xx_hal_flash_ex.c ****     tmp3 = (uint32_t)(OB->RDP & FLASH_OPTR_WPRMOD);
 838:Drivers/STM32L0xx_HAL_Driver/Src/stm32l0xx_hal_flash_ex.c **** #endif
 839:Drivers/STM32L0xx_HAL_Driver/Src/stm32l0xx_hal_flash_ex.c **** 
 840:Drivers/STM32L0xx_HAL_Driver/Src/stm32l0xx_hal_flash_ex.c ****     /* calculate the option byte to write */
 841:Drivers/STM32L0xx_HAL_Driver/Src/stm32l0xx_hal_flash_ex.c ****     tmp1 = (~((uint32_t)(OB_RDP | tmp3)));
 842:Drivers/STM32L0xx_HAL_Driver/Src/stm32l0xx_hal_flash_ex.c ****     tmp2 = (uint32_t)(((uint32_t)((uint32_t)(tmp1) << 16U)) | ((uint32_t)(OB_RDP | tmp3)));
 843:Drivers/STM32L0xx_HAL_Driver/Src/stm32l0xx_hal_flash_ex.c **** 
 844:Drivers/STM32L0xx_HAL_Driver/Src/stm32l0xx_hal_flash_ex.c ****     /* Wait for last operation to be completed */
 845:Drivers/STM32L0xx_HAL_Driver/Src/stm32l0xx_hal_flash_ex.c ****     status = FLASH_WaitForLastOperation(FLASH_TIMEOUT_VALUE);
 846:Drivers/STM32L0xx_HAL_Driver/Src/stm32l0xx_hal_flash_ex.c **** 
 847:Drivers/STM32L0xx_HAL_Driver/Src/stm32l0xx_hal_flash_ex.c ****     if(status == HAL_OK)
 848:Drivers/STM32L0xx_HAL_Driver/Src/stm32l0xx_hal_flash_ex.c ****     {
 849:Drivers/STM32L0xx_HAL_Driver/Src/stm32l0xx_hal_flash_ex.c ****       /* Clean the error context */
 850:Drivers/STM32L0xx_HAL_Driver/Src/stm32l0xx_hal_flash_ex.c ****       pFlash.ErrorCode = HAL_FLASH_ERROR_NONE;
 851:Drivers/STM32L0xx_HAL_Driver/Src/stm32l0xx_hal_flash_ex.c **** 
 852:Drivers/STM32L0xx_HAL_Driver/Src/stm32l0xx_hal_flash_ex.c ****       /* program read protection level */
 853:Drivers/STM32L0xx_HAL_Driver/Src/stm32l0xx_hal_flash_ex.c ****       OB->RDP = tmp2;
 854:Drivers/STM32L0xx_HAL_Driver/Src/stm32l0xx_hal_flash_ex.c **** 
 855:Drivers/STM32L0xx_HAL_Driver/Src/stm32l0xx_hal_flash_ex.c ****       /* Wait for last operation to be completed */
 856:Drivers/STM32L0xx_HAL_Driver/Src/stm32l0xx_hal_flash_ex.c ****       status = FLASH_WaitForLastOperation(FLASH_TIMEOUT_VALUE);
 857:Drivers/STM32L0xx_HAL_Driver/Src/stm32l0xx_hal_flash_ex.c ****     }
 858:Drivers/STM32L0xx_HAL_Driver/Src/stm32l0xx_hal_flash_ex.c **** 
 859:Drivers/STM32L0xx_HAL_Driver/Src/stm32l0xx_hal_flash_ex.c ****   /* Return the Read protection operation Status */
 860:Drivers/STM32L0xx_HAL_Driver/Src/stm32l0xx_hal_flash_ex.c ****   return status;
 861:Drivers/STM32L0xx_HAL_Driver/Src/stm32l0xx_hal_flash_ex.c **** }
 862:Drivers/STM32L0xx_HAL_Driver/Src/stm32l0xx_hal_flash_ex.c **** 
 863:Drivers/STM32L0xx_HAL_Driver/Src/stm32l0xx_hal_flash_ex.c **** /**
 864:Drivers/STM32L0xx_HAL_Driver/Src/stm32l0xx_hal_flash_ex.c ****   * @brief  Programs the FLASH brownout reset threshold level Option Byte.
 865:Drivers/STM32L0xx_HAL_Driver/Src/stm32l0xx_hal_flash_ex.c ****   * @param  OB_BOR Selects the brownout reset threshold level.
 866:Drivers/STM32L0xx_HAL_Driver/Src/stm32l0xx_hal_flash_ex.c ****   *   This parameter can be one of the following values:
 867:Drivers/STM32L0xx_HAL_Driver/Src/stm32l0xx_hal_flash_ex.c ****   *     @arg @ref OB_BOR_OFF BOR is disabled at power down, the reset is asserted when the VDD 
 868:Drivers/STM32L0xx_HAL_Driver/Src/stm32l0xx_hal_flash_ex.c ****   *                      power supply reaches the PDR(Power Down Reset) threshold (1.5V)
 869:Drivers/STM32L0xx_HAL_Driver/Src/stm32l0xx_hal_flash_ex.c ****   *     @arg @ref OB_BOR_LEVEL1 BOR Reset threshold levels for 1.7V - 1.8V VDD power supply
 870:Drivers/STM32L0xx_HAL_Driver/Src/stm32l0xx_hal_flash_ex.c ****   *     @arg @ref OB_BOR_LEVEL2 BOR Reset threshold levels for 1.9V - 2.0V VDD power supply
 871:Drivers/STM32L0xx_HAL_Driver/Src/stm32l0xx_hal_flash_ex.c ****   *     @arg @ref OB_BOR_LEVEL3 BOR Reset threshold levels for 2.3V - 2.4V VDD power supply
 872:Drivers/STM32L0xx_HAL_Driver/Src/stm32l0xx_hal_flash_ex.c ****   *     @arg @ref OB_BOR_LEVEL4 BOR Reset threshold levels for 2.55V - 2.65V VDD power supply
 873:Drivers/STM32L0xx_HAL_Driver/Src/stm32l0xx_hal_flash_ex.c ****   *     @arg @ref OB_BOR_LEVEL5 BOR Reset threshold levels for 2.8V - 2.9V VDD power supply
 874:Drivers/STM32L0xx_HAL_Driver/Src/stm32l0xx_hal_flash_ex.c ****   * @retval HAL status
 875:Drivers/STM32L0xx_HAL_Driver/Src/stm32l0xx_hal_flash_ex.c ****   */
 876:Drivers/STM32L0xx_HAL_Driver/Src/stm32l0xx_hal_flash_ex.c **** static HAL_StatusTypeDef FLASH_OB_BORConfig(uint8_t OB_BOR)
 877:Drivers/STM32L0xx_HAL_Driver/Src/stm32l0xx_hal_flash_ex.c **** {
 878:Drivers/STM32L0xx_HAL_Driver/Src/stm32l0xx_hal_flash_ex.c ****   HAL_StatusTypeDef status = HAL_OK;
 879:Drivers/STM32L0xx_HAL_Driver/Src/stm32l0xx_hal_flash_ex.c ****   uint32_t tmp = 0, tmp1 = 0;
 880:Drivers/STM32L0xx_HAL_Driver/Src/stm32l0xx_hal_flash_ex.c **** 
 881:Drivers/STM32L0xx_HAL_Driver/Src/stm32l0xx_hal_flash_ex.c ****   /* Check the parameters */
 882:Drivers/STM32L0xx_HAL_Driver/Src/stm32l0xx_hal_flash_ex.c ****   assert_param(IS_OB_BOR_LEVEL(OB_BOR));
 883:Drivers/STM32L0xx_HAL_Driver/Src/stm32l0xx_hal_flash_ex.c **** 
 884:Drivers/STM32L0xx_HAL_Driver/Src/stm32l0xx_hal_flash_ex.c ****   /* Get the User Option byte register */
 885:Drivers/STM32L0xx_HAL_Driver/Src/stm32l0xx_hal_flash_ex.c ****   tmp1 = OB->USER & ((~FLASH_OPTR_BOR_LEV) >> 16U);
 886:Drivers/STM32L0xx_HAL_Driver/Src/stm32l0xx_hal_flash_ex.c **** 
 887:Drivers/STM32L0xx_HAL_Driver/Src/stm32l0xx_hal_flash_ex.c ****   /* Calculate the option byte to write - [0xFF | nUSER | 0x00 | USER]*/
 888:Drivers/STM32L0xx_HAL_Driver/Src/stm32l0xx_hal_flash_ex.c ****   tmp = (uint32_t)~((OB_BOR | tmp1)) << 16U;
ARM GAS  /tmp/ccd22iA4.s 			page 17


 889:Drivers/STM32L0xx_HAL_Driver/Src/stm32l0xx_hal_flash_ex.c ****   tmp |= (OB_BOR | tmp1);
 890:Drivers/STM32L0xx_HAL_Driver/Src/stm32l0xx_hal_flash_ex.c ****     
 891:Drivers/STM32L0xx_HAL_Driver/Src/stm32l0xx_hal_flash_ex.c ****   /* Wait for last operation to be completed */
 892:Drivers/STM32L0xx_HAL_Driver/Src/stm32l0xx_hal_flash_ex.c ****   status = FLASH_WaitForLastOperation(FLASH_TIMEOUT_VALUE);
 893:Drivers/STM32L0xx_HAL_Driver/Src/stm32l0xx_hal_flash_ex.c ****   
 894:Drivers/STM32L0xx_HAL_Driver/Src/stm32l0xx_hal_flash_ex.c ****   if(status == HAL_OK)
 895:Drivers/STM32L0xx_HAL_Driver/Src/stm32l0xx_hal_flash_ex.c ****   {  
 896:Drivers/STM32L0xx_HAL_Driver/Src/stm32l0xx_hal_flash_ex.c ****     /* Clean the error context */
 897:Drivers/STM32L0xx_HAL_Driver/Src/stm32l0xx_hal_flash_ex.c ****     pFlash.ErrorCode = HAL_FLASH_ERROR_NONE;
 898:Drivers/STM32L0xx_HAL_Driver/Src/stm32l0xx_hal_flash_ex.c **** 
 899:Drivers/STM32L0xx_HAL_Driver/Src/stm32l0xx_hal_flash_ex.c ****     /* Write the BOR Option Byte */            
 900:Drivers/STM32L0xx_HAL_Driver/Src/stm32l0xx_hal_flash_ex.c ****     OB->USER = tmp;
 901:Drivers/STM32L0xx_HAL_Driver/Src/stm32l0xx_hal_flash_ex.c **** 
 902:Drivers/STM32L0xx_HAL_Driver/Src/stm32l0xx_hal_flash_ex.c ****     /* Wait for last operation to be completed */
 903:Drivers/STM32L0xx_HAL_Driver/Src/stm32l0xx_hal_flash_ex.c ****     status = FLASH_WaitForLastOperation(FLASH_TIMEOUT_VALUE);
 904:Drivers/STM32L0xx_HAL_Driver/Src/stm32l0xx_hal_flash_ex.c ****   }
 905:Drivers/STM32L0xx_HAL_Driver/Src/stm32l0xx_hal_flash_ex.c ****   
 906:Drivers/STM32L0xx_HAL_Driver/Src/stm32l0xx_hal_flash_ex.c ****   /* Return the Option Byte BOR programming Status */
 907:Drivers/STM32L0xx_HAL_Driver/Src/stm32l0xx_hal_flash_ex.c ****   return status;
 908:Drivers/STM32L0xx_HAL_Driver/Src/stm32l0xx_hal_flash_ex.c **** }
 909:Drivers/STM32L0xx_HAL_Driver/Src/stm32l0xx_hal_flash_ex.c **** 
 910:Drivers/STM32L0xx_HAL_Driver/Src/stm32l0xx_hal_flash_ex.c **** /**
 911:Drivers/STM32L0xx_HAL_Driver/Src/stm32l0xx_hal_flash_ex.c ****   * @brief  Sets or resets the BOOT bit1 option bit.
 912:Drivers/STM32L0xx_HAL_Driver/Src/stm32l0xx_hal_flash_ex.c ****   * @param  OB_BootBit1 Set or Reset the BOOT bit1 option bit.
 913:Drivers/STM32L0xx_HAL_Driver/Src/stm32l0xx_hal_flash_ex.c ****   *          This parameter can be one of the following values:
 914:Drivers/STM32L0xx_HAL_Driver/Src/stm32l0xx_hal_flash_ex.c ****   *             @arg @ref OB_BOOT_BIT1_RESET BOOT1 option bit reset
 915:Drivers/STM32L0xx_HAL_Driver/Src/stm32l0xx_hal_flash_ex.c ****   *             @arg @ref OB_BOOT_BIT1_SET BOOT1 option bit set
 916:Drivers/STM32L0xx_HAL_Driver/Src/stm32l0xx_hal_flash_ex.c ****   * @retval HAL status
 917:Drivers/STM32L0xx_HAL_Driver/Src/stm32l0xx_hal_flash_ex.c ****   */
 918:Drivers/STM32L0xx_HAL_Driver/Src/stm32l0xx_hal_flash_ex.c **** static HAL_StatusTypeDef  FLASH_OB_BOOTBit1Config(uint8_t OB_BootBit1)
 919:Drivers/STM32L0xx_HAL_Driver/Src/stm32l0xx_hal_flash_ex.c **** {
 920:Drivers/STM32L0xx_HAL_Driver/Src/stm32l0xx_hal_flash_ex.c ****   HAL_StatusTypeDef status = HAL_OK; 
 921:Drivers/STM32L0xx_HAL_Driver/Src/stm32l0xx_hal_flash_ex.c ****   uint32_t tmp = 0, tmp1 = 0, OB_Bits = ((uint32_t) OB_BootBit1) << 15;
 922:Drivers/STM32L0xx_HAL_Driver/Src/stm32l0xx_hal_flash_ex.c **** 
 923:Drivers/STM32L0xx_HAL_Driver/Src/stm32l0xx_hal_flash_ex.c ****   /* Check the parameters */
 924:Drivers/STM32L0xx_HAL_Driver/Src/stm32l0xx_hal_flash_ex.c ****   assert_param(IS_OB_BOOT1(OB_BootBit1));
 925:Drivers/STM32L0xx_HAL_Driver/Src/stm32l0xx_hal_flash_ex.c **** 
 926:Drivers/STM32L0xx_HAL_Driver/Src/stm32l0xx_hal_flash_ex.c ****   /* Get the User Option byte register */
 927:Drivers/STM32L0xx_HAL_Driver/Src/stm32l0xx_hal_flash_ex.c ****   tmp1 = OB->USER & ((~FLASH_OPTR_BOOT1) >> 16U);
 928:Drivers/STM32L0xx_HAL_Driver/Src/stm32l0xx_hal_flash_ex.c **** 
 929:Drivers/STM32L0xx_HAL_Driver/Src/stm32l0xx_hal_flash_ex.c ****   /* Calculate the user option byte to write */ 
 930:Drivers/STM32L0xx_HAL_Driver/Src/stm32l0xx_hal_flash_ex.c ****   tmp = (~(OB_Bits | tmp1)) << 16U;
 931:Drivers/STM32L0xx_HAL_Driver/Src/stm32l0xx_hal_flash_ex.c ****   tmp |= OB_Bits | tmp1;
 932:Drivers/STM32L0xx_HAL_Driver/Src/stm32l0xx_hal_flash_ex.c ****     
 933:Drivers/STM32L0xx_HAL_Driver/Src/stm32l0xx_hal_flash_ex.c ****   /* Wait for last operation to be completed */
 934:Drivers/STM32L0xx_HAL_Driver/Src/stm32l0xx_hal_flash_ex.c ****   status = FLASH_WaitForLastOperation(FLASH_TIMEOUT_VALUE);
 935:Drivers/STM32L0xx_HAL_Driver/Src/stm32l0xx_hal_flash_ex.c ****   
 936:Drivers/STM32L0xx_HAL_Driver/Src/stm32l0xx_hal_flash_ex.c ****   if(status == HAL_OK)
 937:Drivers/STM32L0xx_HAL_Driver/Src/stm32l0xx_hal_flash_ex.c ****   {  
 938:Drivers/STM32L0xx_HAL_Driver/Src/stm32l0xx_hal_flash_ex.c ****     /* Clean the error context */
 939:Drivers/STM32L0xx_HAL_Driver/Src/stm32l0xx_hal_flash_ex.c ****     pFlash.ErrorCode = HAL_FLASH_ERROR_NONE;
 940:Drivers/STM32L0xx_HAL_Driver/Src/stm32l0xx_hal_flash_ex.c ****     /* Program OB */
 941:Drivers/STM32L0xx_HAL_Driver/Src/stm32l0xx_hal_flash_ex.c ****     OB->USER = tmp; 
 942:Drivers/STM32L0xx_HAL_Driver/Src/stm32l0xx_hal_flash_ex.c ****     /* Wait for last operation to be completed */
 943:Drivers/STM32L0xx_HAL_Driver/Src/stm32l0xx_hal_flash_ex.c ****     status = FLASH_WaitForLastOperation(FLASH_TIMEOUT_VALUE);
 944:Drivers/STM32L0xx_HAL_Driver/Src/stm32l0xx_hal_flash_ex.c ****   }
 945:Drivers/STM32L0xx_HAL_Driver/Src/stm32l0xx_hal_flash_ex.c **** 
ARM GAS  /tmp/ccd22iA4.s 			page 18


 946:Drivers/STM32L0xx_HAL_Driver/Src/stm32l0xx_hal_flash_ex.c ****   return status;
 947:Drivers/STM32L0xx_HAL_Driver/Src/stm32l0xx_hal_flash_ex.c **** }
 948:Drivers/STM32L0xx_HAL_Driver/Src/stm32l0xx_hal_flash_ex.c **** 
 949:Drivers/STM32L0xx_HAL_Driver/Src/stm32l0xx_hal_flash_ex.c **** /**
 950:Drivers/STM32L0xx_HAL_Driver/Src/stm32l0xx_hal_flash_ex.c ****   * @brief  Returns the FLASH User Option Bytes values.
 951:Drivers/STM32L0xx_HAL_Driver/Src/stm32l0xx_hal_flash_ex.c ****   * @retval The FLASH User Option Bytes.
 952:Drivers/STM32L0xx_HAL_Driver/Src/stm32l0xx_hal_flash_ex.c ****   */
 953:Drivers/STM32L0xx_HAL_Driver/Src/stm32l0xx_hal_flash_ex.c **** static uint8_t FLASH_OB_GetUser(void)
 954:Drivers/STM32L0xx_HAL_Driver/Src/stm32l0xx_hal_flash_ex.c **** {
  26              		.loc 1 954 1 view -0
  27              		.cfi_startproc
  28              		@ args = 0, pretend = 0, frame = 0
  29              		@ frame_needed = 0, uses_anonymous_args = 0
  30              		@ link register save eliminated.
 955:Drivers/STM32L0xx_HAL_Driver/Src/stm32l0xx_hal_flash_ex.c ****   /* Return the User Option Byte */
 956:Drivers/STM32L0xx_HAL_Driver/Src/stm32l0xx_hal_flash_ex.c ****   return (uint8_t)((FLASH->OPTR & FLASH_OPTR_USER) >> 16U);
  31              		.loc 1 956 3 view .LVU1
  32              		.loc 1 956 26 is_stmt 0 view .LVU2
  33 0000 024B     		ldr	r3, .L2
  34 0002 DB69     		ldr	r3, [r3, #28]
  35              		.loc 1 956 52 view .LVU3
  36 0004 1B0C     		lsrs	r3, r3, #16
  37              		.loc 1 956 10 view .LVU4
  38 0006 7020     		movs	r0, #112
  39 0008 1840     		ands	r0, r3
 957:Drivers/STM32L0xx_HAL_Driver/Src/stm32l0xx_hal_flash_ex.c **** }
  40              		.loc 1 957 1 view .LVU5
  41              		@ sp needed
  42 000a 7047     		bx	lr
  43              	.L3:
  44              		.align	2
  45              	.L2:
  46 000c 00200240 		.word	1073881088
  47              		.cfi_endproc
  48              	.LFE51:
  50              		.section	.text.FLASH_OB_GetRDP,"ax",%progbits
  51              		.align	1
  52              		.syntax unified
  53              		.code	16
  54              		.thumb_func
  56              	FLASH_OB_GetRDP:
  57              	.LFB52:
 958:Drivers/STM32L0xx_HAL_Driver/Src/stm32l0xx_hal_flash_ex.c **** 
 959:Drivers/STM32L0xx_HAL_Driver/Src/stm32l0xx_hal_flash_ex.c **** /**
 960:Drivers/STM32L0xx_HAL_Driver/Src/stm32l0xx_hal_flash_ex.c ****   * @brief  Returns the FLASH Read Protection level.
 961:Drivers/STM32L0xx_HAL_Driver/Src/stm32l0xx_hal_flash_ex.c ****   * @retval FLASH RDP level
 962:Drivers/STM32L0xx_HAL_Driver/Src/stm32l0xx_hal_flash_ex.c ****   *         This parameter can be one of the following values:
 963:Drivers/STM32L0xx_HAL_Driver/Src/stm32l0xx_hal_flash_ex.c ****   *            @arg @ref OB_RDP_LEVEL_0 No protection
 964:Drivers/STM32L0xx_HAL_Driver/Src/stm32l0xx_hal_flash_ex.c ****   *            @arg @ref OB_RDP_LEVEL_1 Read protection of the memory
 965:Drivers/STM32L0xx_HAL_Driver/Src/stm32l0xx_hal_flash_ex.c ****   *            @arg @ref OB_RDP_LEVEL_2 Full chip protection
 966:Drivers/STM32L0xx_HAL_Driver/Src/stm32l0xx_hal_flash_ex.c ****   */
 967:Drivers/STM32L0xx_HAL_Driver/Src/stm32l0xx_hal_flash_ex.c **** static uint8_t FLASH_OB_GetRDP(void)
 968:Drivers/STM32L0xx_HAL_Driver/Src/stm32l0xx_hal_flash_ex.c **** {
  58              		.loc 1 968 1 is_stmt 1 view -0
  59              		.cfi_startproc
  60              		@ args = 0, pretend = 0, frame = 0
  61              		@ frame_needed = 0, uses_anonymous_args = 0
ARM GAS  /tmp/ccd22iA4.s 			page 19


  62              		@ link register save eliminated.
 969:Drivers/STM32L0xx_HAL_Driver/Src/stm32l0xx_hal_flash_ex.c ****   uint8_t rdp_level = READ_BIT(FLASH->OPTR, FLASH_OPTR_RDPROT);
  63              		.loc 1 969 3 view .LVU7
  64              		.loc 1 969 23 is_stmt 0 view .LVU8
  65 0000 044B     		ldr	r3, .L7
  66 0002 D869     		ldr	r0, [r3, #28]
  67              		.loc 1 969 11 view .LVU9
  68 0004 C0B2     		uxtb	r0, r0
  69              	.LVL0:
 970:Drivers/STM32L0xx_HAL_Driver/Src/stm32l0xx_hal_flash_ex.c **** 
 971:Drivers/STM32L0xx_HAL_Driver/Src/stm32l0xx_hal_flash_ex.c ****   if ((rdp_level != OB_RDP_LEVEL_0) && (rdp_level != OB_RDP_LEVEL_2))
  70              		.loc 1 971 3 is_stmt 1 view .LVU10
  71              		.loc 1 971 6 is_stmt 0 view .LVU11
  72 0006 AA28     		cmp	r0, #170
  73 0008 02D0     		beq	.L5
  74              		.loc 1 971 37 discriminator 1 view .LVU12
  75 000a CC28     		cmp	r0, #204
  76 000c 00D0     		beq	.L5
 972:Drivers/STM32L0xx_HAL_Driver/Src/stm32l0xx_hal_flash_ex.c ****   {
 973:Drivers/STM32L0xx_HAL_Driver/Src/stm32l0xx_hal_flash_ex.c ****     return (OB_RDP_LEVEL_1);
  77              		.loc 1 973 12 view .LVU13
  78 000e BB20     		movs	r0, #187
  79              	.LVL1:
  80              	.L5:
 974:Drivers/STM32L0xx_HAL_Driver/Src/stm32l0xx_hal_flash_ex.c ****   }
 975:Drivers/STM32L0xx_HAL_Driver/Src/stm32l0xx_hal_flash_ex.c ****   else
 976:Drivers/STM32L0xx_HAL_Driver/Src/stm32l0xx_hal_flash_ex.c ****   {
 977:Drivers/STM32L0xx_HAL_Driver/Src/stm32l0xx_hal_flash_ex.c ****     return rdp_level;
 978:Drivers/STM32L0xx_HAL_Driver/Src/stm32l0xx_hal_flash_ex.c ****   }
 979:Drivers/STM32L0xx_HAL_Driver/Src/stm32l0xx_hal_flash_ex.c **** }
  81              		.loc 1 979 1 view .LVU14
  82              		@ sp needed
  83 0010 7047     		bx	lr
  84              	.L8:
  85 0012 C046     		.align	2
  86              	.L7:
  87 0014 00200240 		.word	1073881088
  88              		.cfi_endproc
  89              	.LFE52:
  91              		.section	.text.FLASH_OB_GetBOR,"ax",%progbits
  92              		.align	1
  93              		.syntax unified
  94              		.code	16
  95              		.thumb_func
  97              	FLASH_OB_GetBOR:
  98              	.LFB53:
 980:Drivers/STM32L0xx_HAL_Driver/Src/stm32l0xx_hal_flash_ex.c **** 
 981:Drivers/STM32L0xx_HAL_Driver/Src/stm32l0xx_hal_flash_ex.c **** /**
 982:Drivers/STM32L0xx_HAL_Driver/Src/stm32l0xx_hal_flash_ex.c ****   * @brief  Returns the FLASH BOR level.
 983:Drivers/STM32L0xx_HAL_Driver/Src/stm32l0xx_hal_flash_ex.c ****   * @retval The BOR level Option Bytes.
 984:Drivers/STM32L0xx_HAL_Driver/Src/stm32l0xx_hal_flash_ex.c ****   */
 985:Drivers/STM32L0xx_HAL_Driver/Src/stm32l0xx_hal_flash_ex.c **** static uint8_t FLASH_OB_GetBOR(void)
 986:Drivers/STM32L0xx_HAL_Driver/Src/stm32l0xx_hal_flash_ex.c **** {
  99              		.loc 1 986 1 is_stmt 1 view -0
 100              		.cfi_startproc
 101              		@ args = 0, pretend = 0, frame = 0
 102              		@ frame_needed = 0, uses_anonymous_args = 0
ARM GAS  /tmp/ccd22iA4.s 			page 20


 103              		@ link register save eliminated.
 987:Drivers/STM32L0xx_HAL_Driver/Src/stm32l0xx_hal_flash_ex.c ****   /* Return the BOR level */
 988:Drivers/STM32L0xx_HAL_Driver/Src/stm32l0xx_hal_flash_ex.c ****   return (uint8_t)((FLASH->OPTR & (uint32_t)FLASH_OPTR_BOR_LEV) >> 16U);
 104              		.loc 1 988 3 view .LVU16
 105              		.loc 1 988 26 is_stmt 0 view .LVU17
 106 0000 024B     		ldr	r3, .L10
 107 0002 DB69     		ldr	r3, [r3, #28]
 108              		.loc 1 988 65 view .LVU18
 109 0004 1B0C     		lsrs	r3, r3, #16
 110              		.loc 1 988 10 view .LVU19
 111 0006 0F20     		movs	r0, #15
 112 0008 1840     		ands	r0, r3
 989:Drivers/STM32L0xx_HAL_Driver/Src/stm32l0xx_hal_flash_ex.c **** }
 113              		.loc 1 989 1 view .LVU20
 114              		@ sp needed
 115 000a 7047     		bx	lr
 116              	.L11:
 117              		.align	2
 118              	.L10:
 119 000c 00200240 		.word	1073881088
 120              		.cfi_endproc
 121              	.LFE53:
 123              		.section	.text.FLASH_OB_GetBOOTBit1,"ax",%progbits
 124              		.align	1
 125              		.syntax unified
 126              		.code	16
 127              		.thumb_func
 129              	FLASH_OB_GetBOOTBit1:
 130              	.LFB54:
 990:Drivers/STM32L0xx_HAL_Driver/Src/stm32l0xx_hal_flash_ex.c **** 
 991:Drivers/STM32L0xx_HAL_Driver/Src/stm32l0xx_hal_flash_ex.c **** /**
 992:Drivers/STM32L0xx_HAL_Driver/Src/stm32l0xx_hal_flash_ex.c ****   * @brief  Returns the FLASH BOOT bit1 value.
 993:Drivers/STM32L0xx_HAL_Driver/Src/stm32l0xx_hal_flash_ex.c ****   * @retval The BOOT bit 1 value Option Bytes.
 994:Drivers/STM32L0xx_HAL_Driver/Src/stm32l0xx_hal_flash_ex.c ****   */
 995:Drivers/STM32L0xx_HAL_Driver/Src/stm32l0xx_hal_flash_ex.c **** static uint8_t FLASH_OB_GetBOOTBit1(void)
 996:Drivers/STM32L0xx_HAL_Driver/Src/stm32l0xx_hal_flash_ex.c **** {
 131              		.loc 1 996 1 is_stmt 1 view -0
 132              		.cfi_startproc
 133              		@ args = 0, pretend = 0, frame = 0
 134              		@ frame_needed = 0, uses_anonymous_args = 0
 135              		@ link register save eliminated.
 997:Drivers/STM32L0xx_HAL_Driver/Src/stm32l0xx_hal_flash_ex.c ****   /* Return the BOR level */
 998:Drivers/STM32L0xx_HAL_Driver/Src/stm32l0xx_hal_flash_ex.c ****   return (FLASH->OPTR & FLASH_OPTR_BOOT1) >> FLASH_OPTR_BOOT1_Pos;
 136              		.loc 1 998 3 view .LVU22
 137              		.loc 1 998 16 is_stmt 0 view .LVU23
 138 0000 014B     		ldr	r3, .L13
 139 0002 D869     		ldr	r0, [r3, #28]
 140              		.loc 1 998 43 view .LVU24
 141 0004 C00F     		lsrs	r0, r0, #31
 999:Drivers/STM32L0xx_HAL_Driver/Src/stm32l0xx_hal_flash_ex.c **** 
1000:Drivers/STM32L0xx_HAL_Driver/Src/stm32l0xx_hal_flash_ex.c **** }
 142              		.loc 1 1000 1 view .LVU25
 143              		@ sp needed
 144 0006 7047     		bx	lr
 145              	.L14:
 146              		.align	2
 147              	.L13:
ARM GAS  /tmp/ccd22iA4.s 			page 21


 148 0008 00200240 		.word	1073881088
 149              		.cfi_endproc
 150              	.LFE54:
 152              		.section	.text.FLASH_OB_GetWRP,"ax",%progbits
 153              		.align	1
 154              		.syntax unified
 155              		.code	16
 156              		.thumb_func
 158              	FLASH_OB_GetWRP:
 159              	.LFB55:
1001:Drivers/STM32L0xx_HAL_Driver/Src/stm32l0xx_hal_flash_ex.c **** 
1002:Drivers/STM32L0xx_HAL_Driver/Src/stm32l0xx_hal_flash_ex.c **** /**
1003:Drivers/STM32L0xx_HAL_Driver/Src/stm32l0xx_hal_flash_ex.c ****   * @brief  Returns the FLASH Write Protection Option Bytes value.
1004:Drivers/STM32L0xx_HAL_Driver/Src/stm32l0xx_hal_flash_ex.c ****   * @retval The FLASH Write Protection Option Bytes value.
1005:Drivers/STM32L0xx_HAL_Driver/Src/stm32l0xx_hal_flash_ex.c ****   */
1006:Drivers/STM32L0xx_HAL_Driver/Src/stm32l0xx_hal_flash_ex.c **** static uint32_t FLASH_OB_GetWRP(void)
1007:Drivers/STM32L0xx_HAL_Driver/Src/stm32l0xx_hal_flash_ex.c **** {
 160              		.loc 1 1007 1 is_stmt 1 view -0
 161              		.cfi_startproc
 162              		@ args = 0, pretend = 0, frame = 0
 163              		@ frame_needed = 0, uses_anonymous_args = 0
 164              		@ link register save eliminated.
1008:Drivers/STM32L0xx_HAL_Driver/Src/stm32l0xx_hal_flash_ex.c ****   /* Return the FLASH write protection Register value */
1009:Drivers/STM32L0xx_HAL_Driver/Src/stm32l0xx_hal_flash_ex.c ****   return (uint32_t)(FLASH->WRPR);
 165              		.loc 1 1009 3 view .LVU27
 166              		.loc 1 1009 10 is_stmt 0 view .LVU28
 167 0000 014B     		ldr	r3, .L16
 168 0002 186A     		ldr	r0, [r3, #32]
1010:Drivers/STM32L0xx_HAL_Driver/Src/stm32l0xx_hal_flash_ex.c **** }
 169              		.loc 1 1010 1 view .LVU29
 170              		@ sp needed
 171 0004 7047     		bx	lr
 172              	.L17:
 173 0006 C046     		.align	2
 174              	.L16:
 175 0008 00200240 		.word	1073881088
 176              		.cfi_endproc
 177              	.LFE55:
 179              		.section	.text.FLASH_OB_ProtectedSectorsConfig,"ax",%progbits
 180              		.align	1
 181              		.syntax unified
 182              		.code	16
 183              		.thumb_func
 185              	FLASH_OB_ProtectedSectorsConfig:
 186              	.LVL2:
 187              	.LFB56:
1011:Drivers/STM32L0xx_HAL_Driver/Src/stm32l0xx_hal_flash_ex.c **** 
1012:Drivers/STM32L0xx_HAL_Driver/Src/stm32l0xx_hal_flash_ex.c **** #if defined(STM32L071xx) || defined(STM32L072xx) || defined(STM32L073xx) || defined(STM32L081xx) ||
1013:Drivers/STM32L0xx_HAL_Driver/Src/stm32l0xx_hal_flash_ex.c **** /**
1014:Drivers/STM32L0xx_HAL_Driver/Src/stm32l0xx_hal_flash_ex.c ****   * @brief  Returns the FLASH Write Protection Option Bytes value.
1015:Drivers/STM32L0xx_HAL_Driver/Src/stm32l0xx_hal_flash_ex.c ****   * @retval The FLASH Write Protection Option Bytes value.
1016:Drivers/STM32L0xx_HAL_Driver/Src/stm32l0xx_hal_flash_ex.c ****   */
1017:Drivers/STM32L0xx_HAL_Driver/Src/stm32l0xx_hal_flash_ex.c **** static uint32_t FLASH_OB_GetWRP2(void)
1018:Drivers/STM32L0xx_HAL_Driver/Src/stm32l0xx_hal_flash_ex.c **** {
1019:Drivers/STM32L0xx_HAL_Driver/Src/stm32l0xx_hal_flash_ex.c ****   /* Return the FLASH write protection Register value */
1020:Drivers/STM32L0xx_HAL_Driver/Src/stm32l0xx_hal_flash_ex.c ****   return (uint32_t)(FLASH->WRPR2);
1021:Drivers/STM32L0xx_HAL_Driver/Src/stm32l0xx_hal_flash_ex.c **** }
ARM GAS  /tmp/ccd22iA4.s 			page 22


1022:Drivers/STM32L0xx_HAL_Driver/Src/stm32l0xx_hal_flash_ex.c **** #endif /* STM32L071xx || STM32L072xx || STM32L073xx || STM32L081xx || STM32L082xx || STM32L083xx */
1023:Drivers/STM32L0xx_HAL_Driver/Src/stm32l0xx_hal_flash_ex.c **** 
1024:Drivers/STM32L0xx_HAL_Driver/Src/stm32l0xx_hal_flash_ex.c **** #if defined(STM32L071xx) || defined(STM32L072xx) || defined(STM32L073xx) || defined(STM32L081xx) ||
1025:Drivers/STM32L0xx_HAL_Driver/Src/stm32l0xx_hal_flash_ex.c **** /**
1026:Drivers/STM32L0xx_HAL_Driver/Src/stm32l0xx_hal_flash_ex.c ****   * @brief  Write Option Byte of the desired pages of the Flash.
1027:Drivers/STM32L0xx_HAL_Driver/Src/stm32l0xx_hal_flash_ex.c ****   * @param  Sector specifies the sectors to be write protected.
1028:Drivers/STM32L0xx_HAL_Driver/Src/stm32l0xx_hal_flash_ex.c ****   * @param  Sector2 specifies the sectors to be write protected (only stm32l07xxx and stm32l08xxx d
1029:Drivers/STM32L0xx_HAL_Driver/Src/stm32l0xx_hal_flash_ex.c ****   * @param  NewState new state of the specified FLASH Pages Write protection.
1030:Drivers/STM32L0xx_HAL_Driver/Src/stm32l0xx_hal_flash_ex.c ****   *   This parameter can be: 
1031:Drivers/STM32L0xx_HAL_Driver/Src/stm32l0xx_hal_flash_ex.c ****   *        @arg @ref OB_WRPSTATE_ENABLE
1032:Drivers/STM32L0xx_HAL_Driver/Src/stm32l0xx_hal_flash_ex.c ****   *        @arg @ref OB_WRPSTATE_DISABLE
1033:Drivers/STM32L0xx_HAL_Driver/Src/stm32l0xx_hal_flash_ex.c ****   * @retval HAL_StatusTypeDef
1034:Drivers/STM32L0xx_HAL_Driver/Src/stm32l0xx_hal_flash_ex.c ****   */
1035:Drivers/STM32L0xx_HAL_Driver/Src/stm32l0xx_hal_flash_ex.c **** static HAL_StatusTypeDef FLASH_OB_ProtectedSectorsConfig(uint32_t Sector, uint32_t Sector2, uint32_
1036:Drivers/STM32L0xx_HAL_Driver/Src/stm32l0xx_hal_flash_ex.c **** #else
1037:Drivers/STM32L0xx_HAL_Driver/Src/stm32l0xx_hal_flash_ex.c **** /**
1038:Drivers/STM32L0xx_HAL_Driver/Src/stm32l0xx_hal_flash_ex.c ****   * @brief  Write Option Byte of the desired pages of the Flash.
1039:Drivers/STM32L0xx_HAL_Driver/Src/stm32l0xx_hal_flash_ex.c ****   * @param  Sector specifies the sectors to be write protected.
1040:Drivers/STM32L0xx_HAL_Driver/Src/stm32l0xx_hal_flash_ex.c ****   * @param  NewState new state of the specified FLASH Pages Write protection.
1041:Drivers/STM32L0xx_HAL_Driver/Src/stm32l0xx_hal_flash_ex.c ****   *   This parameter can be: 
1042:Drivers/STM32L0xx_HAL_Driver/Src/stm32l0xx_hal_flash_ex.c ****   *        @arg @ref OB_WRPSTATE_ENABLE
1043:Drivers/STM32L0xx_HAL_Driver/Src/stm32l0xx_hal_flash_ex.c ****   *        @arg @ref OB_WRPSTATE_DISABLE
1044:Drivers/STM32L0xx_HAL_Driver/Src/stm32l0xx_hal_flash_ex.c ****   * @retval HAL_StatusTypeDef
1045:Drivers/STM32L0xx_HAL_Driver/Src/stm32l0xx_hal_flash_ex.c ****   */
1046:Drivers/STM32L0xx_HAL_Driver/Src/stm32l0xx_hal_flash_ex.c **** static HAL_StatusTypeDef FLASH_OB_ProtectedSectorsConfig(uint32_t Sector, uint32_t NewState)
1047:Drivers/STM32L0xx_HAL_Driver/Src/stm32l0xx_hal_flash_ex.c **** #endif
1048:Drivers/STM32L0xx_HAL_Driver/Src/stm32l0xx_hal_flash_ex.c **** {
 188              		.loc 1 1048 1 is_stmt 1 view -0
 189              		.cfi_startproc
 190              		@ args = 0, pretend = 0, frame = 0
 191              		@ frame_needed = 0, uses_anonymous_args = 0
 192              		.loc 1 1048 1 is_stmt 0 view .LVU31
 193 0000 70B5     		push	{r4, r5, r6, lr}
 194              	.LCFI0:
 195              		.cfi_def_cfa_offset 16
 196              		.cfi_offset 4, -16
 197              		.cfi_offset 5, -12
 198              		.cfi_offset 6, -8
 199              		.cfi_offset 14, -4
 200 0002 0400     		movs	r4, r0
 201 0004 0D00     		movs	r5, r1
1049:Drivers/STM32L0xx_HAL_Driver/Src/stm32l0xx_hal_flash_ex.c ****   HAL_StatusTypeDef status = HAL_OK;
 202              		.loc 1 1049 3 is_stmt 1 view .LVU32
 203              	.LVL3:
1050:Drivers/STM32L0xx_HAL_Driver/Src/stm32l0xx_hal_flash_ex.c ****   uint32_t WRP_Data = 0;
 204              		.loc 1 1050 3 view .LVU33
1051:Drivers/STM32L0xx_HAL_Driver/Src/stm32l0xx_hal_flash_ex.c ****   uint32_t OB_WRP = Sector;
 205              		.loc 1 1051 3 view .LVU34
1052:Drivers/STM32L0xx_HAL_Driver/Src/stm32l0xx_hal_flash_ex.c ****   
1053:Drivers/STM32L0xx_HAL_Driver/Src/stm32l0xx_hal_flash_ex.c ****   /* Wait for last operation to be completed */
1054:Drivers/STM32L0xx_HAL_Driver/Src/stm32l0xx_hal_flash_ex.c ****   status = FLASH_WaitForLastOperation(FLASH_TIMEOUT_VALUE);
 206              		.loc 1 1054 3 view .LVU35
 207              		.loc 1 1054 12 is_stmt 0 view .LVU36
 208 0006 1148     		ldr	r0, .L21
 209              	.LVL4:
 210              		.loc 1 1054 12 view .LVU37
 211 0008 FFF7FEFF 		bl	FLASH_WaitForLastOperation
ARM GAS  /tmp/ccd22iA4.s 			page 23


 212              	.LVL5:
1055:Drivers/STM32L0xx_HAL_Driver/Src/stm32l0xx_hal_flash_ex.c ****  
1056:Drivers/STM32L0xx_HAL_Driver/Src/stm32l0xx_hal_flash_ex.c ****   if(status == HAL_OK)
 213              		.loc 1 1056 3 is_stmt 1 view .LVU38
 214              		.loc 1 1056 5 is_stmt 0 view .LVU39
 215 000c 0028     		cmp	r0, #0
 216 000e 10D1     		bne	.L19
1057:Drivers/STM32L0xx_HAL_Driver/Src/stm32l0xx_hal_flash_ex.c ****   {
1058:Drivers/STM32L0xx_HAL_Driver/Src/stm32l0xx_hal_flash_ex.c ****     /* Clean the error context */
1059:Drivers/STM32L0xx_HAL_Driver/Src/stm32l0xx_hal_flash_ex.c ****     pFlash.ErrorCode = HAL_FLASH_ERROR_NONE;
 217              		.loc 1 1059 5 is_stmt 1 view .LVU40
 218              		.loc 1 1059 22 is_stmt 0 view .LVU41
 219 0010 0F4B     		ldr	r3, .L21+4
 220 0012 0022     		movs	r2, #0
 221 0014 5A61     		str	r2, [r3, #20]
1060:Drivers/STM32L0xx_HAL_Driver/Src/stm32l0xx_hal_flash_ex.c **** 
1061:Drivers/STM32L0xx_HAL_Driver/Src/stm32l0xx_hal_flash_ex.c ****     /* Update WRP only if at least 1 selected sector */
1062:Drivers/STM32L0xx_HAL_Driver/Src/stm32l0xx_hal_flash_ex.c ****     if (OB_WRP != 0x00000000U)
 222              		.loc 1 1062 5 is_stmt 1 view .LVU42
 223              		.loc 1 1062 8 is_stmt 0 view .LVU43
 224 0016 002C     		cmp	r4, #0
 225 0018 0BD0     		beq	.L19
1063:Drivers/STM32L0xx_HAL_Driver/Src/stm32l0xx_hal_flash_ex.c ****     {
1064:Drivers/STM32L0xx_HAL_Driver/Src/stm32l0xx_hal_flash_ex.c ****       if ((OB_WRP & WRP_MASK_LOW) != 0x00000000U)
 226              		.loc 1 1064 7 is_stmt 1 view .LVU44
 227              		.loc 1 1064 19 is_stmt 0 view .LVU45
 228 001a 2304     		lsls	r3, r4, #16
 229              		.loc 1 1064 10 view .LVU46
 230 001c 09D0     		beq	.L19
1065:Drivers/STM32L0xx_HAL_Driver/Src/stm32l0xx_hal_flash_ex.c ****       {
1066:Drivers/STM32L0xx_HAL_Driver/Src/stm32l0xx_hal_flash_ex.c ****         if (NewState != OB_WRPSTATE_DISABLE)
 231              		.loc 1 1066 9 is_stmt 1 view .LVU47
 232              		.loc 1 1066 12 is_stmt 0 view .LVU48
 233 001e 002D     		cmp	r5, #0
 234 0020 0BD0     		beq	.L20
1067:Drivers/STM32L0xx_HAL_Driver/Src/stm32l0xx_hal_flash_ex.c ****         {
1068:Drivers/STM32L0xx_HAL_Driver/Src/stm32l0xx_hal_flash_ex.c ****           WRP_Data = (uint16_t)(((OB_WRP & WRP_MASK_LOW) | OB->WRP01));
 235              		.loc 1 1068 11 is_stmt 1 view .LVU49
 236              		.loc 1 1068 62 is_stmt 0 view .LVU50
 237 0022 0C4B     		ldr	r3, .L21+8
 238 0024 9868     		ldr	r0, [r3, #8]
 239              	.LVL6:
 240              		.loc 1 1068 22 view .LVU51
 241 0026 2043     		orrs	r0, r4
 242 0028 80B2     		uxth	r0, r0
 243              	.LVL7:
1069:Drivers/STM32L0xx_HAL_Driver/Src/stm32l0xx_hal_flash_ex.c ****           OB->WRP01 = (uint32_t)(~(WRP_Data) << 16U) | (WRP_Data);
 244              		.loc 1 1069 11 is_stmt 1 view .LVU52
 245              		.loc 1 1069 34 is_stmt 0 view .LVU53
 246 002a C443     		mvns	r4, r0
 247              	.LVL8:
 248              		.loc 1 1069 46 view .LVU54
 249 002c 2404     		lsls	r4, r4, #16
 250              		.loc 1 1069 54 view .LVU55
 251 002e 2043     		orrs	r0, r4
 252              	.LVL9:
 253              		.loc 1 1069 21 view .LVU56
ARM GAS  /tmp/ccd22iA4.s 			page 24


 254 0030 9860     		str	r0, [r3, #8]
 255              	.L19:
1070:Drivers/STM32L0xx_HAL_Driver/Src/stm32l0xx_hal_flash_ex.c ****         }             
1071:Drivers/STM32L0xx_HAL_Driver/Src/stm32l0xx_hal_flash_ex.c ****         else
1072:Drivers/STM32L0xx_HAL_Driver/Src/stm32l0xx_hal_flash_ex.c ****         {
1073:Drivers/STM32L0xx_HAL_Driver/Src/stm32l0xx_hal_flash_ex.c ****           WRP_Data = (uint16_t)(~OB_WRP & (WRP_MASK_LOW & OB->WRP01));
1074:Drivers/STM32L0xx_HAL_Driver/Src/stm32l0xx_hal_flash_ex.c ****           OB->WRP01 =  (uint32_t)((~WRP_Data) << 16U) | (WRP_Data);
1075:Drivers/STM32L0xx_HAL_Driver/Src/stm32l0xx_hal_flash_ex.c ****         }
1076:Drivers/STM32L0xx_HAL_Driver/Src/stm32l0xx_hal_flash_ex.c ****       }
1077:Drivers/STM32L0xx_HAL_Driver/Src/stm32l0xx_hal_flash_ex.c ****     }
1078:Drivers/STM32L0xx_HAL_Driver/Src/stm32l0xx_hal_flash_ex.c **** #if defined(STM32L071xx) || defined(STM32L072xx) || defined(STM32L073xx) || defined(STM32L081xx) ||
1079:Drivers/STM32L0xx_HAL_Driver/Src/stm32l0xx_hal_flash_ex.c ****     /* Update WRP only if at least 1 selected sector */
1080:Drivers/STM32L0xx_HAL_Driver/Src/stm32l0xx_hal_flash_ex.c ****     if (OB_WRP != 0x00000000U)
1081:Drivers/STM32L0xx_HAL_Driver/Src/stm32l0xx_hal_flash_ex.c ****     {
1082:Drivers/STM32L0xx_HAL_Driver/Src/stm32l0xx_hal_flash_ex.c ****       if ((OB_WRP & WRP_MASK_HIGH) != 0x00000000U)
1083:Drivers/STM32L0xx_HAL_Driver/Src/stm32l0xx_hal_flash_ex.c ****       {
1084:Drivers/STM32L0xx_HAL_Driver/Src/stm32l0xx_hal_flash_ex.c ****         if (NewState != OB_WRPSTATE_DISABLE)
1085:Drivers/STM32L0xx_HAL_Driver/Src/stm32l0xx_hal_flash_ex.c ****         {
1086:Drivers/STM32L0xx_HAL_Driver/Src/stm32l0xx_hal_flash_ex.c ****           WRP_Data = (uint16_t)((((OB_WRP & WRP_MASK_HIGH) >> 16U | OB->WRP23))); 
1087:Drivers/STM32L0xx_HAL_Driver/Src/stm32l0xx_hal_flash_ex.c ****           OB->WRP23 = (uint32_t)(~(WRP_Data) << 16U) | (WRP_Data);
1088:Drivers/STM32L0xx_HAL_Driver/Src/stm32l0xx_hal_flash_ex.c ****         }             
1089:Drivers/STM32L0xx_HAL_Driver/Src/stm32l0xx_hal_flash_ex.c ****         else
1090:Drivers/STM32L0xx_HAL_Driver/Src/stm32l0xx_hal_flash_ex.c ****         {
1091:Drivers/STM32L0xx_HAL_Driver/Src/stm32l0xx_hal_flash_ex.c ****           WRP_Data = (uint16_t)((((~OB_WRP & WRP_MASK_HIGH) >> 16U & OB->WRP23))); 
1092:Drivers/STM32L0xx_HAL_Driver/Src/stm32l0xx_hal_flash_ex.c ****           OB->WRP23 = (uint32_t)((~WRP_Data) << 16U) | (WRP_Data);
1093:Drivers/STM32L0xx_HAL_Driver/Src/stm32l0xx_hal_flash_ex.c ****         } 
1094:Drivers/STM32L0xx_HAL_Driver/Src/stm32l0xx_hal_flash_ex.c ****       }
1095:Drivers/STM32L0xx_HAL_Driver/Src/stm32l0xx_hal_flash_ex.c ****     }
1096:Drivers/STM32L0xx_HAL_Driver/Src/stm32l0xx_hal_flash_ex.c **** 
1097:Drivers/STM32L0xx_HAL_Driver/Src/stm32l0xx_hal_flash_ex.c ****     OB_WRP = Sector2;
1098:Drivers/STM32L0xx_HAL_Driver/Src/stm32l0xx_hal_flash_ex.c ****     /* Update WRP only if at least 1 selected sector */
1099:Drivers/STM32L0xx_HAL_Driver/Src/stm32l0xx_hal_flash_ex.c ****     if (OB_WRP != 0x00000000U)
1100:Drivers/STM32L0xx_HAL_Driver/Src/stm32l0xx_hal_flash_ex.c ****     {
1101:Drivers/STM32L0xx_HAL_Driver/Src/stm32l0xx_hal_flash_ex.c ****       if ((OB_WRP & WRP_MASK_LOW) != 0x00000000U)
1102:Drivers/STM32L0xx_HAL_Driver/Src/stm32l0xx_hal_flash_ex.c ****       {
1103:Drivers/STM32L0xx_HAL_Driver/Src/stm32l0xx_hal_flash_ex.c ****         if (NewState != OB_WRPSTATE_DISABLE)
1104:Drivers/STM32L0xx_HAL_Driver/Src/stm32l0xx_hal_flash_ex.c ****         {
1105:Drivers/STM32L0xx_HAL_Driver/Src/stm32l0xx_hal_flash_ex.c ****           WRP_Data = (uint16_t)(((OB_WRP & WRP_MASK_LOW) | OB->WRP45));
1106:Drivers/STM32L0xx_HAL_Driver/Src/stm32l0xx_hal_flash_ex.c ****           OB->WRP45 =(uint32_t)(~(WRP_Data) << 16U) | (WRP_Data);
1107:Drivers/STM32L0xx_HAL_Driver/Src/stm32l0xx_hal_flash_ex.c ****         }             
1108:Drivers/STM32L0xx_HAL_Driver/Src/stm32l0xx_hal_flash_ex.c ****         else
1109:Drivers/STM32L0xx_HAL_Driver/Src/stm32l0xx_hal_flash_ex.c ****         {
1110:Drivers/STM32L0xx_HAL_Driver/Src/stm32l0xx_hal_flash_ex.c ****           WRP_Data = (uint16_t)(~OB_WRP & (WRP_MASK_LOW & OB->WRP45));
1111:Drivers/STM32L0xx_HAL_Driver/Src/stm32l0xx_hal_flash_ex.c ****           OB->WRP45 = (uint32_t)((~WRP_Data) << 16U) | (WRP_Data);
1112:Drivers/STM32L0xx_HAL_Driver/Src/stm32l0xx_hal_flash_ex.c ****         }
1113:Drivers/STM32L0xx_HAL_Driver/Src/stm32l0xx_hal_flash_ex.c ****       }
1114:Drivers/STM32L0xx_HAL_Driver/Src/stm32l0xx_hal_flash_ex.c ****     }
1115:Drivers/STM32L0xx_HAL_Driver/Src/stm32l0xx_hal_flash_ex.c **** #endif /* STM32L071xx || STM32L072xx || STM32L073xx || STM32L081xx || STM32L082xx || STM32L083xx */
1116:Drivers/STM32L0xx_HAL_Driver/Src/stm32l0xx_hal_flash_ex.c ****   }
1117:Drivers/STM32L0xx_HAL_Driver/Src/stm32l0xx_hal_flash_ex.c ****   /* Wait for last operation to be completed */
1118:Drivers/STM32L0xx_HAL_Driver/Src/stm32l0xx_hal_flash_ex.c ****   status = FLASH_WaitForLastOperation(FLASH_TIMEOUT_VALUE);
 256              		.loc 1 1118 3 is_stmt 1 view .LVU57
 257              		.loc 1 1118 12 is_stmt 0 view .LVU58
 258 0032 0648     		ldr	r0, .L21
 259 0034 FFF7FEFF 		bl	FLASH_WaitForLastOperation
 260              	.LVL10:
1119:Drivers/STM32L0xx_HAL_Driver/Src/stm32l0xx_hal_flash_ex.c **** 
ARM GAS  /tmp/ccd22iA4.s 			page 25


1120:Drivers/STM32L0xx_HAL_Driver/Src/stm32l0xx_hal_flash_ex.c ****   /* Return the write protection operation Status */
1121:Drivers/STM32L0xx_HAL_Driver/Src/stm32l0xx_hal_flash_ex.c ****   return status;      
 261              		.loc 1 1121 3 is_stmt 1 view .LVU59
1122:Drivers/STM32L0xx_HAL_Driver/Src/stm32l0xx_hal_flash_ex.c **** }
 262              		.loc 1 1122 1 is_stmt 0 view .LVU60
 263              		@ sp needed
 264              	.LVL11:
 265              		.loc 1 1122 1 view .LVU61
 266 0038 70BD     		pop	{r4, r5, r6, pc}
 267              	.LVL12:
 268              	.L20:
1073:Drivers/STM32L0xx_HAL_Driver/Src/stm32l0xx_hal_flash_ex.c ****           OB->WRP01 =  (uint32_t)((~WRP_Data) << 16U) | (WRP_Data);
 269              		.loc 1 1073 11 is_stmt 1 view .LVU62
1073:Drivers/STM32L0xx_HAL_Driver/Src/stm32l0xx_hal_flash_ex.c ****           OB->WRP01 =  (uint32_t)((~WRP_Data) << 16U) | (WRP_Data);
 270              		.loc 1 1073 61 is_stmt 0 view .LVU63
 271 003a 0649     		ldr	r1, .L21+8
 272 003c 8B68     		ldr	r3, [r1, #8]
1073:Drivers/STM32L0xx_HAL_Driver/Src/stm32l0xx_hal_flash_ex.c ****           OB->WRP01 =  (uint32_t)((~WRP_Data) << 16U) | (WRP_Data);
 273              		.loc 1 1073 22 view .LVU64
 274 003e A343     		bics	r3, r4
 275 0040 9BB2     		uxth	r3, r3
 276              	.LVL13:
1074:Drivers/STM32L0xx_HAL_Driver/Src/stm32l0xx_hal_flash_ex.c ****         }
 277              		.loc 1 1074 11 is_stmt 1 view .LVU65
1074:Drivers/STM32L0xx_HAL_Driver/Src/stm32l0xx_hal_flash_ex.c ****         }
 278              		.loc 1 1074 36 is_stmt 0 view .LVU66
 279 0042 DA43     		mvns	r2, r3
1074:Drivers/STM32L0xx_HAL_Driver/Src/stm32l0xx_hal_flash_ex.c ****         }
 280              		.loc 1 1074 47 view .LVU67
 281 0044 1204     		lsls	r2, r2, #16
1074:Drivers/STM32L0xx_HAL_Driver/Src/stm32l0xx_hal_flash_ex.c ****         }
 282              		.loc 1 1074 55 view .LVU68
 283 0046 1343     		orrs	r3, r2
 284              	.LVL14:
1074:Drivers/STM32L0xx_HAL_Driver/Src/stm32l0xx_hal_flash_ex.c ****         }
 285              		.loc 1 1074 21 view .LVU69
 286 0048 8B60     		str	r3, [r1, #8]
 287 004a F2E7     		b	.L19
 288              	.L22:
 289              		.align	2
 290              	.L21:
 291 004c 50C30000 		.word	50000
 292 0050 00000000 		.word	pFlash
 293 0054 0000F81F 		.word	536346624
 294              		.cfi_endproc
 295              	.LFE56:
 297              		.section	.text.FLASH_OB_RDPConfig,"ax",%progbits
 298              		.align	1
 299              		.syntax unified
 300              		.code	16
 301              		.thumb_func
 303              	FLASH_OB_RDPConfig:
 304              	.LVL15:
 305              	.LFB48:
 826:Drivers/STM32L0xx_HAL_Driver/Src/stm32l0xx_hal_flash_ex.c ****   HAL_StatusTypeDef status = HAL_OK;
 306              		.loc 1 826 1 is_stmt 1 view -0
 307              		.cfi_startproc
ARM GAS  /tmp/ccd22iA4.s 			page 26


 308              		@ args = 0, pretend = 0, frame = 0
 309              		@ frame_needed = 0, uses_anonymous_args = 0
 826:Drivers/STM32L0xx_HAL_Driver/Src/stm32l0xx_hal_flash_ex.c ****   HAL_StatusTypeDef status = HAL_OK;
 310              		.loc 1 826 1 is_stmt 0 view .LVU71
 311 0000 10B5     		push	{r4, lr}
 312              	.LCFI1:
 313              		.cfi_def_cfa_offset 8
 314              		.cfi_offset 4, -8
 315              		.cfi_offset 14, -4
 827:Drivers/STM32L0xx_HAL_Driver/Src/stm32l0xx_hal_flash_ex.c ****   uint32_t tmp1 = 0U, tmp2 = 0U, tmp3 = 0U;
 316              		.loc 1 827 3 is_stmt 1 view .LVU72
 317              	.LVL16:
 828:Drivers/STM32L0xx_HAL_Driver/Src/stm32l0xx_hal_flash_ex.c ****   
 318              		.loc 1 828 3 view .LVU73
 831:Drivers/STM32L0xx_HAL_Driver/Src/stm32l0xx_hal_flash_ex.c ****   
 319              		.loc 1 831 3 view .LVU74
 833:Drivers/STM32L0xx_HAL_Driver/Src/stm32l0xx_hal_flash_ex.c ****   
 320              		.loc 1 833 3 view .LVU75
 833:Drivers/STM32L0xx_HAL_Driver/Src/stm32l0xx_hal_flash_ex.c ****   
 321              		.loc 1 833 23 is_stmt 0 view .LVU76
 322 0002 0C4B     		ldr	r3, .L26
 323 0004 1A68     		ldr	r2, [r3]
 324              	.LVL17:
 837:Drivers/STM32L0xx_HAL_Driver/Src/stm32l0xx_hal_flash_ex.c **** #endif
 325              		.loc 1 837 5 is_stmt 1 view .LVU77
 837:Drivers/STM32L0xx_HAL_Driver/Src/stm32l0xx_hal_flash_ex.c **** #endif
 326              		.loc 1 837 25 is_stmt 0 view .LVU78
 327 0006 1B68     		ldr	r3, [r3]
 837:Drivers/STM32L0xx_HAL_Driver/Src/stm32l0xx_hal_flash_ex.c **** #endif
 328              		.loc 1 837 10 view .LVU79
 329 0008 8022     		movs	r2, #128
 330 000a 5200     		lsls	r2, r2, #1
 331 000c 1340     		ands	r3, r2
 332              	.LVL18:
 841:Drivers/STM32L0xx_HAL_Driver/Src/stm32l0xx_hal_flash_ex.c ****     tmp2 = (uint32_t)(((uint32_t)((uint32_t)(tmp1) << 16U)) | ((uint32_t)(OB_RDP | tmp3)));
 333              		.loc 1 841 5 is_stmt 1 view .LVU80
 841:Drivers/STM32L0xx_HAL_Driver/Src/stm32l0xx_hal_flash_ex.c ****     tmp2 = (uint32_t)(((uint32_t)((uint32_t)(tmp1) << 16U)) | ((uint32_t)(OB_RDP | tmp3)));
 334              		.loc 1 841 15 is_stmt 0 view .LVU81
 335 000e 1843     		orrs	r0, r3
 336              	.LVL19:
 841:Drivers/STM32L0xx_HAL_Driver/Src/stm32l0xx_hal_flash_ex.c ****     tmp2 = (uint32_t)(((uint32_t)((uint32_t)(tmp1) << 16U)) | ((uint32_t)(OB_RDP | tmp3)));
 337              		.loc 1 841 10 view .LVU82
 338 0010 C443     		mvns	r4, r0
 339              	.LVL20:
 842:Drivers/STM32L0xx_HAL_Driver/Src/stm32l0xx_hal_flash_ex.c **** 
 340              		.loc 1 842 5 is_stmt 1 view .LVU83
 842:Drivers/STM32L0xx_HAL_Driver/Src/stm32l0xx_hal_flash_ex.c **** 
 341              		.loc 1 842 24 is_stmt 0 view .LVU84
 342 0012 2404     		lsls	r4, r4, #16
 343              	.LVL21:
 842:Drivers/STM32L0xx_HAL_Driver/Src/stm32l0xx_hal_flash_ex.c **** 
 344              		.loc 1 842 10 view .LVU85
 345 0014 0443     		orrs	r4, r0
 346              	.LVL22:
 845:Drivers/STM32L0xx_HAL_Driver/Src/stm32l0xx_hal_flash_ex.c **** 
 347              		.loc 1 845 5 is_stmt 1 view .LVU86
 845:Drivers/STM32L0xx_HAL_Driver/Src/stm32l0xx_hal_flash_ex.c **** 
ARM GAS  /tmp/ccd22iA4.s 			page 27


 348              		.loc 1 845 14 is_stmt 0 view .LVU87
 349 0016 0848     		ldr	r0, .L26+4
 350              	.LVL23:
 845:Drivers/STM32L0xx_HAL_Driver/Src/stm32l0xx_hal_flash_ex.c **** 
 351              		.loc 1 845 14 view .LVU88
 352 0018 FFF7FEFF 		bl	FLASH_WaitForLastOperation
 353              	.LVL24:
 847:Drivers/STM32L0xx_HAL_Driver/Src/stm32l0xx_hal_flash_ex.c ****     {
 354              		.loc 1 847 5 is_stmt 1 view .LVU89
 847:Drivers/STM32L0xx_HAL_Driver/Src/stm32l0xx_hal_flash_ex.c ****     {
 355              		.loc 1 847 7 is_stmt 0 view .LVU90
 356 001c 0028     		cmp	r0, #0
 357 001e 00D0     		beq	.L25
 358              	.LVL25:
 359              	.L24:
 860:Drivers/STM32L0xx_HAL_Driver/Src/stm32l0xx_hal_flash_ex.c **** }
 360              		.loc 1 860 3 is_stmt 1 view .LVU91
 861:Drivers/STM32L0xx_HAL_Driver/Src/stm32l0xx_hal_flash_ex.c **** 
 361              		.loc 1 861 1 is_stmt 0 view .LVU92
 362              		@ sp needed
 363              	.LVL26:
 861:Drivers/STM32L0xx_HAL_Driver/Src/stm32l0xx_hal_flash_ex.c **** 
 364              		.loc 1 861 1 view .LVU93
 365 0020 10BD     		pop	{r4, pc}
 366              	.LVL27:
 367              	.L25:
 850:Drivers/STM32L0xx_HAL_Driver/Src/stm32l0xx_hal_flash_ex.c **** 
 368              		.loc 1 850 7 is_stmt 1 view .LVU94
 850:Drivers/STM32L0xx_HAL_Driver/Src/stm32l0xx_hal_flash_ex.c **** 
 369              		.loc 1 850 24 is_stmt 0 view .LVU95
 370 0022 064B     		ldr	r3, .L26+8
 371 0024 0022     		movs	r2, #0
 372 0026 5A61     		str	r2, [r3, #20]
 853:Drivers/STM32L0xx_HAL_Driver/Src/stm32l0xx_hal_flash_ex.c **** 
 373              		.loc 1 853 7 is_stmt 1 view .LVU96
 853:Drivers/STM32L0xx_HAL_Driver/Src/stm32l0xx_hal_flash_ex.c **** 
 374              		.loc 1 853 15 is_stmt 0 view .LVU97
 375 0028 024B     		ldr	r3, .L26
 376 002a 1C60     		str	r4, [r3]
 856:Drivers/STM32L0xx_HAL_Driver/Src/stm32l0xx_hal_flash_ex.c ****     }
 377              		.loc 1 856 7 is_stmt 1 view .LVU98
 856:Drivers/STM32L0xx_HAL_Driver/Src/stm32l0xx_hal_flash_ex.c ****     }
 378              		.loc 1 856 16 is_stmt 0 view .LVU99
 379 002c 0248     		ldr	r0, .L26+4
 380              	.LVL28:
 856:Drivers/STM32L0xx_HAL_Driver/Src/stm32l0xx_hal_flash_ex.c ****     }
 381              		.loc 1 856 16 view .LVU100
 382 002e FFF7FEFF 		bl	FLASH_WaitForLastOperation
 383              	.LVL29:
 856:Drivers/STM32L0xx_HAL_Driver/Src/stm32l0xx_hal_flash_ex.c ****     }
 384              		.loc 1 856 16 view .LVU101
 385 0032 F5E7     		b	.L24
 386              	.L27:
 387              		.align	2
 388              	.L26:
 389 0034 0000F81F 		.word	536346624
 390 0038 50C30000 		.word	50000
ARM GAS  /tmp/ccd22iA4.s 			page 28


 391 003c 00000000 		.word	pFlash
 392              		.cfi_endproc
 393              	.LFE48:
 395              		.section	.text.FLASH_OB_UserConfig,"ax",%progbits
 396              		.align	1
 397              		.syntax unified
 398              		.code	16
 399              		.thumb_func
 401              	FLASH_OB_UserConfig:
 402              	.LVL30:
 403              	.LFB57:
1123:Drivers/STM32L0xx_HAL_Driver/Src/stm32l0xx_hal_flash_ex.c **** 
1124:Drivers/STM32L0xx_HAL_Driver/Src/stm32l0xx_hal_flash_ex.c **** /**
1125:Drivers/STM32L0xx_HAL_Driver/Src/stm32l0xx_hal_flash_ex.c ****   * @brief  Programs the FLASH User Option Byte: IWDG_SW / RST_STOP / RST_STDBY.
1126:Drivers/STM32L0xx_HAL_Driver/Src/stm32l0xx_hal_flash_ex.c ****   * @param  OB_IWDG Selects the WDG mode.
1127:Drivers/STM32L0xx_HAL_Driver/Src/stm32l0xx_hal_flash_ex.c ****   *   This parameter can be one of the following values:
1128:Drivers/STM32L0xx_HAL_Driver/Src/stm32l0xx_hal_flash_ex.c ****   *     @arg @ref OB_IWDG_SW Software WDG selected
1129:Drivers/STM32L0xx_HAL_Driver/Src/stm32l0xx_hal_flash_ex.c ****   *     @arg @ref OB_IWDG_HW Hardware WDG selected
1130:Drivers/STM32L0xx_HAL_Driver/Src/stm32l0xx_hal_flash_ex.c ****   * @param  OB_STOP Reset event when entering STOP mode.
1131:Drivers/STM32L0xx_HAL_Driver/Src/stm32l0xx_hal_flash_ex.c ****   *   This parameter can be one of the following values:
1132:Drivers/STM32L0xx_HAL_Driver/Src/stm32l0xx_hal_flash_ex.c ****   *     @arg @ref OB_STOP_NORST No reset generated when entering in STOP
1133:Drivers/STM32L0xx_HAL_Driver/Src/stm32l0xx_hal_flash_ex.c ****   *     @arg @ref OB_STOP_RST Reset generated when entering in STOP
1134:Drivers/STM32L0xx_HAL_Driver/Src/stm32l0xx_hal_flash_ex.c ****   * @param  OB_STDBY Reset event when entering Standby mode.
1135:Drivers/STM32L0xx_HAL_Driver/Src/stm32l0xx_hal_flash_ex.c ****   *   This parameter can be one of the following values:
1136:Drivers/STM32L0xx_HAL_Driver/Src/stm32l0xx_hal_flash_ex.c ****   *     @arg @ref OB_STDBY_NORST No reset generated when entering in STANDBY
1137:Drivers/STM32L0xx_HAL_Driver/Src/stm32l0xx_hal_flash_ex.c ****   *     @arg @ref OB_STDBY_RST Reset generated when entering in STANDBY
1138:Drivers/STM32L0xx_HAL_Driver/Src/stm32l0xx_hal_flash_ex.c ****   * @retval HAL status
1139:Drivers/STM32L0xx_HAL_Driver/Src/stm32l0xx_hal_flash_ex.c ****   */
1140:Drivers/STM32L0xx_HAL_Driver/Src/stm32l0xx_hal_flash_ex.c **** static HAL_StatusTypeDef FLASH_OB_UserConfig(uint8_t OB_IWDG, uint8_t OB_STOP, uint8_t OB_STDBY)
1141:Drivers/STM32L0xx_HAL_Driver/Src/stm32l0xx_hal_flash_ex.c **** {
 404              		.loc 1 1141 1 is_stmt 1 view -0
 405              		.cfi_startproc
 406              		@ args = 0, pretend = 0, frame = 0
 407              		@ frame_needed = 0, uses_anonymous_args = 0
 408              		.loc 1 1141 1 is_stmt 0 view .LVU103
 409 0000 10B5     		push	{r4, lr}
 410              	.LCFI2:
 411              		.cfi_def_cfa_offset 8
 412              		.cfi_offset 4, -8
 413              		.cfi_offset 14, -4
1142:Drivers/STM32L0xx_HAL_Driver/Src/stm32l0xx_hal_flash_ex.c ****   HAL_StatusTypeDef status = HAL_OK; 
 414              		.loc 1 1142 3 is_stmt 1 view .LVU104
 415              	.LVL31:
1143:Drivers/STM32L0xx_HAL_Driver/Src/stm32l0xx_hal_flash_ex.c ****   uint32_t tmp = 0, tmp1 = 0;
 416              		.loc 1 1143 3 view .LVU105
1144:Drivers/STM32L0xx_HAL_Driver/Src/stm32l0xx_hal_flash_ex.c **** 
1145:Drivers/STM32L0xx_HAL_Driver/Src/stm32l0xx_hal_flash_ex.c ****   /* Check the parameters */
1146:Drivers/STM32L0xx_HAL_Driver/Src/stm32l0xx_hal_flash_ex.c ****   assert_param(IS_OB_IWDG_SOURCE(OB_IWDG));
 417              		.loc 1 1146 3 view .LVU106
1147:Drivers/STM32L0xx_HAL_Driver/Src/stm32l0xx_hal_flash_ex.c ****   assert_param(IS_OB_STOP_SOURCE(OB_STOP));
 418              		.loc 1 1147 3 view .LVU107
1148:Drivers/STM32L0xx_HAL_Driver/Src/stm32l0xx_hal_flash_ex.c ****   assert_param(IS_OB_STDBY_SOURCE(OB_STDBY));
 419              		.loc 1 1148 3 view .LVU108
1149:Drivers/STM32L0xx_HAL_Driver/Src/stm32l0xx_hal_flash_ex.c **** 
1150:Drivers/STM32L0xx_HAL_Driver/Src/stm32l0xx_hal_flash_ex.c ****   /* Get the User Option byte register */
1151:Drivers/STM32L0xx_HAL_Driver/Src/stm32l0xx_hal_flash_ex.c ****   tmp1 = OB->USER & ((~FLASH_OPTR_USER) >> 16U);
 420              		.loc 1 1151 3 view .LVU109
ARM GAS  /tmp/ccd22iA4.s 			page 29


 421              		.loc 1 1151 12 is_stmt 0 view .LVU110
 422 0002 0C4B     		ldr	r3, .L31
 423 0004 5B68     		ldr	r3, [r3, #4]
 424              		.loc 1 1151 8 view .LVU111
 425 0006 0C4C     		ldr	r4, .L31+4
 426 0008 2340     		ands	r3, r4
 427              	.LVL32:
1152:Drivers/STM32L0xx_HAL_Driver/Src/stm32l0xx_hal_flash_ex.c **** 
1153:Drivers/STM32L0xx_HAL_Driver/Src/stm32l0xx_hal_flash_ex.c ****   /* Calculate the user option byte to write */ 
1154:Drivers/STM32L0xx_HAL_Driver/Src/stm32l0xx_hal_flash_ex.c ****   tmp = (uint32_t)(((uint32_t)~((uint32_t)((uint32_t)(OB_IWDG) | (uint32_t)(OB_STOP) | (uint32_t)(O
 428              		.loc 1 1154 3 is_stmt 1 view .LVU112
 429              		.loc 1 1154 86 is_stmt 0 view .LVU113
 430 000a 0843     		orrs	r0, r1
 431              	.LVL33:
 432              		.loc 1 1154 86 view .LVU114
 433 000c 0243     		orrs	r2, r0
 434              	.LVL34:
 435              		.loc 1 1154 33 view .LVU115
 436 000e 1A43     		orrs	r2, r3
 437              		.loc 1 1154 21 view .LVU116
 438 0010 D443     		mvns	r4, r2
 439              		.loc 1 1154 7 view .LVU117
 440 0012 2404     		lsls	r4, r4, #16
 441              	.LVL35:
1155:Drivers/STM32L0xx_HAL_Driver/Src/stm32l0xx_hal_flash_ex.c ****   tmp |= ((uint32_t)(OB_IWDG) | ((uint32_t)OB_STOP) | (uint32_t)(OB_STDBY) | tmp1);
 442              		.loc 1 1155 3 is_stmt 1 view .LVU118
 443              		.loc 1 1155 7 is_stmt 0 view .LVU119
 444 0014 1443     		orrs	r4, r2
 445              	.LVL36:
1156:Drivers/STM32L0xx_HAL_Driver/Src/stm32l0xx_hal_flash_ex.c ****   
1157:Drivers/STM32L0xx_HAL_Driver/Src/stm32l0xx_hal_flash_ex.c ****   /* Wait for last operation to be completed */
1158:Drivers/STM32L0xx_HAL_Driver/Src/stm32l0xx_hal_flash_ex.c ****   status = FLASH_WaitForLastOperation(FLASH_TIMEOUT_VALUE);
 446              		.loc 1 1158 3 is_stmt 1 view .LVU120
 447              		.loc 1 1158 12 is_stmt 0 view .LVU121
 448 0016 0948     		ldr	r0, .L31+8
 449 0018 FFF7FEFF 		bl	FLASH_WaitForLastOperation
 450              	.LVL37:
1159:Drivers/STM32L0xx_HAL_Driver/Src/stm32l0xx_hal_flash_ex.c ****   
1160:Drivers/STM32L0xx_HAL_Driver/Src/stm32l0xx_hal_flash_ex.c ****   if(status == HAL_OK)
 451              		.loc 1 1160 3 is_stmt 1 view .LVU122
 452              		.loc 1 1160 5 is_stmt 0 view .LVU123
 453 001c 0028     		cmp	r0, #0
 454 001e 00D0     		beq	.L30
 455              	.LVL38:
 456              	.L29:
1161:Drivers/STM32L0xx_HAL_Driver/Src/stm32l0xx_hal_flash_ex.c ****   {  
1162:Drivers/STM32L0xx_HAL_Driver/Src/stm32l0xx_hal_flash_ex.c ****     /* Clean the error context */
1163:Drivers/STM32L0xx_HAL_Driver/Src/stm32l0xx_hal_flash_ex.c ****     pFlash.ErrorCode = HAL_FLASH_ERROR_NONE;
1164:Drivers/STM32L0xx_HAL_Driver/Src/stm32l0xx_hal_flash_ex.c **** 
1165:Drivers/STM32L0xx_HAL_Driver/Src/stm32l0xx_hal_flash_ex.c ****     /* Write the User Option Byte */
1166:Drivers/STM32L0xx_HAL_Driver/Src/stm32l0xx_hal_flash_ex.c ****     OB->USER = tmp;
1167:Drivers/STM32L0xx_HAL_Driver/Src/stm32l0xx_hal_flash_ex.c ****     
1168:Drivers/STM32L0xx_HAL_Driver/Src/stm32l0xx_hal_flash_ex.c ****     /* Wait for last operation to be completed */
1169:Drivers/STM32L0xx_HAL_Driver/Src/stm32l0xx_hal_flash_ex.c ****     status = FLASH_WaitForLastOperation(FLASH_TIMEOUT_VALUE);
1170:Drivers/STM32L0xx_HAL_Driver/Src/stm32l0xx_hal_flash_ex.c ****   }
1171:Drivers/STM32L0xx_HAL_Driver/Src/stm32l0xx_hal_flash_ex.c **** 
1172:Drivers/STM32L0xx_HAL_Driver/Src/stm32l0xx_hal_flash_ex.c ****   /* Return the Option Byte program Status */
ARM GAS  /tmp/ccd22iA4.s 			page 30


1173:Drivers/STM32L0xx_HAL_Driver/Src/stm32l0xx_hal_flash_ex.c ****   return status;
 457              		.loc 1 1173 3 is_stmt 1 view .LVU124
1174:Drivers/STM32L0xx_HAL_Driver/Src/stm32l0xx_hal_flash_ex.c **** }
 458              		.loc 1 1174 1 is_stmt 0 view .LVU125
 459              		@ sp needed
 460              	.LVL39:
 461              		.loc 1 1174 1 view .LVU126
 462 0020 10BD     		pop	{r4, pc}
 463              	.LVL40:
 464              	.L30:
1163:Drivers/STM32L0xx_HAL_Driver/Src/stm32l0xx_hal_flash_ex.c **** 
 465              		.loc 1 1163 5 is_stmt 1 view .LVU127
1163:Drivers/STM32L0xx_HAL_Driver/Src/stm32l0xx_hal_flash_ex.c **** 
 466              		.loc 1 1163 22 is_stmt 0 view .LVU128
 467 0022 074B     		ldr	r3, .L31+12
 468 0024 0022     		movs	r2, #0
 469 0026 5A61     		str	r2, [r3, #20]
1166:Drivers/STM32L0xx_HAL_Driver/Src/stm32l0xx_hal_flash_ex.c ****     
 470              		.loc 1 1166 5 is_stmt 1 view .LVU129
1166:Drivers/STM32L0xx_HAL_Driver/Src/stm32l0xx_hal_flash_ex.c ****     
 471              		.loc 1 1166 14 is_stmt 0 view .LVU130
 472 0028 024B     		ldr	r3, .L31
 473 002a 5C60     		str	r4, [r3, #4]
1169:Drivers/STM32L0xx_HAL_Driver/Src/stm32l0xx_hal_flash_ex.c ****   }
 474              		.loc 1 1169 5 is_stmt 1 view .LVU131
1169:Drivers/STM32L0xx_HAL_Driver/Src/stm32l0xx_hal_flash_ex.c ****   }
 475              		.loc 1 1169 14 is_stmt 0 view .LVU132
 476 002c 0348     		ldr	r0, .L31+8
 477              	.LVL41:
1169:Drivers/STM32L0xx_HAL_Driver/Src/stm32l0xx_hal_flash_ex.c ****   }
 478              		.loc 1 1169 14 view .LVU133
 479 002e FFF7FEFF 		bl	FLASH_WaitForLastOperation
 480              	.LVL42:
1169:Drivers/STM32L0xx_HAL_Driver/Src/stm32l0xx_hal_flash_ex.c ****   }
 481              		.loc 1 1169 14 view .LVU134
 482 0032 F5E7     		b	.L29
 483              	.L32:
 484              		.align	2
 485              	.L31:
 486 0034 0000F81F 		.word	536346624
 487 0038 8FFF0000 		.word	65423
 488 003c 50C30000 		.word	50000
 489 0040 00000000 		.word	pFlash
 490              		.cfi_endproc
 491              	.LFE57:
 493              		.section	.text.FLASH_OB_BORConfig,"ax",%progbits
 494              		.align	1
 495              		.syntax unified
 496              		.code	16
 497              		.thumb_func
 499              	FLASH_OB_BORConfig:
 500              	.LVL43:
 501              	.LFB49:
 877:Drivers/STM32L0xx_HAL_Driver/Src/stm32l0xx_hal_flash_ex.c ****   HAL_StatusTypeDef status = HAL_OK;
 502              		.loc 1 877 1 is_stmt 1 view -0
 503              		.cfi_startproc
 504              		@ args = 0, pretend = 0, frame = 0
ARM GAS  /tmp/ccd22iA4.s 			page 31


 505              		@ frame_needed = 0, uses_anonymous_args = 0
 877:Drivers/STM32L0xx_HAL_Driver/Src/stm32l0xx_hal_flash_ex.c ****   HAL_StatusTypeDef status = HAL_OK;
 506              		.loc 1 877 1 is_stmt 0 view .LVU136
 507 0000 10B5     		push	{r4, lr}
 508              	.LCFI3:
 509              		.cfi_def_cfa_offset 8
 510              		.cfi_offset 4, -8
 511              		.cfi_offset 14, -4
 878:Drivers/STM32L0xx_HAL_Driver/Src/stm32l0xx_hal_flash_ex.c ****   uint32_t tmp = 0, tmp1 = 0;
 512              		.loc 1 878 3 is_stmt 1 view .LVU137
 513              	.LVL44:
 879:Drivers/STM32L0xx_HAL_Driver/Src/stm32l0xx_hal_flash_ex.c **** 
 514              		.loc 1 879 3 view .LVU138
 882:Drivers/STM32L0xx_HAL_Driver/Src/stm32l0xx_hal_flash_ex.c **** 
 515              		.loc 1 882 3 view .LVU139
 885:Drivers/STM32L0xx_HAL_Driver/Src/stm32l0xx_hal_flash_ex.c **** 
 516              		.loc 1 885 3 view .LVU140
 885:Drivers/STM32L0xx_HAL_Driver/Src/stm32l0xx_hal_flash_ex.c **** 
 517              		.loc 1 885 12 is_stmt 0 view .LVU141
 518 0002 0B4B     		ldr	r3, .L36
 519 0004 5B68     		ldr	r3, [r3, #4]
 885:Drivers/STM32L0xx_HAL_Driver/Src/stm32l0xx_hal_flash_ex.c **** 
 520              		.loc 1 885 8 view .LVU142
 521 0006 0B4A     		ldr	r2, .L36+4
 522 0008 1340     		ands	r3, r2
 523              	.LVL45:
 888:Drivers/STM32L0xx_HAL_Driver/Src/stm32l0xx_hal_flash_ex.c ****   tmp |= (OB_BOR | tmp1);
 524              		.loc 1 888 3 is_stmt 1 view .LVU143
 888:Drivers/STM32L0xx_HAL_Driver/Src/stm32l0xx_hal_flash_ex.c ****   tmp |= (OB_BOR | tmp1);
 525              		.loc 1 888 29 is_stmt 0 view .LVU144
 526 000a 1843     		orrs	r0, r3
 527              	.LVL46:
 888:Drivers/STM32L0xx_HAL_Driver/Src/stm32l0xx_hal_flash_ex.c ****   tmp |= (OB_BOR | tmp1);
 528              		.loc 1 888 9 view .LVU145
 529 000c C443     		mvns	r4, r0
 888:Drivers/STM32L0xx_HAL_Driver/Src/stm32l0xx_hal_flash_ex.c ****   tmp |= (OB_BOR | tmp1);
 530              		.loc 1 888 7 view .LVU146
 531 000e 2404     		lsls	r4, r4, #16
 532              	.LVL47:
 889:Drivers/STM32L0xx_HAL_Driver/Src/stm32l0xx_hal_flash_ex.c ****     
 533              		.loc 1 889 3 is_stmt 1 view .LVU147
 889:Drivers/STM32L0xx_HAL_Driver/Src/stm32l0xx_hal_flash_ex.c ****     
 534              		.loc 1 889 7 is_stmt 0 view .LVU148
 535 0010 0443     		orrs	r4, r0
 536              	.LVL48:
 892:Drivers/STM32L0xx_HAL_Driver/Src/stm32l0xx_hal_flash_ex.c ****   
 537              		.loc 1 892 3 is_stmt 1 view .LVU149
 892:Drivers/STM32L0xx_HAL_Driver/Src/stm32l0xx_hal_flash_ex.c ****   
 538              		.loc 1 892 12 is_stmt 0 view .LVU150
 539 0012 0948     		ldr	r0, .L36+8
 540 0014 FFF7FEFF 		bl	FLASH_WaitForLastOperation
 541              	.LVL49:
 894:Drivers/STM32L0xx_HAL_Driver/Src/stm32l0xx_hal_flash_ex.c ****   {  
 542              		.loc 1 894 3 is_stmt 1 view .LVU151
 894:Drivers/STM32L0xx_HAL_Driver/Src/stm32l0xx_hal_flash_ex.c ****   {  
 543              		.loc 1 894 5 is_stmt 0 view .LVU152
 544 0018 0028     		cmp	r0, #0
ARM GAS  /tmp/ccd22iA4.s 			page 32


 545 001a 00D0     		beq	.L35
 546              	.LVL50:
 547              	.L34:
 907:Drivers/STM32L0xx_HAL_Driver/Src/stm32l0xx_hal_flash_ex.c **** }
 548              		.loc 1 907 3 is_stmt 1 view .LVU153
 908:Drivers/STM32L0xx_HAL_Driver/Src/stm32l0xx_hal_flash_ex.c **** 
 549              		.loc 1 908 1 is_stmt 0 view .LVU154
 550              		@ sp needed
 551              	.LVL51:
 908:Drivers/STM32L0xx_HAL_Driver/Src/stm32l0xx_hal_flash_ex.c **** 
 552              		.loc 1 908 1 view .LVU155
 553 001c 10BD     		pop	{r4, pc}
 554              	.LVL52:
 555              	.L35:
 897:Drivers/STM32L0xx_HAL_Driver/Src/stm32l0xx_hal_flash_ex.c **** 
 556              		.loc 1 897 5 is_stmt 1 view .LVU156
 897:Drivers/STM32L0xx_HAL_Driver/Src/stm32l0xx_hal_flash_ex.c **** 
 557              		.loc 1 897 22 is_stmt 0 view .LVU157
 558 001e 074B     		ldr	r3, .L36+12
 559 0020 0022     		movs	r2, #0
 560 0022 5A61     		str	r2, [r3, #20]
 900:Drivers/STM32L0xx_HAL_Driver/Src/stm32l0xx_hal_flash_ex.c **** 
 561              		.loc 1 900 5 is_stmt 1 view .LVU158
 900:Drivers/STM32L0xx_HAL_Driver/Src/stm32l0xx_hal_flash_ex.c **** 
 562              		.loc 1 900 14 is_stmt 0 view .LVU159
 563 0024 024B     		ldr	r3, .L36
 564 0026 5C60     		str	r4, [r3, #4]
 903:Drivers/STM32L0xx_HAL_Driver/Src/stm32l0xx_hal_flash_ex.c ****   }
 565              		.loc 1 903 5 is_stmt 1 view .LVU160
 903:Drivers/STM32L0xx_HAL_Driver/Src/stm32l0xx_hal_flash_ex.c ****   }
 566              		.loc 1 903 14 is_stmt 0 view .LVU161
 567 0028 0348     		ldr	r0, .L36+8
 568              	.LVL53:
 903:Drivers/STM32L0xx_HAL_Driver/Src/stm32l0xx_hal_flash_ex.c ****   }
 569              		.loc 1 903 14 view .LVU162
 570 002a FFF7FEFF 		bl	FLASH_WaitForLastOperation
 571              	.LVL54:
 903:Drivers/STM32L0xx_HAL_Driver/Src/stm32l0xx_hal_flash_ex.c ****   }
 572              		.loc 1 903 14 view .LVU163
 573 002e F5E7     		b	.L34
 574              	.L37:
 575              		.align	2
 576              	.L36:
 577 0030 0000F81F 		.word	536346624
 578 0034 F0FF0000 		.word	65520
 579 0038 50C30000 		.word	50000
 580 003c 00000000 		.word	pFlash
 581              		.cfi_endproc
 582              	.LFE49:
 584              		.section	.text.FLASH_OB_BOOTBit1Config,"ax",%progbits
 585              		.align	1
 586              		.syntax unified
 587              		.code	16
 588              		.thumb_func
 590              	FLASH_OB_BOOTBit1Config:
 591              	.LVL55:
 592              	.LFB50:
ARM GAS  /tmp/ccd22iA4.s 			page 33


 919:Drivers/STM32L0xx_HAL_Driver/Src/stm32l0xx_hal_flash_ex.c ****   HAL_StatusTypeDef status = HAL_OK; 
 593              		.loc 1 919 1 is_stmt 1 view -0
 594              		.cfi_startproc
 595              		@ args = 0, pretend = 0, frame = 0
 596              		@ frame_needed = 0, uses_anonymous_args = 0
 919:Drivers/STM32L0xx_HAL_Driver/Src/stm32l0xx_hal_flash_ex.c ****   HAL_StatusTypeDef status = HAL_OK; 
 597              		.loc 1 919 1 is_stmt 0 view .LVU165
 598 0000 10B5     		push	{r4, lr}
 599              	.LCFI4:
 600              		.cfi_def_cfa_offset 8
 601              		.cfi_offset 4, -8
 602              		.cfi_offset 14, -4
 920:Drivers/STM32L0xx_HAL_Driver/Src/stm32l0xx_hal_flash_ex.c ****   uint32_t tmp = 0, tmp1 = 0, OB_Bits = ((uint32_t) OB_BootBit1) << 15;
 603              		.loc 1 920 3 is_stmt 1 view .LVU166
 604              	.LVL56:
 921:Drivers/STM32L0xx_HAL_Driver/Src/stm32l0xx_hal_flash_ex.c **** 
 605              		.loc 1 921 3 view .LVU167
 921:Drivers/STM32L0xx_HAL_Driver/Src/stm32l0xx_hal_flash_ex.c **** 
 606              		.loc 1 921 31 is_stmt 0 view .LVU168
 607 0002 C003     		lsls	r0, r0, #15
 608              	.LVL57:
 924:Drivers/STM32L0xx_HAL_Driver/Src/stm32l0xx_hal_flash_ex.c **** 
 609              		.loc 1 924 3 is_stmt 1 view .LVU169
 927:Drivers/STM32L0xx_HAL_Driver/Src/stm32l0xx_hal_flash_ex.c **** 
 610              		.loc 1 927 3 view .LVU170
 927:Drivers/STM32L0xx_HAL_Driver/Src/stm32l0xx_hal_flash_ex.c **** 
 611              		.loc 1 927 12 is_stmt 0 view .LVU171
 612 0004 0B4B     		ldr	r3, .L41
 613 0006 5B68     		ldr	r3, [r3, #4]
 927:Drivers/STM32L0xx_HAL_Driver/Src/stm32l0xx_hal_flash_ex.c **** 
 614              		.loc 1 927 8 view .LVU172
 615 0008 5B04     		lsls	r3, r3, #17
 616 000a 5B0C     		lsrs	r3, r3, #17
 617              	.LVL58:
 930:Drivers/STM32L0xx_HAL_Driver/Src/stm32l0xx_hal_flash_ex.c ****   tmp |= OB_Bits | tmp1;
 618              		.loc 1 930 3 is_stmt 1 view .LVU173
 930:Drivers/STM32L0xx_HAL_Driver/Src/stm32l0xx_hal_flash_ex.c ****   tmp |= OB_Bits | tmp1;
 619              		.loc 1 930 20 is_stmt 0 view .LVU174
 620 000c 1843     		orrs	r0, r3
 621              	.LVL59:
 930:Drivers/STM32L0xx_HAL_Driver/Src/stm32l0xx_hal_flash_ex.c ****   tmp |= OB_Bits | tmp1;
 622              		.loc 1 930 10 view .LVU175
 623 000e C443     		mvns	r4, r0
 930:Drivers/STM32L0xx_HAL_Driver/Src/stm32l0xx_hal_flash_ex.c ****   tmp |= OB_Bits | tmp1;
 624              		.loc 1 930 7 view .LVU176
 625 0010 2404     		lsls	r4, r4, #16
 626              	.LVL60:
 931:Drivers/STM32L0xx_HAL_Driver/Src/stm32l0xx_hal_flash_ex.c ****     
 627              		.loc 1 931 3 is_stmt 1 view .LVU177
 931:Drivers/STM32L0xx_HAL_Driver/Src/stm32l0xx_hal_flash_ex.c ****     
 628              		.loc 1 931 7 is_stmt 0 view .LVU178
 629 0012 0443     		orrs	r4, r0
 630              	.LVL61:
 934:Drivers/STM32L0xx_HAL_Driver/Src/stm32l0xx_hal_flash_ex.c ****   
 631              		.loc 1 934 3 is_stmt 1 view .LVU179
 934:Drivers/STM32L0xx_HAL_Driver/Src/stm32l0xx_hal_flash_ex.c ****   
 632              		.loc 1 934 12 is_stmt 0 view .LVU180
ARM GAS  /tmp/ccd22iA4.s 			page 34


 633 0014 0848     		ldr	r0, .L41+4
 634 0016 FFF7FEFF 		bl	FLASH_WaitForLastOperation
 635              	.LVL62:
 936:Drivers/STM32L0xx_HAL_Driver/Src/stm32l0xx_hal_flash_ex.c ****   {  
 636              		.loc 1 936 3 is_stmt 1 view .LVU181
 936:Drivers/STM32L0xx_HAL_Driver/Src/stm32l0xx_hal_flash_ex.c ****   {  
 637              		.loc 1 936 5 is_stmt 0 view .LVU182
 638 001a 0028     		cmp	r0, #0
 639 001c 00D0     		beq	.L40
 640              	.LVL63:
 641              	.L39:
 946:Drivers/STM32L0xx_HAL_Driver/Src/stm32l0xx_hal_flash_ex.c **** }
 642              		.loc 1 946 3 is_stmt 1 view .LVU183
 947:Drivers/STM32L0xx_HAL_Driver/Src/stm32l0xx_hal_flash_ex.c **** 
 643              		.loc 1 947 1 is_stmt 0 view .LVU184
 644              		@ sp needed
 645              	.LVL64:
 947:Drivers/STM32L0xx_HAL_Driver/Src/stm32l0xx_hal_flash_ex.c **** 
 646              		.loc 1 947 1 view .LVU185
 647 001e 10BD     		pop	{r4, pc}
 648              	.LVL65:
 649              	.L40:
 939:Drivers/STM32L0xx_HAL_Driver/Src/stm32l0xx_hal_flash_ex.c ****     /* Program OB */
 650              		.loc 1 939 5 is_stmt 1 view .LVU186
 939:Drivers/STM32L0xx_HAL_Driver/Src/stm32l0xx_hal_flash_ex.c ****     /* Program OB */
 651              		.loc 1 939 22 is_stmt 0 view .LVU187
 652 0020 064B     		ldr	r3, .L41+8
 653 0022 0022     		movs	r2, #0
 654 0024 5A61     		str	r2, [r3, #20]
 941:Drivers/STM32L0xx_HAL_Driver/Src/stm32l0xx_hal_flash_ex.c ****     /* Wait for last operation to be completed */
 655              		.loc 1 941 5 is_stmt 1 view .LVU188
 941:Drivers/STM32L0xx_HAL_Driver/Src/stm32l0xx_hal_flash_ex.c ****     /* Wait for last operation to be completed */
 656              		.loc 1 941 14 is_stmt 0 view .LVU189
 657 0026 034B     		ldr	r3, .L41
 658 0028 5C60     		str	r4, [r3, #4]
 943:Drivers/STM32L0xx_HAL_Driver/Src/stm32l0xx_hal_flash_ex.c ****   }
 659              		.loc 1 943 5 is_stmt 1 view .LVU190
 943:Drivers/STM32L0xx_HAL_Driver/Src/stm32l0xx_hal_flash_ex.c ****   }
 660              		.loc 1 943 14 is_stmt 0 view .LVU191
 661 002a 0348     		ldr	r0, .L41+4
 662              	.LVL66:
 943:Drivers/STM32L0xx_HAL_Driver/Src/stm32l0xx_hal_flash_ex.c ****   }
 663              		.loc 1 943 14 view .LVU192
 664 002c FFF7FEFF 		bl	FLASH_WaitForLastOperation
 665              	.LVL67:
 943:Drivers/STM32L0xx_HAL_Driver/Src/stm32l0xx_hal_flash_ex.c ****   }
 666              		.loc 1 943 14 view .LVU193
 667 0030 F5E7     		b	.L39
 668              	.L42:
 669 0032 C046     		.align	2
 670              	.L41:
 671 0034 0000F81F 		.word	536346624
 672 0038 50C30000 		.word	50000
 673 003c 00000000 		.word	pFlash
 674              		.cfi_endproc
 675              	.LFE50:
 677              		.section	.text.HAL_FLASHEx_OBProgram,"ax",%progbits
ARM GAS  /tmp/ccd22iA4.s 			page 35


 678              		.align	1
 679              		.global	HAL_FLASHEx_OBProgram
 680              		.syntax unified
 681              		.code	16
 682              		.thumb_func
 684              	HAL_FLASHEx_OBProgram:
 685              	.LVL68:
 686              	.LFB36:
 328:Drivers/STM32L0xx_HAL_Driver/Src/stm32l0xx_hal_flash_ex.c ****   HAL_StatusTypeDef status = HAL_ERROR;
 687              		.loc 1 328 1 is_stmt 1 view -0
 688              		.cfi_startproc
 689              		@ args = 0, pretend = 0, frame = 0
 690              		@ frame_needed = 0, uses_anonymous_args = 0
 328:Drivers/STM32L0xx_HAL_Driver/Src/stm32l0xx_hal_flash_ex.c ****   HAL_StatusTypeDef status = HAL_ERROR;
 691              		.loc 1 328 1 is_stmt 0 view .LVU195
 692 0000 10B5     		push	{r4, lr}
 693              	.LCFI5:
 694              		.cfi_def_cfa_offset 8
 695              		.cfi_offset 4, -8
 696              		.cfi_offset 14, -4
 697 0002 0400     		movs	r4, r0
 329:Drivers/STM32L0xx_HAL_Driver/Src/stm32l0xx_hal_flash_ex.c ****   
 698              		.loc 1 329 3 is_stmt 1 view .LVU196
 699              	.LVL69:
 332:Drivers/STM32L0xx_HAL_Driver/Src/stm32l0xx_hal_flash_ex.c **** 
 700              		.loc 1 332 3 view .LVU197
 332:Drivers/STM32L0xx_HAL_Driver/Src/stm32l0xx_hal_flash_ex.c **** 
 701              		.loc 1 332 3 view .LVU198
 702 0004 254B     		ldr	r3, .L57
 703 0006 1B7C     		ldrb	r3, [r3, #16]
 704 0008 012B     		cmp	r3, #1
 705 000a 45D0     		beq	.L50
 332:Drivers/STM32L0xx_HAL_Driver/Src/stm32l0xx_hal_flash_ex.c **** 
 706              		.loc 1 332 3 discriminator 2 view .LVU199
 707 000c 0123     		movs	r3, #1
 708 000e 234A     		ldr	r2, .L57
 709 0010 1374     		strb	r3, [r2, #16]
 332:Drivers/STM32L0xx_HAL_Driver/Src/stm32l0xx_hal_flash_ex.c **** 
 710              		.loc 1 332 3 discriminator 2 view .LVU200
 335:Drivers/STM32L0xx_HAL_Driver/Src/stm32l0xx_hal_flash_ex.c **** 
 711              		.loc 1 335 3 discriminator 2 view .LVU201
 338:Drivers/STM32L0xx_HAL_Driver/Src/stm32l0xx_hal_flash_ex.c ****   {
 712              		.loc 1 338 3 discriminator 2 view .LVU202
 338:Drivers/STM32L0xx_HAL_Driver/Src/stm32l0xx_hal_flash_ex.c ****   {
 713              		.loc 1 338 5 is_stmt 0 discriminator 2 view .LVU203
 714 0012 0268     		ldr	r2, [r0]
 715 0014 1342     		tst	r3, r2
 716 0016 10D1     		bne	.L52
 329:Drivers/STM32L0xx_HAL_Driver/Src/stm32l0xx_hal_flash_ex.c ****   
 717              		.loc 1 329 21 view .LVU204
 718 0018 0120     		movs	r0, #1
 719              	.LVL70:
 720              	.L45:
 355:Drivers/STM32L0xx_HAL_Driver/Src/stm32l0xx_hal_flash_ex.c ****   {
 721              		.loc 1 355 3 is_stmt 1 view .LVU205
 355:Drivers/STM32L0xx_HAL_Driver/Src/stm32l0xx_hal_flash_ex.c ****   {
 722              		.loc 1 355 5 is_stmt 0 view .LVU206
ARM GAS  /tmp/ccd22iA4.s 			page 36


 723 001a 2368     		ldr	r3, [r4]
 724 001c 9B07     		lsls	r3, r3, #30
 725 001e 16D4     		bmi	.L53
 726              	.LVL71:
 727              	.L46:
 367:Drivers/STM32L0xx_HAL_Driver/Src/stm32l0xx_hal_flash_ex.c ****   {
 728              		.loc 1 367 3 is_stmt 1 view .LVU207
 367:Drivers/STM32L0xx_HAL_Driver/Src/stm32l0xx_hal_flash_ex.c ****   {
 729              		.loc 1 367 5 is_stmt 0 view .LVU208
 730 0020 2368     		ldr	r3, [r4]
 731 0022 5B07     		lsls	r3, r3, #29
 732 0024 1CD4     		bmi	.L54
 733              	.LVL72:
 734              	.L47:
 381:Drivers/STM32L0xx_HAL_Driver/Src/stm32l0xx_hal_flash_ex.c ****   {
 735              		.loc 1 381 3 is_stmt 1 view .LVU209
 381:Drivers/STM32L0xx_HAL_Driver/Src/stm32l0xx_hal_flash_ex.c ****   {
 736              		.loc 1 381 5 is_stmt 0 view .LVU210
 737 0026 2368     		ldr	r3, [r4]
 738 0028 1B07     		lsls	r3, r3, #28
 739 002a 28D4     		bmi	.L55
 740              	.LVL73:
 741              	.L48:
 393:Drivers/STM32L0xx_HAL_Driver/Src/stm32l0xx_hal_flash_ex.c ****   {
 742              		.loc 1 393 3 is_stmt 1 view .LVU211
 393:Drivers/STM32L0xx_HAL_Driver/Src/stm32l0xx_hal_flash_ex.c ****   {
 743              		.loc 1 393 6 is_stmt 0 view .LVU212
 744 002c 2368     		ldr	r3, [r4]
 745 002e DB06     		lsls	r3, r3, #27
 746 0030 2ED4     		bmi	.L56
 747              	.LVL74:
 748              	.L49:
 398:Drivers/STM32L0xx_HAL_Driver/Src/stm32l0xx_hal_flash_ex.c **** 
 749              		.loc 1 398 3 is_stmt 1 view .LVU213
 398:Drivers/STM32L0xx_HAL_Driver/Src/stm32l0xx_hal_flash_ex.c **** 
 750              		.loc 1 398 3 view .LVU214
 751 0032 1A4B     		ldr	r3, .L57
 752 0034 0022     		movs	r2, #0
 753 0036 1A74     		strb	r2, [r3, #16]
 398:Drivers/STM32L0xx_HAL_Driver/Src/stm32l0xx_hal_flash_ex.c **** 
 754              		.loc 1 398 3 view .LVU215
 400:Drivers/STM32L0xx_HAL_Driver/Src/stm32l0xx_hal_flash_ex.c **** }
 755              		.loc 1 400 3 view .LVU216
 756              	.LVL75:
 757              	.L44:
 401:Drivers/STM32L0xx_HAL_Driver/Src/stm32l0xx_hal_flash_ex.c **** 
 758              		.loc 1 401 1 is_stmt 0 view .LVU217
 759              		@ sp needed
 760              	.LVL76:
 401:Drivers/STM32L0xx_HAL_Driver/Src/stm32l0xx_hal_flash_ex.c **** 
 761              		.loc 1 401 1 view .LVU218
 762 0038 10BD     		pop	{r4, pc}
 763              	.LVL77:
 764              	.L52:
 340:Drivers/STM32L0xx_HAL_Driver/Src/stm32l0xx_hal_flash_ex.c **** #if defined(STM32L071xx) || defined(STM32L072xx) || defined(STM32L073xx) || defined(STM32L081xx) ||
 765              		.loc 1 340 5 is_stmt 1 view .LVU219
 344:Drivers/STM32L0xx_HAL_Driver/Src/stm32l0xx_hal_flash_ex.c **** #endif
ARM GAS  /tmp/ccd22iA4.s 			page 37


 766              		.loc 1 344 5 view .LVU220
 344:Drivers/STM32L0xx_HAL_Driver/Src/stm32l0xx_hal_flash_ex.c **** #endif
 767              		.loc 1 344 14 is_stmt 0 view .LVU221
 768 003a 4168     		ldr	r1, [r0, #4]
 769 003c 8068     		ldr	r0, [r0, #8]
 770              	.LVL78:
 344:Drivers/STM32L0xx_HAL_Driver/Src/stm32l0xx_hal_flash_ex.c **** #endif
 771              		.loc 1 344 14 view .LVU222
 772 003e FFF7FEFF 		bl	FLASH_OB_ProtectedSectorsConfig
 773              	.LVL79:
 346:Drivers/STM32L0xx_HAL_Driver/Src/stm32l0xx_hal_flash_ex.c ****     {
 774              		.loc 1 346 5 is_stmt 1 view .LVU223
 346:Drivers/STM32L0xx_HAL_Driver/Src/stm32l0xx_hal_flash_ex.c ****     {
 775              		.loc 1 346 8 is_stmt 0 view .LVU224
 776 0042 0028     		cmp	r0, #0
 777 0044 E9D0     		beq	.L45
 349:Drivers/STM32L0xx_HAL_Driver/Src/stm32l0xx_hal_flash_ex.c ****       return status;
 778              		.loc 1 349 7 is_stmt 1 view .LVU225
 349:Drivers/STM32L0xx_HAL_Driver/Src/stm32l0xx_hal_flash_ex.c ****       return status;
 779              		.loc 1 349 7 view .LVU226
 780 0046 154B     		ldr	r3, .L57
 781 0048 0022     		movs	r2, #0
 782 004a 1A74     		strb	r2, [r3, #16]
 349:Drivers/STM32L0xx_HAL_Driver/Src/stm32l0xx_hal_flash_ex.c ****       return status;
 783              		.loc 1 349 7 view .LVU227
 350:Drivers/STM32L0xx_HAL_Driver/Src/stm32l0xx_hal_flash_ex.c ****     }
 784              		.loc 1 350 7 view .LVU228
 350:Drivers/STM32L0xx_HAL_Driver/Src/stm32l0xx_hal_flash_ex.c ****     }
 785              		.loc 1 350 14 is_stmt 0 view .LVU229
 786 004c F4E7     		b	.L44
 787              	.L53:
 357:Drivers/STM32L0xx_HAL_Driver/Src/stm32l0xx_hal_flash_ex.c ****     if (status != HAL_OK)
 788              		.loc 1 357 5 is_stmt 1 view .LVU230
 357:Drivers/STM32L0xx_HAL_Driver/Src/stm32l0xx_hal_flash_ex.c ****     if (status != HAL_OK)
 789              		.loc 1 357 14 is_stmt 0 view .LVU231
 790 004e 207B     		ldrb	r0, [r4, #12]
 791              	.LVL80:
 357:Drivers/STM32L0xx_HAL_Driver/Src/stm32l0xx_hal_flash_ex.c ****     if (status != HAL_OK)
 792              		.loc 1 357 14 view .LVU232
 793 0050 FFF7FEFF 		bl	FLASH_OB_RDPConfig
 794              	.LVL81:
 358:Drivers/STM32L0xx_HAL_Driver/Src/stm32l0xx_hal_flash_ex.c ****     {
 795              		.loc 1 358 5 is_stmt 1 view .LVU233
 358:Drivers/STM32L0xx_HAL_Driver/Src/stm32l0xx_hal_flash_ex.c ****     {
 796              		.loc 1 358 8 is_stmt 0 view .LVU234
 797 0054 0028     		cmp	r0, #0
 798 0056 E3D0     		beq	.L46
 361:Drivers/STM32L0xx_HAL_Driver/Src/stm32l0xx_hal_flash_ex.c ****       return status;
 799              		.loc 1 361 7 is_stmt 1 view .LVU235
 361:Drivers/STM32L0xx_HAL_Driver/Src/stm32l0xx_hal_flash_ex.c ****       return status;
 800              		.loc 1 361 7 view .LVU236
 801 0058 104B     		ldr	r3, .L57
 802 005a 0022     		movs	r2, #0
 803 005c 1A74     		strb	r2, [r3, #16]
 361:Drivers/STM32L0xx_HAL_Driver/Src/stm32l0xx_hal_flash_ex.c ****       return status;
 804              		.loc 1 361 7 view .LVU237
 362:Drivers/STM32L0xx_HAL_Driver/Src/stm32l0xx_hal_flash_ex.c ****     }
ARM GAS  /tmp/ccd22iA4.s 			page 38


 805              		.loc 1 362 7 view .LVU238
 362:Drivers/STM32L0xx_HAL_Driver/Src/stm32l0xx_hal_flash_ex.c ****     }
 806              		.loc 1 362 14 is_stmt 0 view .LVU239
 807 005e EBE7     		b	.L44
 808              	.L54:
 369:Drivers/STM32L0xx_HAL_Driver/Src/stm32l0xx_hal_flash_ex.c ****                                  pOBInit->USERConfig & OB_STOP_NORST,
 809              		.loc 1 369 5 is_stmt 1 view .LVU240
 369:Drivers/STM32L0xx_HAL_Driver/Src/stm32l0xx_hal_flash_ex.c ****                                  pOBInit->USERConfig & OB_STOP_NORST,
 810              		.loc 1 369 41 is_stmt 0 view .LVU241
 811 0060 A37B     		ldrb	r3, [r4, #14]
 369:Drivers/STM32L0xx_HAL_Driver/Src/stm32l0xx_hal_flash_ex.c ****                                  pOBInit->USERConfig & OB_STOP_NORST,
 812              		.loc 1 369 14 view .LVU242
 813 0062 4022     		movs	r2, #64
 814 0064 1A40     		ands	r2, r3
 815 0066 2021     		movs	r1, #32
 816 0068 1940     		ands	r1, r3
 817 006a 1020     		movs	r0, #16
 818              	.LVL82:
 369:Drivers/STM32L0xx_HAL_Driver/Src/stm32l0xx_hal_flash_ex.c ****                                  pOBInit->USERConfig & OB_STOP_NORST,
 819              		.loc 1 369 14 view .LVU243
 820 006c 1840     		ands	r0, r3
 821 006e FFF7FEFF 		bl	FLASH_OB_UserConfig
 822              	.LVL83:
 372:Drivers/STM32L0xx_HAL_Driver/Src/stm32l0xx_hal_flash_ex.c ****     {
 823              		.loc 1 372 5 is_stmt 1 view .LVU244
 372:Drivers/STM32L0xx_HAL_Driver/Src/stm32l0xx_hal_flash_ex.c ****     {
 824              		.loc 1 372 8 is_stmt 0 view .LVU245
 825 0072 0028     		cmp	r0, #0
 826 0074 D7D0     		beq	.L47
 375:Drivers/STM32L0xx_HAL_Driver/Src/stm32l0xx_hal_flash_ex.c ****       return status;
 827              		.loc 1 375 7 is_stmt 1 view .LVU246
 375:Drivers/STM32L0xx_HAL_Driver/Src/stm32l0xx_hal_flash_ex.c ****       return status;
 828              		.loc 1 375 7 view .LVU247
 829 0076 094B     		ldr	r3, .L57
 830 0078 0022     		movs	r2, #0
 831 007a 1A74     		strb	r2, [r3, #16]
 375:Drivers/STM32L0xx_HAL_Driver/Src/stm32l0xx_hal_flash_ex.c ****       return status;
 832              		.loc 1 375 7 view .LVU248
 376:Drivers/STM32L0xx_HAL_Driver/Src/stm32l0xx_hal_flash_ex.c ****     }
 833              		.loc 1 376 7 view .LVU249
 376:Drivers/STM32L0xx_HAL_Driver/Src/stm32l0xx_hal_flash_ex.c ****     }
 834              		.loc 1 376 14 is_stmt 0 view .LVU250
 835 007c DCE7     		b	.L44
 836              	.L55:
 383:Drivers/STM32L0xx_HAL_Driver/Src/stm32l0xx_hal_flash_ex.c ****     if (status != HAL_OK)
 837              		.loc 1 383 5 is_stmt 1 view .LVU251
 383:Drivers/STM32L0xx_HAL_Driver/Src/stm32l0xx_hal_flash_ex.c ****     if (status != HAL_OK)
 838              		.loc 1 383 14 is_stmt 0 view .LVU252
 839 007e 607B     		ldrb	r0, [r4, #13]
 840              	.LVL84:
 383:Drivers/STM32L0xx_HAL_Driver/Src/stm32l0xx_hal_flash_ex.c ****     if (status != HAL_OK)
 841              		.loc 1 383 14 view .LVU253
 842 0080 FFF7FEFF 		bl	FLASH_OB_BORConfig
 843              	.LVL85:
 384:Drivers/STM32L0xx_HAL_Driver/Src/stm32l0xx_hal_flash_ex.c ****     {
 844              		.loc 1 384 5 is_stmt 1 view .LVU254
 384:Drivers/STM32L0xx_HAL_Driver/Src/stm32l0xx_hal_flash_ex.c ****     {
ARM GAS  /tmp/ccd22iA4.s 			page 39


 845              		.loc 1 384 8 is_stmt 0 view .LVU255
 846 0084 0028     		cmp	r0, #0
 847 0086 D1D0     		beq	.L48
 387:Drivers/STM32L0xx_HAL_Driver/Src/stm32l0xx_hal_flash_ex.c ****       return status;
 848              		.loc 1 387 7 is_stmt 1 view .LVU256
 387:Drivers/STM32L0xx_HAL_Driver/Src/stm32l0xx_hal_flash_ex.c ****       return status;
 849              		.loc 1 387 7 view .LVU257
 850 0088 044B     		ldr	r3, .L57
 851 008a 0022     		movs	r2, #0
 852 008c 1A74     		strb	r2, [r3, #16]
 387:Drivers/STM32L0xx_HAL_Driver/Src/stm32l0xx_hal_flash_ex.c ****       return status;
 853              		.loc 1 387 7 view .LVU258
 388:Drivers/STM32L0xx_HAL_Driver/Src/stm32l0xx_hal_flash_ex.c ****     }
 854              		.loc 1 388 7 view .LVU259
 388:Drivers/STM32L0xx_HAL_Driver/Src/stm32l0xx_hal_flash_ex.c ****     }
 855              		.loc 1 388 14 is_stmt 0 view .LVU260
 856 008e D3E7     		b	.L44
 857              	.L56:
 395:Drivers/STM32L0xx_HAL_Driver/Src/stm32l0xx_hal_flash_ex.c ****   }
 858              		.loc 1 395 5 is_stmt 1 view .LVU261
 395:Drivers/STM32L0xx_HAL_Driver/Src/stm32l0xx_hal_flash_ex.c ****   }
 859              		.loc 1 395 14 is_stmt 0 view .LVU262
 860 0090 E07B     		ldrb	r0, [r4, #15]
 861              	.LVL86:
 395:Drivers/STM32L0xx_HAL_Driver/Src/stm32l0xx_hal_flash_ex.c ****   }
 862              		.loc 1 395 14 view .LVU263
 863 0092 FFF7FEFF 		bl	FLASH_OB_BOOTBit1Config
 864              	.LVL87:
 395:Drivers/STM32L0xx_HAL_Driver/Src/stm32l0xx_hal_flash_ex.c ****   }
 865              		.loc 1 395 14 view .LVU264
 866 0096 CCE7     		b	.L49
 867              	.LVL88:
 868              	.L50:
 332:Drivers/STM32L0xx_HAL_Driver/Src/stm32l0xx_hal_flash_ex.c **** 
 869              		.loc 1 332 3 view .LVU265
 870 0098 0220     		movs	r0, #2
 871              	.LVL89:
 332:Drivers/STM32L0xx_HAL_Driver/Src/stm32l0xx_hal_flash_ex.c **** 
 872              		.loc 1 332 3 view .LVU266
 873 009a CDE7     		b	.L44
 874              	.L58:
 875              		.align	2
 876              	.L57:
 877 009c 00000000 		.word	pFlash
 878              		.cfi_endproc
 879              	.LFE36:
 881              		.section	.text.HAL_FLASHEx_OBGetConfig,"ax",%progbits
 882              		.align	1
 883              		.global	HAL_FLASHEx_OBGetConfig
 884              		.syntax unified
 885              		.code	16
 886              		.thumb_func
 888              	HAL_FLASHEx_OBGetConfig:
 889              	.LVL90:
 890              	.LFB37:
 411:Drivers/STM32L0xx_HAL_Driver/Src/stm32l0xx_hal_flash_ex.c ****   pOBInit->OptionType = OPTIONBYTE_WRP | OPTIONBYTE_RDP | OPTIONBYTE_USER | OPTIONBYTE_BOR;
 891              		.loc 1 411 1 is_stmt 1 view -0
ARM GAS  /tmp/ccd22iA4.s 			page 40


 892              		.cfi_startproc
 893              		@ args = 0, pretend = 0, frame = 0
 894              		@ frame_needed = 0, uses_anonymous_args = 0
 411:Drivers/STM32L0xx_HAL_Driver/Src/stm32l0xx_hal_flash_ex.c ****   pOBInit->OptionType = OPTIONBYTE_WRP | OPTIONBYTE_RDP | OPTIONBYTE_USER | OPTIONBYTE_BOR;
 895              		.loc 1 411 1 is_stmt 0 view .LVU268
 896 0000 10B5     		push	{r4, lr}
 897              	.LCFI6:
 898              		.cfi_def_cfa_offset 8
 899              		.cfi_offset 4, -8
 900              		.cfi_offset 14, -4
 901 0002 0400     		movs	r4, r0
 412:Drivers/STM32L0xx_HAL_Driver/Src/stm32l0xx_hal_flash_ex.c **** 
 902              		.loc 1 412 3 is_stmt 1 view .LVU269
 412:Drivers/STM32L0xx_HAL_Driver/Src/stm32l0xx_hal_flash_ex.c **** 
 903              		.loc 1 412 23 is_stmt 0 view .LVU270
 904 0004 0F23     		movs	r3, #15
 905 0006 0360     		str	r3, [r0]
 415:Drivers/STM32L0xx_HAL_Driver/Src/stm32l0xx_hal_flash_ex.c **** 
 906              		.loc 1 415 3 is_stmt 1 view .LVU271
 415:Drivers/STM32L0xx_HAL_Driver/Src/stm32l0xx_hal_flash_ex.c **** 
 907              		.loc 1 415 24 is_stmt 0 view .LVU272
 908 0008 FFF7FEFF 		bl	FLASH_OB_GetWRP
 909              	.LVL91:
 415:Drivers/STM32L0xx_HAL_Driver/Src/stm32l0xx_hal_flash_ex.c **** 
 910              		.loc 1 415 22 view .LVU273
 911 000c A060     		str	r0, [r4, #8]
 422:Drivers/STM32L0xx_HAL_Driver/Src/stm32l0xx_hal_flash_ex.c **** 
 912              		.loc 1 422 3 is_stmt 1 view .LVU274
 422:Drivers/STM32L0xx_HAL_Driver/Src/stm32l0xx_hal_flash_ex.c **** 
 913              		.loc 1 422 25 is_stmt 0 view .LVU275
 914 000e FFF7FEFF 		bl	FLASH_OB_GetRDP
 915              	.LVL92:
 422:Drivers/STM32L0xx_HAL_Driver/Src/stm32l0xx_hal_flash_ex.c **** 
 916              		.loc 1 422 23 view .LVU276
 917 0012 2073     		strb	r0, [r4, #12]
 425:Drivers/STM32L0xx_HAL_Driver/Src/stm32l0xx_hal_flash_ex.c **** 
 918              		.loc 1 425 3 is_stmt 1 view .LVU277
 425:Drivers/STM32L0xx_HAL_Driver/Src/stm32l0xx_hal_flash_ex.c **** 
 919              		.loc 1 425 25 is_stmt 0 view .LVU278
 920 0014 FFF7FEFF 		bl	FLASH_OB_GetUser
 921              	.LVL93:
 425:Drivers/STM32L0xx_HAL_Driver/Src/stm32l0xx_hal_flash_ex.c **** 
 922              		.loc 1 425 23 view .LVU279
 923 0018 A073     		strb	r0, [r4, #14]
 428:Drivers/STM32L0xx_HAL_Driver/Src/stm32l0xx_hal_flash_ex.c **** 
 924              		.loc 1 428 3 is_stmt 1 view .LVU280
 428:Drivers/STM32L0xx_HAL_Driver/Src/stm32l0xx_hal_flash_ex.c **** 
 925              		.loc 1 428 25 is_stmt 0 view .LVU281
 926 001a FFF7FEFF 		bl	FLASH_OB_GetBOR
 927              	.LVL94:
 428:Drivers/STM32L0xx_HAL_Driver/Src/stm32l0xx_hal_flash_ex.c **** 
 928              		.loc 1 428 23 view .LVU282
 929 001e 6073     		strb	r0, [r4, #13]
 431:Drivers/STM32L0xx_HAL_Driver/Src/stm32l0xx_hal_flash_ex.c **** }
 930              		.loc 1 431 3 is_stmt 1 view .LVU283
 431:Drivers/STM32L0xx_HAL_Driver/Src/stm32l0xx_hal_flash_ex.c **** }
 931              		.loc 1 431 29 is_stmt 0 view .LVU284
ARM GAS  /tmp/ccd22iA4.s 			page 41


 932 0020 FFF7FEFF 		bl	FLASH_OB_GetBOOTBit1
 933              	.LVL95:
 431:Drivers/STM32L0xx_HAL_Driver/Src/stm32l0xx_hal_flash_ex.c **** }
 934              		.loc 1 431 27 view .LVU285
 935 0024 E073     		strb	r0, [r4, #15]
 432:Drivers/STM32L0xx_HAL_Driver/Src/stm32l0xx_hal_flash_ex.c **** 
 936              		.loc 1 432 1 view .LVU286
 937              		@ sp needed
 938              	.LVL96:
 432:Drivers/STM32L0xx_HAL_Driver/Src/stm32l0xx_hal_flash_ex.c **** 
 939              		.loc 1 432 1 view .LVU287
 940 0026 10BD     		pop	{r4, pc}
 941              		.cfi_endproc
 942              	.LFE37:
 944              		.section	.text.HAL_FLASHEx_AdvOBProgram,"ax",%progbits
 945              		.align	1
 946              		.global	HAL_FLASHEx_AdvOBProgram
 947              		.syntax unified
 948              		.code	16
 949              		.thumb_func
 951              	HAL_FLASHEx_AdvOBProgram:
 952              	.LVL97:
 953              	.LFB38:
 444:Drivers/STM32L0xx_HAL_Driver/Src/stm32l0xx_hal_flash_ex.c ****   HAL_StatusTypeDef status = HAL_ERROR;
 954              		.loc 1 444 1 is_stmt 1 view -0
 955              		.cfi_startproc
 956              		@ args = 0, pretend = 0, frame = 0
 957              		@ frame_needed = 0, uses_anonymous_args = 0
 444:Drivers/STM32L0xx_HAL_Driver/Src/stm32l0xx_hal_flash_ex.c ****   HAL_StatusTypeDef status = HAL_ERROR;
 958              		.loc 1 444 1 is_stmt 0 view .LVU289
 959 0000 10B5     		push	{r4, lr}
 960              	.LCFI7:
 961              		.cfi_def_cfa_offset 8
 962              		.cfi_offset 4, -8
 963              		.cfi_offset 14, -4
 445:Drivers/STM32L0xx_HAL_Driver/Src/stm32l0xx_hal_flash_ex.c ****   
 964              		.loc 1 445 3 is_stmt 1 view .LVU290
 965              	.LVL98:
 448:Drivers/STM32L0xx_HAL_Driver/Src/stm32l0xx_hal_flash_ex.c **** 
 966              		.loc 1 448 3 view .LVU291
 453:Drivers/STM32L0xx_HAL_Driver/Src/stm32l0xx_hal_flash_ex.c ****   {
 967              		.loc 1 453 3 view .LVU292
 453:Drivers/STM32L0xx_HAL_Driver/Src/stm32l0xx_hal_flash_ex.c ****   {
 968              		.loc 1 453 6 is_stmt 0 view .LVU293
 969 0002 0368     		ldr	r3, [r0]
 970 0004 DB07     		lsls	r3, r3, #31
 971 0006 01D4     		bmi	.L63
 445:Drivers/STM32L0xx_HAL_Driver/Src/stm32l0xx_hal_flash_ex.c ****   
 972              		.loc 1 445 21 view .LVU294
 973 0008 0120     		movs	r0, #1
 974              	.LVL99:
 975              	.L61:
 476:Drivers/STM32L0xx_HAL_Driver/Src/stm32l0xx_hal_flash_ex.c **** }
 976              		.loc 1 476 3 is_stmt 1 view .LVU295
 477:Drivers/STM32L0xx_HAL_Driver/Src/stm32l0xx_hal_flash_ex.c **** 
 977              		.loc 1 477 1 is_stmt 0 view .LVU296
 978              		@ sp needed
ARM GAS  /tmp/ccd22iA4.s 			page 42


 979 000a 10BD     		pop	{r4, pc}
 980              	.LVL100:
 981              	.L63:
 456:Drivers/STM32L0xx_HAL_Driver/Src/stm32l0xx_hal_flash_ex.c **** #if defined(STM32L071xx) || defined(STM32L072xx) || defined(STM32L073xx) || defined(STM32L081xx) ||
 982              		.loc 1 456 5 is_stmt 1 view .LVU297
 460:Drivers/STM32L0xx_HAL_Driver/Src/stm32l0xx_hal_flash_ex.c **** #endif
 983              		.loc 1 460 5 view .LVU298
 460:Drivers/STM32L0xx_HAL_Driver/Src/stm32l0xx_hal_flash_ex.c **** #endif
 984              		.loc 1 460 14 is_stmt 0 view .LVU299
 985 000c 4168     		ldr	r1, [r0, #4]
 986 000e 8068     		ldr	r0, [r0, #8]
 987              	.LVL101:
 460:Drivers/STM32L0xx_HAL_Driver/Src/stm32l0xx_hal_flash_ex.c **** #endif
 988              		.loc 1 460 14 view .LVU300
 989 0010 FFF7FEFF 		bl	FLASH_OB_ProtectedSectorsConfig
 990              	.LVL102:
 460:Drivers/STM32L0xx_HAL_Driver/Src/stm32l0xx_hal_flash_ex.c **** #endif
 991              		.loc 1 460 14 view .LVU301
 992 0014 F9E7     		b	.L61
 993              		.cfi_endproc
 994              	.LFE38:
 996              		.section	.text.HAL_FLASHEx_AdvOBGetConfig,"ax",%progbits
 997              		.align	1
 998              		.global	HAL_FLASHEx_AdvOBGetConfig
 999              		.syntax unified
 1000              		.code	16
 1001              		.thumb_func
 1003              	HAL_FLASHEx_AdvOBGetConfig:
 1004              	.LVL103:
 1005              	.LFB39:
 487:Drivers/STM32L0xx_HAL_Driver/Src/stm32l0xx_hal_flash_ex.c ****   pAdvOBInit->OptionType = 0;
 1006              		.loc 1 487 1 is_stmt 1 view -0
 1007              		.cfi_startproc
 1008              		@ args = 0, pretend = 0, frame = 0
 1009              		@ frame_needed = 0, uses_anonymous_args = 0
 1010              		@ link register save eliminated.
 488:Drivers/STM32L0xx_HAL_Driver/Src/stm32l0xx_hal_flash_ex.c ****   
 1011              		.loc 1 488 3 view .LVU303
 488:Drivers/STM32L0xx_HAL_Driver/Src/stm32l0xx_hal_flash_ex.c ****   
 1012              		.loc 1 488 26 is_stmt 0 view .LVU304
 1013 0000 0023     		movs	r3, #0
 1014 0002 0360     		str	r3, [r0]
 492:Drivers/STM32L0xx_HAL_Driver/Src/stm32l0xx_hal_flash_ex.c **** 
 1015              		.loc 1 492 3 is_stmt 1 view .LVU305
 492:Drivers/STM32L0xx_HAL_Driver/Src/stm32l0xx_hal_flash_ex.c **** 
 1016              		.loc 1 492 26 is_stmt 0 view .LVU306
 1017 0004 0133     		adds	r3, r3, #1
 1018 0006 0360     		str	r3, [r0]
 496:Drivers/STM32L0xx_HAL_Driver/Src/stm32l0xx_hal_flash_ex.c ****   /* Get PCROP protected sector */
 1019              		.loc 1 496 3 is_stmt 1 view .LVU307
 496:Drivers/STM32L0xx_HAL_Driver/Src/stm32l0xx_hal_flash_ex.c ****   /* Get PCROP protected sector */
 1020              		.loc 1 496 34 is_stmt 0 view .LVU308
 1021 0008 0349     		ldr	r1, .L65
 1022 000a CA69     		ldr	r2, [r1, #28]
 496:Drivers/STM32L0xx_HAL_Driver/Src/stm32l0xx_hal_flash_ex.c ****   /* Get PCROP protected sector */
 1023              		.loc 1 496 62 view .LVU309
 1024 000c 120A     		lsrs	r2, r2, #8
ARM GAS  /tmp/ccd22iA4.s 			page 43


 1025 000e 1340     		ands	r3, r2
 496:Drivers/STM32L0xx_HAL_Driver/Src/stm32l0xx_hal_flash_ex.c ****   /* Get PCROP protected sector */
 1026              		.loc 1 496 26 view .LVU310
 1027 0010 4360     		str	r3, [r0, #4]
 498:Drivers/STM32L0xx_HAL_Driver/Src/stm32l0xx_hal_flash_ex.c **** 
 1028              		.loc 1 498 3 is_stmt 1 view .LVU311
 498:Drivers/STM32L0xx_HAL_Driver/Src/stm32l0xx_hal_flash_ex.c **** 
 1029              		.loc 1 498 34 is_stmt 0 view .LVU312
 1030 0012 0B6A     		ldr	r3, [r1, #32]
 498:Drivers/STM32L0xx_HAL_Driver/Src/stm32l0xx_hal_flash_ex.c **** 
 1031              		.loc 1 498 27 view .LVU313
 1032 0014 8360     		str	r3, [r0, #8]
 514:Drivers/STM32L0xx_HAL_Driver/Src/stm32l0xx_hal_flash_ex.c **** 
 1033              		.loc 1 514 1 view .LVU314
 1034              		@ sp needed
 1035 0016 7047     		bx	lr
 1036              	.L66:
 1037              		.align	2
 1038              	.L65:
 1039 0018 00200240 		.word	1073881088
 1040              		.cfi_endproc
 1041              	.LFE39:
 1043              		.section	.text.HAL_FLASHEx_OB_SelectPCROP,"ax",%progbits
 1044              		.align	1
 1045              		.global	HAL_FLASHEx_OB_SelectPCROP
 1046              		.syntax unified
 1047              		.code	16
 1048              		.thumb_func
 1050              	HAL_FLASHEx_OB_SelectPCROP:
 1051              	.LFB40:
 527:Drivers/STM32L0xx_HAL_Driver/Src/stm32l0xx_hal_flash_ex.c ****   HAL_StatusTypeDef status = HAL_OK;
 1052              		.loc 1 527 1 is_stmt 1 view -0
 1053              		.cfi_startproc
 1054              		@ args = 0, pretend = 0, frame = 0
 1055              		@ frame_needed = 0, uses_anonymous_args = 0
 1056 0000 10B5     		push	{r4, lr}
 1057              	.LCFI8:
 1058              		.cfi_def_cfa_offset 8
 1059              		.cfi_offset 4, -8
 1060              		.cfi_offset 14, -4
 528:Drivers/STM32L0xx_HAL_Driver/Src/stm32l0xx_hal_flash_ex.c ****   uint16_t tmp1 = 0;
 1061              		.loc 1 528 3 view .LVU316
 1062              	.LVL104:
 529:Drivers/STM32L0xx_HAL_Driver/Src/stm32l0xx_hal_flash_ex.c ****   uint32_t tmp2 = 0;
 1063              		.loc 1 529 3 view .LVU317
 530:Drivers/STM32L0xx_HAL_Driver/Src/stm32l0xx_hal_flash_ex.c ****   uint8_t optiontmp = 0;
 1064              		.loc 1 530 3 view .LVU318
 531:Drivers/STM32L0xx_HAL_Driver/Src/stm32l0xx_hal_flash_ex.c ****   uint16_t optiontmp2 = 0;
 1065              		.loc 1 531 3 view .LVU319
 532:Drivers/STM32L0xx_HAL_Driver/Src/stm32l0xx_hal_flash_ex.c ****   
 1066              		.loc 1 532 3 view .LVU320
 534:Drivers/STM32L0xx_HAL_Driver/Src/stm32l0xx_hal_flash_ex.c ****   
 1067              		.loc 1 534 3 view .LVU321
 534:Drivers/STM32L0xx_HAL_Driver/Src/stm32l0xx_hal_flash_ex.c ****   
 1068              		.loc 1 534 12 is_stmt 0 view .LVU322
 1069 0002 0B48     		ldr	r0, .L70
 1070 0004 FFF7FEFF 		bl	FLASH_WaitForLastOperation
ARM GAS  /tmp/ccd22iA4.s 			page 44


 1071              	.LVL105:
 537:Drivers/STM32L0xx_HAL_Driver/Src/stm32l0xx_hal_flash_ex.c ****   
 1072              		.loc 1 537 3 is_stmt 1 view .LVU323
 537:Drivers/STM32L0xx_HAL_Driver/Src/stm32l0xx_hal_flash_ex.c ****   
 1073              		.loc 1 537 13 is_stmt 0 view .LVU324
 1074 0008 0A4B     		ldr	r3, .L70+4
 1075 000a 1B78     		ldrb	r3, [r3]
 1076              	.LVL106:
 540:Drivers/STM32L0xx_HAL_Driver/Src/stm32l0xx_hal_flash_ex.c ****   
 1077              		.loc 1 540 3 is_stmt 1 view .LVU325
 540:Drivers/STM32L0xx_HAL_Driver/Src/stm32l0xx_hal_flash_ex.c ****   
 1078              		.loc 1 540 14 is_stmt 0 view .LVU326
 1079 000c 8021     		movs	r1, #128
 1080 000e 4900     		lsls	r1, r1, #1
 1081 0010 1943     		orrs	r1, r3
 1082              	.LVL107:
 543:Drivers/STM32L0xx_HAL_Driver/Src/stm32l0xx_hal_flash_ex.c ****   tmp2 = (uint32_t)(((uint32_t)((uint32_t)(tmp1) << 16U)) | ((uint32_t)optiontmp2));
 1083              		.loc 1 543 3 is_stmt 1 view .LVU327
 543:Drivers/STM32L0xx_HAL_Driver/Src/stm32l0xx_hal_flash_ex.c ****   tmp2 = (uint32_t)(((uint32_t)((uint32_t)(tmp1) << 16U)) | ((uint32_t)optiontmp2));
 1084              		.loc 1 543 8 is_stmt 0 view .LVU328
 1085 0012 CB43     		mvns	r3, r1
 1086              	.LVL108:
 544:Drivers/STM32L0xx_HAL_Driver/Src/stm32l0xx_hal_flash_ex.c ****   
 1087              		.loc 1 544 3 is_stmt 1 view .LVU329
 544:Drivers/STM32L0xx_HAL_Driver/Src/stm32l0xx_hal_flash_ex.c ****   
 1088              		.loc 1 544 22 is_stmt 0 view .LVU330
 1089 0014 1B04     		lsls	r3, r3, #16
 1090              	.LVL109:
 544:Drivers/STM32L0xx_HAL_Driver/Src/stm32l0xx_hal_flash_ex.c ****   
 1091              		.loc 1 544 8 view .LVU331
 1092 0016 0B43     		orrs	r3, r1
 1093              	.LVL110:
 546:Drivers/STM32L0xx_HAL_Driver/Src/stm32l0xx_hal_flash_ex.c ****   {         
 1094              		.loc 1 546 3 is_stmt 1 view .LVU332
 546:Drivers/STM32L0xx_HAL_Driver/Src/stm32l0xx_hal_flash_ex.c ****   {         
 1095              		.loc 1 546 5 is_stmt 0 view .LVU333
 1096 0018 0028     		cmp	r0, #0
 1097 001a 00D0     		beq	.L69
 1098              	.LVL111:
 1099              	.L68:
 559:Drivers/STM32L0xx_HAL_Driver/Src/stm32l0xx_hal_flash_ex.c **** }
 1100              		.loc 1 559 3 is_stmt 1 view .LVU334
 560:Drivers/STM32L0xx_HAL_Driver/Src/stm32l0xx_hal_flash_ex.c **** 
 1101              		.loc 1 560 1 is_stmt 0 view .LVU335
 1102              		@ sp needed
 1103 001c 10BD     		pop	{r4, pc}
 1104              	.LVL112:
 1105              	.L69:
 549:Drivers/STM32L0xx_HAL_Driver/Src/stm32l0xx_hal_flash_ex.c **** 
 1106              		.loc 1 549 5 is_stmt 1 view .LVU336
 549:Drivers/STM32L0xx_HAL_Driver/Src/stm32l0xx_hal_flash_ex.c **** 
 1107              		.loc 1 549 22 is_stmt 0 view .LVU337
 1108 001e 064A     		ldr	r2, .L70+8
 1109 0020 0021     		movs	r1, #0
 1110              	.LVL113:
 549:Drivers/STM32L0xx_HAL_Driver/Src/stm32l0xx_hal_flash_ex.c **** 
 1111              		.loc 1 549 22 view .LVU338
ARM GAS  /tmp/ccd22iA4.s 			page 45


 1112 0022 5161     		str	r1, [r2, #20]
 552:Drivers/STM32L0xx_HAL_Driver/Src/stm32l0xx_hal_flash_ex.c ****     
 1113              		.loc 1 552 5 is_stmt 1 view .LVU339
 552:Drivers/STM32L0xx_HAL_Driver/Src/stm32l0xx_hal_flash_ex.c ****     
 1114              		.loc 1 552 13 is_stmt 0 view .LVU340
 1115 0024 034A     		ldr	r2, .L70+4
 1116 0026 1360     		str	r3, [r2]
 555:Drivers/STM32L0xx_HAL_Driver/Src/stm32l0xx_hal_flash_ex.c ****   }
 1117              		.loc 1 555 5 is_stmt 1 view .LVU341
 555:Drivers/STM32L0xx_HAL_Driver/Src/stm32l0xx_hal_flash_ex.c ****   }
 1118              		.loc 1 555 14 is_stmt 0 view .LVU342
 1119 0028 0148     		ldr	r0, .L70
 1120              	.LVL114:
 555:Drivers/STM32L0xx_HAL_Driver/Src/stm32l0xx_hal_flash_ex.c ****   }
 1121              		.loc 1 555 14 view .LVU343
 1122 002a FFF7FEFF 		bl	FLASH_WaitForLastOperation
 1123              	.LVL115:
 555:Drivers/STM32L0xx_HAL_Driver/Src/stm32l0xx_hal_flash_ex.c ****   }
 1124              		.loc 1 555 14 view .LVU344
 1125 002e F5E7     		b	.L68
 1126              	.L71:
 1127              		.align	2
 1128              	.L70:
 1129 0030 50C30000 		.word	50000
 1130 0034 0000F81F 		.word	536346624
 1131 0038 00000000 		.word	pFlash
 1132              		.cfi_endproc
 1133              	.LFE40:
 1135              		.section	.text.HAL_FLASHEx_OB_DeSelectPCROP,"ax",%progbits
 1136              		.align	1
 1137              		.global	HAL_FLASHEx_OB_DeSelectPCROP
 1138              		.syntax unified
 1139              		.code	16
 1140              		.thumb_func
 1142              	HAL_FLASHEx_OB_DeSelectPCROP:
 1143              	.LFB41:
 569:Drivers/STM32L0xx_HAL_Driver/Src/stm32l0xx_hal_flash_ex.c ****   HAL_StatusTypeDef status = HAL_OK;
 1144              		.loc 1 569 1 is_stmt 1 view -0
 1145              		.cfi_startproc
 1146              		@ args = 0, pretend = 0, frame = 0
 1147              		@ frame_needed = 0, uses_anonymous_args = 0
 1148 0000 10B5     		push	{r4, lr}
 1149              	.LCFI9:
 1150              		.cfi_def_cfa_offset 8
 1151              		.cfi_offset 4, -8
 1152              		.cfi_offset 14, -4
 570:Drivers/STM32L0xx_HAL_Driver/Src/stm32l0xx_hal_flash_ex.c ****   uint16_t tmp1 = 0;
 1153              		.loc 1 570 3 view .LVU346
 1154              	.LVL116:
 571:Drivers/STM32L0xx_HAL_Driver/Src/stm32l0xx_hal_flash_ex.c ****   uint32_t tmp2 = 0;
 1155              		.loc 1 571 3 view .LVU347
 572:Drivers/STM32L0xx_HAL_Driver/Src/stm32l0xx_hal_flash_ex.c ****   uint8_t optiontmp = 0;
 1156              		.loc 1 572 3 view .LVU348
 573:Drivers/STM32L0xx_HAL_Driver/Src/stm32l0xx_hal_flash_ex.c ****   uint16_t optiontmp2 = 0;
 1157              		.loc 1 573 3 view .LVU349
 574:Drivers/STM32L0xx_HAL_Driver/Src/stm32l0xx_hal_flash_ex.c ****   
 1158              		.loc 1 574 3 view .LVU350
ARM GAS  /tmp/ccd22iA4.s 			page 46


 576:Drivers/STM32L0xx_HAL_Driver/Src/stm32l0xx_hal_flash_ex.c ****   
 1159              		.loc 1 576 3 view .LVU351
 576:Drivers/STM32L0xx_HAL_Driver/Src/stm32l0xx_hal_flash_ex.c ****   
 1160              		.loc 1 576 12 is_stmt 0 view .LVU352
 1161 0002 0A48     		ldr	r0, .L75
 1162 0004 FFF7FEFF 		bl	FLASH_WaitForLastOperation
 1163              	.LVL117:
 579:Drivers/STM32L0xx_HAL_Driver/Src/stm32l0xx_hal_flash_ex.c ****   
 1164              		.loc 1 579 3 is_stmt 1 view .LVU353
 579:Drivers/STM32L0xx_HAL_Driver/Src/stm32l0xx_hal_flash_ex.c ****   
 1165              		.loc 1 579 13 is_stmt 0 view .LVU354
 1166 0008 094B     		ldr	r3, .L75+4
 1167 000a 1B78     		ldrb	r3, [r3]
 1168              	.LVL118:
 582:Drivers/STM32L0xx_HAL_Driver/Src/stm32l0xx_hal_flash_ex.c ****   
 1169              		.loc 1 582 3 is_stmt 1 view .LVU355
 585:Drivers/STM32L0xx_HAL_Driver/Src/stm32l0xx_hal_flash_ex.c ****   tmp2 = (uint32_t)(((uint32_t)((uint32_t)(tmp1) << 16U)) | ((uint32_t)optiontmp2));
 1170              		.loc 1 585 3 view .LVU356
 585:Drivers/STM32L0xx_HAL_Driver/Src/stm32l0xx_hal_flash_ex.c ****   tmp2 = (uint32_t)(((uint32_t)((uint32_t)(tmp1) << 16U)) | ((uint32_t)optiontmp2));
 1171              		.loc 1 585 8 is_stmt 0 view .LVU357
 1172 000c DA43     		mvns	r2, r3
 1173              	.LVL119:
 586:Drivers/STM32L0xx_HAL_Driver/Src/stm32l0xx_hal_flash_ex.c ****   
 1174              		.loc 1 586 3 is_stmt 1 view .LVU358
 586:Drivers/STM32L0xx_HAL_Driver/Src/stm32l0xx_hal_flash_ex.c ****   
 1175              		.loc 1 586 22 is_stmt 0 view .LVU359
 1176 000e 1204     		lsls	r2, r2, #16
 1177              	.LVL120:
 586:Drivers/STM32L0xx_HAL_Driver/Src/stm32l0xx_hal_flash_ex.c ****   
 1178              		.loc 1 586 8 view .LVU360
 1179 0010 1343     		orrs	r3, r2
 1180              	.LVL121:
 588:Drivers/STM32L0xx_HAL_Driver/Src/stm32l0xx_hal_flash_ex.c ****   {         
 1181              		.loc 1 588 3 is_stmt 1 view .LVU361
 588:Drivers/STM32L0xx_HAL_Driver/Src/stm32l0xx_hal_flash_ex.c ****   {         
 1182              		.loc 1 588 5 is_stmt 0 view .LVU362
 1183 0012 0028     		cmp	r0, #0
 1184 0014 00D0     		beq	.L74
 1185              	.LVL122:
 1186              	.L73:
 601:Drivers/STM32L0xx_HAL_Driver/Src/stm32l0xx_hal_flash_ex.c **** }
 1187              		.loc 1 601 3 is_stmt 1 view .LVU363
 602:Drivers/STM32L0xx_HAL_Driver/Src/stm32l0xx_hal_flash_ex.c **** 
 1188              		.loc 1 602 1 is_stmt 0 view .LVU364
 1189              		@ sp needed
 1190 0016 10BD     		pop	{r4, pc}
 1191              	.LVL123:
 1192              	.L74:
 591:Drivers/STM32L0xx_HAL_Driver/Src/stm32l0xx_hal_flash_ex.c **** 
 1193              		.loc 1 591 5 is_stmt 1 view .LVU365
 591:Drivers/STM32L0xx_HAL_Driver/Src/stm32l0xx_hal_flash_ex.c **** 
 1194              		.loc 1 591 22 is_stmt 0 view .LVU366
 1195 0018 064A     		ldr	r2, .L75+8
 1196 001a 0021     		movs	r1, #0
 1197 001c 5161     		str	r1, [r2, #20]
 594:Drivers/STM32L0xx_HAL_Driver/Src/stm32l0xx_hal_flash_ex.c ****     
 1198              		.loc 1 594 5 is_stmt 1 view .LVU367
ARM GAS  /tmp/ccd22iA4.s 			page 47


 594:Drivers/STM32L0xx_HAL_Driver/Src/stm32l0xx_hal_flash_ex.c ****     
 1199              		.loc 1 594 13 is_stmt 0 view .LVU368
 1200 001e 044A     		ldr	r2, .L75+4
 1201 0020 1360     		str	r3, [r2]
 597:Drivers/STM32L0xx_HAL_Driver/Src/stm32l0xx_hal_flash_ex.c ****   }
 1202              		.loc 1 597 5 is_stmt 1 view .LVU369
 597:Drivers/STM32L0xx_HAL_Driver/Src/stm32l0xx_hal_flash_ex.c ****   }
 1203              		.loc 1 597 14 is_stmt 0 view .LVU370
 1204 0022 0248     		ldr	r0, .L75
 1205              	.LVL124:
 597:Drivers/STM32L0xx_HAL_Driver/Src/stm32l0xx_hal_flash_ex.c ****   }
 1206              		.loc 1 597 14 view .LVU371
 1207 0024 FFF7FEFF 		bl	FLASH_WaitForLastOperation
 1208              	.LVL125:
 597:Drivers/STM32L0xx_HAL_Driver/Src/stm32l0xx_hal_flash_ex.c ****   }
 1209              		.loc 1 597 14 view .LVU372
 1210 0028 F5E7     		b	.L73
 1211              	.L76:
 1212 002a C046     		.align	2
 1213              	.L75:
 1214 002c 50C30000 		.word	50000
 1215 0030 0000F81F 		.word	536346624
 1216 0034 00000000 		.word	pFlash
 1217              		.cfi_endproc
 1218              	.LFE41:
 1220              		.section	.text.HAL_FLASHEx_DATAEEPROM_Unlock,"ax",%progbits
 1221              		.align	1
 1222              		.global	HAL_FLASHEx_DATAEEPROM_Unlock
 1223              		.syntax unified
 1224              		.code	16
 1225              		.thumb_func
 1227              	HAL_FLASHEx_DATAEEPROM_Unlock:
 1228              	.LFB42:
 635:Drivers/STM32L0xx_HAL_Driver/Src/stm32l0xx_hal_flash_ex.c ****   uint32_t primask_bit;
 1229              		.loc 1 635 1 is_stmt 1 view -0
 1230              		.cfi_startproc
 1231              		@ args = 0, pretend = 0, frame = 0
 1232              		@ frame_needed = 0, uses_anonymous_args = 0
 1233              		@ link register save eliminated.
 636:Drivers/STM32L0xx_HAL_Driver/Src/stm32l0xx_hal_flash_ex.c **** 
 1234              		.loc 1 636 3 view .LVU374
 638:Drivers/STM32L0xx_HAL_Driver/Src/stm32l0xx_hal_flash_ex.c ****   {  
 1235              		.loc 1 638 3 view .LVU375
 638:Drivers/STM32L0xx_HAL_Driver/Src/stm32l0xx_hal_flash_ex.c ****   {  
 1236              		.loc 1 638 12 is_stmt 0 view .LVU376
 1237 0000 0B4B     		ldr	r3, .L81
 1238 0002 5B68     		ldr	r3, [r3, #4]
 638:Drivers/STM32L0xx_HAL_Driver/Src/stm32l0xx_hal_flash_ex.c ****   {  
 1239              		.loc 1 638 5 view .LVU377
 1240 0004 DB07     		lsls	r3, r3, #31
 1241 0006 0ED5     		bpl	.L79
 641:Drivers/STM32L0xx_HAL_Driver/Src/stm32l0xx_hal_flash_ex.c ****     __disable_irq();
 1242              		.loc 1 641 5 is_stmt 1 view .LVU378
 1243              	.LBB8:
 1244              	.LBI8:
 1245              		.file 2 "Drivers/CMSIS/Include/cmsis_gcc.h"
   1:Drivers/CMSIS/Include/cmsis_gcc.h **** /**************************************************************************//**
ARM GAS  /tmp/ccd22iA4.s 			page 48


   2:Drivers/CMSIS/Include/cmsis_gcc.h ****  * @file     cmsis_gcc.h
   3:Drivers/CMSIS/Include/cmsis_gcc.h ****  * @brief    CMSIS Cortex-M Core Function/Instruction Header File
   4:Drivers/CMSIS/Include/cmsis_gcc.h ****  * @version  V4.30
   5:Drivers/CMSIS/Include/cmsis_gcc.h ****  * @date     20. October 2015
   6:Drivers/CMSIS/Include/cmsis_gcc.h ****  ******************************************************************************/
   7:Drivers/CMSIS/Include/cmsis_gcc.h **** /* Copyright (c) 2009 - 2015 ARM LIMITED
   8:Drivers/CMSIS/Include/cmsis_gcc.h **** 
   9:Drivers/CMSIS/Include/cmsis_gcc.h ****    All rights reserved.
  10:Drivers/CMSIS/Include/cmsis_gcc.h ****    Redistribution and use in source and binary forms, with or without
  11:Drivers/CMSIS/Include/cmsis_gcc.h ****    modification, are permitted provided that the following conditions are met:
  12:Drivers/CMSIS/Include/cmsis_gcc.h ****    - Redistributions of source code must retain the above copyright
  13:Drivers/CMSIS/Include/cmsis_gcc.h ****      notice, this list of conditions and the following disclaimer.
  14:Drivers/CMSIS/Include/cmsis_gcc.h ****    - Redistributions in binary form must reproduce the above copyright
  15:Drivers/CMSIS/Include/cmsis_gcc.h ****      notice, this list of conditions and the following disclaimer in the
  16:Drivers/CMSIS/Include/cmsis_gcc.h ****      documentation and/or other materials provided with the distribution.
  17:Drivers/CMSIS/Include/cmsis_gcc.h ****    - Neither the name of ARM nor the names of its contributors may be used
  18:Drivers/CMSIS/Include/cmsis_gcc.h ****      to endorse or promote products derived from this software without
  19:Drivers/CMSIS/Include/cmsis_gcc.h ****      specific prior written permission.
  20:Drivers/CMSIS/Include/cmsis_gcc.h ****    *
  21:Drivers/CMSIS/Include/cmsis_gcc.h ****    THIS SOFTWARE IS PROVIDED BY THE COPYRIGHT HOLDERS AND CONTRIBUTORS "AS IS"
  22:Drivers/CMSIS/Include/cmsis_gcc.h ****    AND ANY EXPRESS OR IMPLIED WARRANTIES, INCLUDING, BUT NOT LIMITED TO, THE
  23:Drivers/CMSIS/Include/cmsis_gcc.h ****    IMPLIED WARRANTIES OF MERCHANTABILITY AND FITNESS FOR A PARTICULAR PURPOSE
  24:Drivers/CMSIS/Include/cmsis_gcc.h ****    ARE DISCLAIMED. IN NO EVENT SHALL COPYRIGHT HOLDERS AND CONTRIBUTORS BE
  25:Drivers/CMSIS/Include/cmsis_gcc.h ****    LIABLE FOR ANY DIRECT, INDIRECT, INCIDENTAL, SPECIAL, EXEMPLARY, OR
  26:Drivers/CMSIS/Include/cmsis_gcc.h ****    CONSEQUENTIAL DAMAGES (INCLUDING, BUT NOT LIMITED TO, PROCUREMENT OF
  27:Drivers/CMSIS/Include/cmsis_gcc.h ****    SUBSTITUTE GOODS OR SERVICES; LOSS OF USE, DATA, OR PROFITS; OR BUSINESS
  28:Drivers/CMSIS/Include/cmsis_gcc.h ****    INTERRUPTION) HOWEVER CAUSED AND ON ANY THEORY OF LIABILITY, WHETHER IN
  29:Drivers/CMSIS/Include/cmsis_gcc.h ****    CONTRACT, STRICT LIABILITY, OR TORT (INCLUDING NEGLIGENCE OR OTHERWISE)
  30:Drivers/CMSIS/Include/cmsis_gcc.h ****    ARISING IN ANY WAY OUT OF THE USE OF THIS SOFTWARE, EVEN IF ADVISED OF THE
  31:Drivers/CMSIS/Include/cmsis_gcc.h ****    POSSIBILITY OF SUCH DAMAGE.
  32:Drivers/CMSIS/Include/cmsis_gcc.h ****    ---------------------------------------------------------------------------*/
  33:Drivers/CMSIS/Include/cmsis_gcc.h **** 
  34:Drivers/CMSIS/Include/cmsis_gcc.h **** 
  35:Drivers/CMSIS/Include/cmsis_gcc.h **** #ifndef __CMSIS_GCC_H
  36:Drivers/CMSIS/Include/cmsis_gcc.h **** #define __CMSIS_GCC_H
  37:Drivers/CMSIS/Include/cmsis_gcc.h **** 
  38:Drivers/CMSIS/Include/cmsis_gcc.h **** /* ignore some GCC warnings */
  39:Drivers/CMSIS/Include/cmsis_gcc.h **** #if defined ( __GNUC__ )
  40:Drivers/CMSIS/Include/cmsis_gcc.h **** #pragma GCC diagnostic push
  41:Drivers/CMSIS/Include/cmsis_gcc.h **** #pragma GCC diagnostic ignored "-Wsign-conversion"
  42:Drivers/CMSIS/Include/cmsis_gcc.h **** #pragma GCC diagnostic ignored "-Wconversion"
  43:Drivers/CMSIS/Include/cmsis_gcc.h **** #pragma GCC diagnostic ignored "-Wunused-parameter"
  44:Drivers/CMSIS/Include/cmsis_gcc.h **** #endif
  45:Drivers/CMSIS/Include/cmsis_gcc.h **** 
  46:Drivers/CMSIS/Include/cmsis_gcc.h **** 
  47:Drivers/CMSIS/Include/cmsis_gcc.h **** /* ###########################  Core Function Access  ########################### */
  48:Drivers/CMSIS/Include/cmsis_gcc.h **** /** \ingroup  CMSIS_Core_FunctionInterface
  49:Drivers/CMSIS/Include/cmsis_gcc.h ****     \defgroup CMSIS_Core_RegAccFunctions CMSIS Core Register Access Functions
  50:Drivers/CMSIS/Include/cmsis_gcc.h ****   @{
  51:Drivers/CMSIS/Include/cmsis_gcc.h ****  */
  52:Drivers/CMSIS/Include/cmsis_gcc.h **** 
  53:Drivers/CMSIS/Include/cmsis_gcc.h **** /**
  54:Drivers/CMSIS/Include/cmsis_gcc.h ****   \brief   Enable IRQ Interrupts
  55:Drivers/CMSIS/Include/cmsis_gcc.h ****   \details Enables IRQ interrupts by clearing the I-bit in the CPSR.
  56:Drivers/CMSIS/Include/cmsis_gcc.h ****            Can only be executed in Privileged modes.
  57:Drivers/CMSIS/Include/cmsis_gcc.h ****  */
  58:Drivers/CMSIS/Include/cmsis_gcc.h **** __attribute__( ( always_inline ) ) __STATIC_INLINE void __enable_irq(void)
ARM GAS  /tmp/ccd22iA4.s 			page 49


  59:Drivers/CMSIS/Include/cmsis_gcc.h **** {
  60:Drivers/CMSIS/Include/cmsis_gcc.h ****   __ASM volatile ("cpsie i" : : : "memory");
  61:Drivers/CMSIS/Include/cmsis_gcc.h **** }
  62:Drivers/CMSIS/Include/cmsis_gcc.h **** 
  63:Drivers/CMSIS/Include/cmsis_gcc.h **** 
  64:Drivers/CMSIS/Include/cmsis_gcc.h **** /**
  65:Drivers/CMSIS/Include/cmsis_gcc.h ****   \brief   Disable IRQ Interrupts
  66:Drivers/CMSIS/Include/cmsis_gcc.h ****   \details Disables IRQ interrupts by setting the I-bit in the CPSR.
  67:Drivers/CMSIS/Include/cmsis_gcc.h ****   Can only be executed in Privileged modes.
  68:Drivers/CMSIS/Include/cmsis_gcc.h ****  */
  69:Drivers/CMSIS/Include/cmsis_gcc.h **** __attribute__( ( always_inline ) ) __STATIC_INLINE void __disable_irq(void)
  70:Drivers/CMSIS/Include/cmsis_gcc.h **** {
  71:Drivers/CMSIS/Include/cmsis_gcc.h ****   __ASM volatile ("cpsid i" : : : "memory");
  72:Drivers/CMSIS/Include/cmsis_gcc.h **** }
  73:Drivers/CMSIS/Include/cmsis_gcc.h **** 
  74:Drivers/CMSIS/Include/cmsis_gcc.h **** 
  75:Drivers/CMSIS/Include/cmsis_gcc.h **** /**
  76:Drivers/CMSIS/Include/cmsis_gcc.h ****   \brief   Get Control Register
  77:Drivers/CMSIS/Include/cmsis_gcc.h ****   \details Returns the content of the Control Register.
  78:Drivers/CMSIS/Include/cmsis_gcc.h ****   \return               Control Register value
  79:Drivers/CMSIS/Include/cmsis_gcc.h ****  */
  80:Drivers/CMSIS/Include/cmsis_gcc.h **** __attribute__( ( always_inline ) ) __STATIC_INLINE uint32_t __get_CONTROL(void)
  81:Drivers/CMSIS/Include/cmsis_gcc.h **** {
  82:Drivers/CMSIS/Include/cmsis_gcc.h ****   uint32_t result;
  83:Drivers/CMSIS/Include/cmsis_gcc.h **** 
  84:Drivers/CMSIS/Include/cmsis_gcc.h ****   __ASM volatile ("MRS %0, control" : "=r" (result) );
  85:Drivers/CMSIS/Include/cmsis_gcc.h ****   return(result);
  86:Drivers/CMSIS/Include/cmsis_gcc.h **** }
  87:Drivers/CMSIS/Include/cmsis_gcc.h **** 
  88:Drivers/CMSIS/Include/cmsis_gcc.h **** 
  89:Drivers/CMSIS/Include/cmsis_gcc.h **** /**
  90:Drivers/CMSIS/Include/cmsis_gcc.h ****   \brief   Set Control Register
  91:Drivers/CMSIS/Include/cmsis_gcc.h ****   \details Writes the given value to the Control Register.
  92:Drivers/CMSIS/Include/cmsis_gcc.h ****   \param [in]    control  Control Register value to set
  93:Drivers/CMSIS/Include/cmsis_gcc.h ****  */
  94:Drivers/CMSIS/Include/cmsis_gcc.h **** __attribute__( ( always_inline ) ) __STATIC_INLINE void __set_CONTROL(uint32_t control)
  95:Drivers/CMSIS/Include/cmsis_gcc.h **** {
  96:Drivers/CMSIS/Include/cmsis_gcc.h ****   __ASM volatile ("MSR control, %0" : : "r" (control) : "memory");
  97:Drivers/CMSIS/Include/cmsis_gcc.h **** }
  98:Drivers/CMSIS/Include/cmsis_gcc.h **** 
  99:Drivers/CMSIS/Include/cmsis_gcc.h **** 
 100:Drivers/CMSIS/Include/cmsis_gcc.h **** /**
 101:Drivers/CMSIS/Include/cmsis_gcc.h ****   \brief   Get IPSR Register
 102:Drivers/CMSIS/Include/cmsis_gcc.h ****   \details Returns the content of the IPSR Register.
 103:Drivers/CMSIS/Include/cmsis_gcc.h ****   \return               IPSR Register value
 104:Drivers/CMSIS/Include/cmsis_gcc.h ****  */
 105:Drivers/CMSIS/Include/cmsis_gcc.h **** __attribute__( ( always_inline ) ) __STATIC_INLINE uint32_t __get_IPSR(void)
 106:Drivers/CMSIS/Include/cmsis_gcc.h **** {
 107:Drivers/CMSIS/Include/cmsis_gcc.h ****   uint32_t result;
 108:Drivers/CMSIS/Include/cmsis_gcc.h **** 
 109:Drivers/CMSIS/Include/cmsis_gcc.h ****   __ASM volatile ("MRS %0, ipsr" : "=r" (result) );
 110:Drivers/CMSIS/Include/cmsis_gcc.h ****   return(result);
 111:Drivers/CMSIS/Include/cmsis_gcc.h **** }
 112:Drivers/CMSIS/Include/cmsis_gcc.h **** 
 113:Drivers/CMSIS/Include/cmsis_gcc.h **** 
 114:Drivers/CMSIS/Include/cmsis_gcc.h **** /**
 115:Drivers/CMSIS/Include/cmsis_gcc.h ****   \brief   Get APSR Register
ARM GAS  /tmp/ccd22iA4.s 			page 50


 116:Drivers/CMSIS/Include/cmsis_gcc.h ****   \details Returns the content of the APSR Register.
 117:Drivers/CMSIS/Include/cmsis_gcc.h ****   \return               APSR Register value
 118:Drivers/CMSIS/Include/cmsis_gcc.h ****  */
 119:Drivers/CMSIS/Include/cmsis_gcc.h **** __attribute__( ( always_inline ) ) __STATIC_INLINE uint32_t __get_APSR(void)
 120:Drivers/CMSIS/Include/cmsis_gcc.h **** {
 121:Drivers/CMSIS/Include/cmsis_gcc.h ****   uint32_t result;
 122:Drivers/CMSIS/Include/cmsis_gcc.h **** 
 123:Drivers/CMSIS/Include/cmsis_gcc.h ****   __ASM volatile ("MRS %0, apsr" : "=r" (result) );
 124:Drivers/CMSIS/Include/cmsis_gcc.h ****   return(result);
 125:Drivers/CMSIS/Include/cmsis_gcc.h **** }
 126:Drivers/CMSIS/Include/cmsis_gcc.h **** 
 127:Drivers/CMSIS/Include/cmsis_gcc.h **** 
 128:Drivers/CMSIS/Include/cmsis_gcc.h **** /**
 129:Drivers/CMSIS/Include/cmsis_gcc.h ****   \brief   Get xPSR Register
 130:Drivers/CMSIS/Include/cmsis_gcc.h ****   \details Returns the content of the xPSR Register.
 131:Drivers/CMSIS/Include/cmsis_gcc.h **** 
 132:Drivers/CMSIS/Include/cmsis_gcc.h ****     \return               xPSR Register value
 133:Drivers/CMSIS/Include/cmsis_gcc.h ****  */
 134:Drivers/CMSIS/Include/cmsis_gcc.h **** __attribute__( ( always_inline ) ) __STATIC_INLINE uint32_t __get_xPSR(void)
 135:Drivers/CMSIS/Include/cmsis_gcc.h **** {
 136:Drivers/CMSIS/Include/cmsis_gcc.h ****   uint32_t result;
 137:Drivers/CMSIS/Include/cmsis_gcc.h **** 
 138:Drivers/CMSIS/Include/cmsis_gcc.h ****   __ASM volatile ("MRS %0, xpsr" : "=r" (result) );
 139:Drivers/CMSIS/Include/cmsis_gcc.h ****   return(result);
 140:Drivers/CMSIS/Include/cmsis_gcc.h **** }
 141:Drivers/CMSIS/Include/cmsis_gcc.h **** 
 142:Drivers/CMSIS/Include/cmsis_gcc.h **** 
 143:Drivers/CMSIS/Include/cmsis_gcc.h **** /**
 144:Drivers/CMSIS/Include/cmsis_gcc.h ****   \brief   Get Process Stack Pointer
 145:Drivers/CMSIS/Include/cmsis_gcc.h ****   \details Returns the current value of the Process Stack Pointer (PSP).
 146:Drivers/CMSIS/Include/cmsis_gcc.h ****   \return               PSP Register value
 147:Drivers/CMSIS/Include/cmsis_gcc.h ****  */
 148:Drivers/CMSIS/Include/cmsis_gcc.h **** __attribute__( ( always_inline ) ) __STATIC_INLINE uint32_t __get_PSP(void)
 149:Drivers/CMSIS/Include/cmsis_gcc.h **** {
 150:Drivers/CMSIS/Include/cmsis_gcc.h ****   register uint32_t result;
 151:Drivers/CMSIS/Include/cmsis_gcc.h **** 
 152:Drivers/CMSIS/Include/cmsis_gcc.h ****   __ASM volatile ("MRS %0, psp\n"  : "=r" (result) );
 153:Drivers/CMSIS/Include/cmsis_gcc.h ****   return(result);
 154:Drivers/CMSIS/Include/cmsis_gcc.h **** }
 155:Drivers/CMSIS/Include/cmsis_gcc.h **** 
 156:Drivers/CMSIS/Include/cmsis_gcc.h **** 
 157:Drivers/CMSIS/Include/cmsis_gcc.h **** /**
 158:Drivers/CMSIS/Include/cmsis_gcc.h ****   \brief   Set Process Stack Pointer
 159:Drivers/CMSIS/Include/cmsis_gcc.h ****   \details Assigns the given value to the Process Stack Pointer (PSP).
 160:Drivers/CMSIS/Include/cmsis_gcc.h ****   \param [in]    topOfProcStack  Process Stack Pointer value to set
 161:Drivers/CMSIS/Include/cmsis_gcc.h ****  */
 162:Drivers/CMSIS/Include/cmsis_gcc.h **** __attribute__( ( always_inline ) ) __STATIC_INLINE void __set_PSP(uint32_t topOfProcStack)
 163:Drivers/CMSIS/Include/cmsis_gcc.h **** {
 164:Drivers/CMSIS/Include/cmsis_gcc.h ****   __ASM volatile ("MSR psp, %0\n" : : "r" (topOfProcStack) : "sp");
 165:Drivers/CMSIS/Include/cmsis_gcc.h **** }
 166:Drivers/CMSIS/Include/cmsis_gcc.h **** 
 167:Drivers/CMSIS/Include/cmsis_gcc.h **** 
 168:Drivers/CMSIS/Include/cmsis_gcc.h **** /**
 169:Drivers/CMSIS/Include/cmsis_gcc.h ****   \brief   Get Main Stack Pointer
 170:Drivers/CMSIS/Include/cmsis_gcc.h ****   \details Returns the current value of the Main Stack Pointer (MSP).
 171:Drivers/CMSIS/Include/cmsis_gcc.h ****   \return               MSP Register value
 172:Drivers/CMSIS/Include/cmsis_gcc.h ****  */
ARM GAS  /tmp/ccd22iA4.s 			page 51


 173:Drivers/CMSIS/Include/cmsis_gcc.h **** __attribute__( ( always_inline ) ) __STATIC_INLINE uint32_t __get_MSP(void)
 174:Drivers/CMSIS/Include/cmsis_gcc.h **** {
 175:Drivers/CMSIS/Include/cmsis_gcc.h ****   register uint32_t result;
 176:Drivers/CMSIS/Include/cmsis_gcc.h **** 
 177:Drivers/CMSIS/Include/cmsis_gcc.h ****   __ASM volatile ("MRS %0, msp\n" : "=r" (result) );
 178:Drivers/CMSIS/Include/cmsis_gcc.h ****   return(result);
 179:Drivers/CMSIS/Include/cmsis_gcc.h **** }
 180:Drivers/CMSIS/Include/cmsis_gcc.h **** 
 181:Drivers/CMSIS/Include/cmsis_gcc.h **** 
 182:Drivers/CMSIS/Include/cmsis_gcc.h **** /**
 183:Drivers/CMSIS/Include/cmsis_gcc.h ****   \brief   Set Main Stack Pointer
 184:Drivers/CMSIS/Include/cmsis_gcc.h ****   \details Assigns the given value to the Main Stack Pointer (MSP).
 185:Drivers/CMSIS/Include/cmsis_gcc.h **** 
 186:Drivers/CMSIS/Include/cmsis_gcc.h ****     \param [in]    topOfMainStack  Main Stack Pointer value to set
 187:Drivers/CMSIS/Include/cmsis_gcc.h ****  */
 188:Drivers/CMSIS/Include/cmsis_gcc.h **** __attribute__( ( always_inline ) ) __STATIC_INLINE void __set_MSP(uint32_t topOfMainStack)
 189:Drivers/CMSIS/Include/cmsis_gcc.h **** {
 190:Drivers/CMSIS/Include/cmsis_gcc.h ****   __ASM volatile ("MSR msp, %0\n" : : "r" (topOfMainStack) : "sp");
 191:Drivers/CMSIS/Include/cmsis_gcc.h **** }
 192:Drivers/CMSIS/Include/cmsis_gcc.h **** 
 193:Drivers/CMSIS/Include/cmsis_gcc.h **** 
 194:Drivers/CMSIS/Include/cmsis_gcc.h **** /**
 195:Drivers/CMSIS/Include/cmsis_gcc.h ****   \brief   Get Priority Mask
 196:Drivers/CMSIS/Include/cmsis_gcc.h ****   \details Returns the current state of the priority mask bit from the Priority Mask Register.
 197:Drivers/CMSIS/Include/cmsis_gcc.h ****   \return               Priority Mask value
 198:Drivers/CMSIS/Include/cmsis_gcc.h ****  */
 199:Drivers/CMSIS/Include/cmsis_gcc.h **** __attribute__( ( always_inline ) ) __STATIC_INLINE uint32_t __get_PRIMASK(void)
 1246              		.loc 2 199 61 view .LVU379
 1247              	.LBB9:
 200:Drivers/CMSIS/Include/cmsis_gcc.h **** {
 201:Drivers/CMSIS/Include/cmsis_gcc.h ****   uint32_t result;
 1248              		.loc 2 201 3 view .LVU380
 202:Drivers/CMSIS/Include/cmsis_gcc.h **** 
 203:Drivers/CMSIS/Include/cmsis_gcc.h ****   __ASM volatile ("MRS %0, primask" : "=r" (result) );
 1249              		.loc 2 203 3 view .LVU381
 1250              		.syntax divided
 1251              	@ 203 "Drivers/CMSIS/Include/cmsis_gcc.h" 1
 1252 0008 EFF31082 		MRS r2, primask
 1253              	@ 0 "" 2
 1254              	.LVL126:
 204:Drivers/CMSIS/Include/cmsis_gcc.h ****   return(result);
 1255              		.loc 2 204 3 view .LVU382
 1256              		.loc 2 204 3 is_stmt 0 view .LVU383
 1257              		.thumb
 1258              		.syntax unified
 1259              	.LBE9:
 1260              	.LBE8:
 642:Drivers/STM32L0xx_HAL_Driver/Src/stm32l0xx_hal_flash_ex.c **** 
 1261              		.loc 1 642 5 is_stmt 1 view .LVU384
 1262              	.LBB10:
 1263              	.LBI10:
  69:Drivers/CMSIS/Include/cmsis_gcc.h **** {
 1264              		.loc 2 69 57 view .LVU385
 1265              	.LBB11:
  71:Drivers/CMSIS/Include/cmsis_gcc.h **** }
 1266              		.loc 2 71 3 view .LVU386
 1267              		.syntax divided
ARM GAS  /tmp/ccd22iA4.s 			page 52


 1268              	@ 71 "Drivers/CMSIS/Include/cmsis_gcc.h" 1
 1269 000c 72B6     		cpsid i
 1270              	@ 0 "" 2
 1271              		.thumb
 1272              		.syntax unified
 1273              	.LBE11:
 1274              	.LBE10:
 645:Drivers/STM32L0xx_HAL_Driver/Src/stm32l0xx_hal_flash_ex.c ****     FLASH->PEKEYR = FLASH_PEKEY2;
 1275              		.loc 1 645 5 view .LVU387
 645:Drivers/STM32L0xx_HAL_Driver/Src/stm32l0xx_hal_flash_ex.c ****     FLASH->PEKEYR = FLASH_PEKEY2;
 1276              		.loc 1 645 19 is_stmt 0 view .LVU388
 1277 000e 084B     		ldr	r3, .L81
 1278 0010 0849     		ldr	r1, .L81+4
 1279 0012 D960     		str	r1, [r3, #12]
 646:Drivers/STM32L0xx_HAL_Driver/Src/stm32l0xx_hal_flash_ex.c **** 
 1280              		.loc 1 646 5 is_stmt 1 view .LVU389
 646:Drivers/STM32L0xx_HAL_Driver/Src/stm32l0xx_hal_flash_ex.c **** 
 1281              		.loc 1 646 19 is_stmt 0 view .LVU390
 1282 0014 0849     		ldr	r1, .L81+8
 1283 0016 D960     		str	r1, [r3, #12]
 649:Drivers/STM32L0xx_HAL_Driver/Src/stm32l0xx_hal_flash_ex.c **** 
 1284              		.loc 1 649 5 is_stmt 1 view .LVU391
 1285              	.LVL127:
 1286              	.LBB12:
 1287              	.LBI12:
 205:Drivers/CMSIS/Include/cmsis_gcc.h **** }
 206:Drivers/CMSIS/Include/cmsis_gcc.h **** 
 207:Drivers/CMSIS/Include/cmsis_gcc.h **** 
 208:Drivers/CMSIS/Include/cmsis_gcc.h **** /**
 209:Drivers/CMSIS/Include/cmsis_gcc.h ****   \brief   Set Priority Mask
 210:Drivers/CMSIS/Include/cmsis_gcc.h ****   \details Assigns the given value to the Priority Mask Register.
 211:Drivers/CMSIS/Include/cmsis_gcc.h ****   \param [in]    priMask  Priority Mask
 212:Drivers/CMSIS/Include/cmsis_gcc.h ****  */
 213:Drivers/CMSIS/Include/cmsis_gcc.h **** __attribute__( ( always_inline ) ) __STATIC_INLINE void __set_PRIMASK(uint32_t priMask)
 1288              		.loc 2 213 57 view .LVU392
 1289              	.LBB13:
 214:Drivers/CMSIS/Include/cmsis_gcc.h **** {
 215:Drivers/CMSIS/Include/cmsis_gcc.h ****   __ASM volatile ("MSR primask, %0" : : "r" (priMask) : "memory");
 1290              		.loc 2 215 3 view .LVU393
 1291              		.syntax divided
 1292              	@ 215 "Drivers/CMSIS/Include/cmsis_gcc.h" 1
 1293 0018 82F31088 		MSR primask, r2
 1294              	@ 0 "" 2
 1295              	.LVL128:
 1296              		.loc 2 215 3 is_stmt 0 view .LVU394
 1297              		.thumb
 1298              		.syntax unified
 1299              	.LBE13:
 1300              	.LBE12:
 651:Drivers/STM32L0xx_HAL_Driver/Src/stm32l0xx_hal_flash_ex.c ****     {
 1301              		.loc 1 651 5 is_stmt 1 view .LVU395
 651:Drivers/STM32L0xx_HAL_Driver/Src/stm32l0xx_hal_flash_ex.c ****     {
 1302              		.loc 1 651 14 is_stmt 0 view .LVU396
 1303 001c 5B68     		ldr	r3, [r3, #4]
 651:Drivers/STM32L0xx_HAL_Driver/Src/stm32l0xx_hal_flash_ex.c ****     {
 1304              		.loc 1 651 7 view .LVU397
 1305 001e DB07     		lsls	r3, r3, #31
ARM GAS  /tmp/ccd22iA4.s 			page 53


 1306 0020 03D4     		bmi	.L80
 657:Drivers/STM32L0xx_HAL_Driver/Src/stm32l0xx_hal_flash_ex.c **** }
 1307              		.loc 1 657 10 view .LVU398
 1308 0022 0020     		movs	r0, #0
 1309 0024 00E0     		b	.L78
 1310              	.LVL129:
 1311              	.L79:
 657:Drivers/STM32L0xx_HAL_Driver/Src/stm32l0xx_hal_flash_ex.c **** }
 1312              		.loc 1 657 10 view .LVU399
 1313 0026 0020     		movs	r0, #0
 1314              	.L78:
 658:Drivers/STM32L0xx_HAL_Driver/Src/stm32l0xx_hal_flash_ex.c **** 
 1315              		.loc 1 658 1 view .LVU400
 1316              		@ sp needed
 1317 0028 7047     		bx	lr
 1318              	.LVL130:
 1319              	.L80:
 653:Drivers/STM32L0xx_HAL_Driver/Src/stm32l0xx_hal_flash_ex.c ****     }
 1320              		.loc 1 653 14 view .LVU401
 1321 002a 0120     		movs	r0, #1
 1322 002c FCE7     		b	.L78
 1323              	.L82:
 1324 002e C046     		.align	2
 1325              	.L81:
 1326 0030 00200240 		.word	1073881088
 1327 0034 EFCDAB89 		.word	-1985229329
 1328 0038 05040302 		.word	33752069
 1329              		.cfi_endproc
 1330              	.LFE42:
 1332              		.section	.text.HAL_FLASHEx_DATAEEPROM_Lock,"ax",%progbits
 1333              		.align	1
 1334              		.global	HAL_FLASHEx_DATAEEPROM_Lock
 1335              		.syntax unified
 1336              		.code	16
 1337              		.thumb_func
 1339              	HAL_FLASHEx_DATAEEPROM_Lock:
 1340              	.LFB43:
 665:Drivers/STM32L0xx_HAL_Driver/Src/stm32l0xx_hal_flash_ex.c ****   /* Set the PELOCK Bit to lock the data memory and FLASH_PECR register access */
 1341              		.loc 1 665 1 is_stmt 1 view -0
 1342              		.cfi_startproc
 1343              		@ args = 0, pretend = 0, frame = 0
 1344              		@ frame_needed = 0, uses_anonymous_args = 0
 1345              		@ link register save eliminated.
 667:Drivers/STM32L0xx_HAL_Driver/Src/stm32l0xx_hal_flash_ex.c ****   
 1346              		.loc 1 667 3 view .LVU403
 1347 0000 034A     		ldr	r2, .L84
 1348 0002 5368     		ldr	r3, [r2, #4]
 1349 0004 0121     		movs	r1, #1
 1350 0006 0B43     		orrs	r3, r1
 1351 0008 5360     		str	r3, [r2, #4]
 669:Drivers/STM32L0xx_HAL_Driver/Src/stm32l0xx_hal_flash_ex.c **** }
 1352              		.loc 1 669 3 view .LVU404
 670:Drivers/STM32L0xx_HAL_Driver/Src/stm32l0xx_hal_flash_ex.c **** 
 1353              		.loc 1 670 1 is_stmt 0 view .LVU405
 1354 000a 0020     		movs	r0, #0
 1355              		@ sp needed
 1356 000c 7047     		bx	lr
ARM GAS  /tmp/ccd22iA4.s 			page 54


 1357              	.L85:
 1358 000e C046     		.align	2
 1359              	.L84:
 1360 0010 00200240 		.word	1073881088
 1361              		.cfi_endproc
 1362              	.LFE43:
 1364              		.section	.text.HAL_FLASHEx_DATAEEPROM_Erase,"ax",%progbits
 1365              		.align	1
 1366              		.global	HAL_FLASHEx_DATAEEPROM_Erase
 1367              		.syntax unified
 1368              		.code	16
 1369              		.thumb_func
 1371              	HAL_FLASHEx_DATAEEPROM_Erase:
 1372              	.LVL131:
 1373              	.LFB44:
 683:Drivers/STM32L0xx_HAL_Driver/Src/stm32l0xx_hal_flash_ex.c ****   HAL_StatusTypeDef status = HAL_OK;
 1374              		.loc 1 683 1 is_stmt 1 view -0
 1375              		.cfi_startproc
 1376              		@ args = 0, pretend = 0, frame = 0
 1377              		@ frame_needed = 0, uses_anonymous_args = 0
 683:Drivers/STM32L0xx_HAL_Driver/Src/stm32l0xx_hal_flash_ex.c ****   HAL_StatusTypeDef status = HAL_OK;
 1378              		.loc 1 683 1 is_stmt 0 view .LVU407
 1379 0000 10B5     		push	{r4, lr}
 1380              	.LCFI10:
 1381              		.cfi_def_cfa_offset 8
 1382              		.cfi_offset 4, -8
 1383              		.cfi_offset 14, -4
 1384 0002 0400     		movs	r4, r0
 684:Drivers/STM32L0xx_HAL_Driver/Src/stm32l0xx_hal_flash_ex.c ****   
 1385              		.loc 1 684 3 is_stmt 1 view .LVU408
 1386              	.LVL132:
 687:Drivers/STM32L0xx_HAL_Driver/Src/stm32l0xx_hal_flash_ex.c ****   
 1387              		.loc 1 687 3 view .LVU409
 690:Drivers/STM32L0xx_HAL_Driver/Src/stm32l0xx_hal_flash_ex.c ****   
 1388              		.loc 1 690 3 view .LVU410
 690:Drivers/STM32L0xx_HAL_Driver/Src/stm32l0xx_hal_flash_ex.c ****   
 1389              		.loc 1 690 12 is_stmt 0 view .LVU411
 1390 0004 0648     		ldr	r0, .L89
 1391              	.LVL133:
 690:Drivers/STM32L0xx_HAL_Driver/Src/stm32l0xx_hal_flash_ex.c ****   
 1392              		.loc 1 690 12 view .LVU412
 1393 0006 FFF7FEFF 		bl	FLASH_WaitForLastOperation
 1394              	.LVL134:
 692:Drivers/STM32L0xx_HAL_Driver/Src/stm32l0xx_hal_flash_ex.c ****   {
 1395              		.loc 1 692 3 is_stmt 1 view .LVU413
 692:Drivers/STM32L0xx_HAL_Driver/Src/stm32l0xx_hal_flash_ex.c ****   {
 1396              		.loc 1 692 5 is_stmt 0 view .LVU414
 1397 000a 0028     		cmp	r0, #0
 1398 000c 00D0     		beq	.L88
 1399              	.LVL135:
 1400              	.L87:
 704:Drivers/STM32L0xx_HAL_Driver/Src/stm32l0xx_hal_flash_ex.c **** }  
 1401              		.loc 1 704 3 is_stmt 1 view .LVU415
 705:Drivers/STM32L0xx_HAL_Driver/Src/stm32l0xx_hal_flash_ex.c **** 
 1402              		.loc 1 705 1 is_stmt 0 view .LVU416
 1403              		@ sp needed
 1404              	.LVL136:
ARM GAS  /tmp/ccd22iA4.s 			page 55


 705:Drivers/STM32L0xx_HAL_Driver/Src/stm32l0xx_hal_flash_ex.c **** 
 1405              		.loc 1 705 1 view .LVU417
 1406 000e 10BD     		pop	{r4, pc}
 1407              	.LVL137:
 1408              	.L88:
 695:Drivers/STM32L0xx_HAL_Driver/Src/stm32l0xx_hal_flash_ex.c **** 
 1409              		.loc 1 695 5 is_stmt 1 view .LVU418
 695:Drivers/STM32L0xx_HAL_Driver/Src/stm32l0xx_hal_flash_ex.c **** 
 1410              		.loc 1 695 22 is_stmt 0 view .LVU419
 1411 0010 0023     		movs	r3, #0
 1412 0012 044A     		ldr	r2, .L89+4
 1413 0014 5361     		str	r3, [r2, #20]
 698:Drivers/STM32L0xx_HAL_Driver/Src/stm32l0xx_hal_flash_ex.c **** 
 1414              		.loc 1 698 7 is_stmt 1 view .LVU420
 698:Drivers/STM32L0xx_HAL_Driver/Src/stm32l0xx_hal_flash_ex.c **** 
 1415              		.loc 1 698 34 is_stmt 0 view .LVU421
 1416 0016 2360     		str	r3, [r4]
 700:Drivers/STM32L0xx_HAL_Driver/Src/stm32l0xx_hal_flash_ex.c ****   }
 1417              		.loc 1 700 5 is_stmt 1 view .LVU422
 700:Drivers/STM32L0xx_HAL_Driver/Src/stm32l0xx_hal_flash_ex.c ****   }
 1418              		.loc 1 700 14 is_stmt 0 view .LVU423
 1419 0018 0148     		ldr	r0, .L89
 1420              	.LVL138:
 700:Drivers/STM32L0xx_HAL_Driver/Src/stm32l0xx_hal_flash_ex.c ****   }
 1421              		.loc 1 700 14 view .LVU424
 1422 001a FFF7FEFF 		bl	FLASH_WaitForLastOperation
 1423              	.LVL139:
 700:Drivers/STM32L0xx_HAL_Driver/Src/stm32l0xx_hal_flash_ex.c ****   }
 1424              		.loc 1 700 14 view .LVU425
 1425 001e F6E7     		b	.L87
 1426              	.L90:
 1427              		.align	2
 1428              	.L89:
 1429 0020 50C30000 		.word	50000
 1430 0024 00000000 		.word	pFlash
 1431              		.cfi_endproc
 1432              	.LFE44:
 1434              		.section	.text.HAL_FLASHEx_DATAEEPROM_Program,"ax",%progbits
 1435              		.align	1
 1436              		.global	HAL_FLASHEx_DATAEEPROM_Program
 1437              		.syntax unified
 1438              		.code	16
 1439              		.thumb_func
 1441              	HAL_FLASHEx_DATAEEPROM_Program:
 1442              	.LVL140:
 1443              	.LFB45:
 725:Drivers/STM32L0xx_HAL_Driver/Src/stm32l0xx_hal_flash_ex.c ****   HAL_StatusTypeDef status = HAL_ERROR;
 1444              		.loc 1 725 1 is_stmt 1 view -0
 1445              		.cfi_startproc
 1446              		@ args = 0, pretend = 0, frame = 0
 1447              		@ frame_needed = 0, uses_anonymous_args = 0
 725:Drivers/STM32L0xx_HAL_Driver/Src/stm32l0xx_hal_flash_ex.c ****   HAL_StatusTypeDef status = HAL_ERROR;
 1448              		.loc 1 725 1 is_stmt 0 view .LVU427
 1449 0000 70B5     		push	{r4, r5, r6, lr}
 1450              	.LCFI11:
 1451              		.cfi_def_cfa_offset 16
 1452              		.cfi_offset 4, -16
ARM GAS  /tmp/ccd22iA4.s 			page 56


 1453              		.cfi_offset 5, -12
 1454              		.cfi_offset 6, -8
 1455              		.cfi_offset 14, -4
 1456 0002 0600     		movs	r6, r0
 1457 0004 0D00     		movs	r5, r1
 1458 0006 1400     		movs	r4, r2
 726:Drivers/STM32L0xx_HAL_Driver/Src/stm32l0xx_hal_flash_ex.c ****   
 1459              		.loc 1 726 3 is_stmt 1 view .LVU428
 1460              	.LVL141:
 729:Drivers/STM32L0xx_HAL_Driver/Src/stm32l0xx_hal_flash_ex.c **** 
 1461              		.loc 1 729 3 view .LVU429
 729:Drivers/STM32L0xx_HAL_Driver/Src/stm32l0xx_hal_flash_ex.c **** 
 1462              		.loc 1 729 3 view .LVU430
 1463 0008 124B     		ldr	r3, .L101
 1464 000a 1B7C     		ldrb	r3, [r3, #16]
 1465 000c 012B     		cmp	r3, #1
 1466 000e 1FD0     		beq	.L97
 729:Drivers/STM32L0xx_HAL_Driver/Src/stm32l0xx_hal_flash_ex.c **** 
 1467              		.loc 1 729 3 discriminator 2 view .LVU431
 1468 0010 104B     		ldr	r3, .L101
 1469 0012 0122     		movs	r2, #1
 1470              	.LVL142:
 729:Drivers/STM32L0xx_HAL_Driver/Src/stm32l0xx_hal_flash_ex.c **** 
 1471              		.loc 1 729 3 is_stmt 0 discriminator 2 view .LVU432
 1472 0014 1A74     		strb	r2, [r3, #16]
 729:Drivers/STM32L0xx_HAL_Driver/Src/stm32l0xx_hal_flash_ex.c **** 
 1473              		.loc 1 729 3 is_stmt 1 discriminator 2 view .LVU433
 732:Drivers/STM32L0xx_HAL_Driver/Src/stm32l0xx_hal_flash_ex.c ****   assert_param(IS_FLASH_DATA_ADDRESS(Address));
 1474              		.loc 1 732 3 discriminator 2 view .LVU434
 733:Drivers/STM32L0xx_HAL_Driver/Src/stm32l0xx_hal_flash_ex.c **** 
 1475              		.loc 1 733 3 discriminator 2 view .LVU435
 736:Drivers/STM32L0xx_HAL_Driver/Src/stm32l0xx_hal_flash_ex.c ****   
 1476              		.loc 1 736 3 discriminator 2 view .LVU436
 736:Drivers/STM32L0xx_HAL_Driver/Src/stm32l0xx_hal_flash_ex.c ****   
 1477              		.loc 1 736 12 is_stmt 0 discriminator 2 view .LVU437
 1478 0016 1048     		ldr	r0, .L101+4
 1479              	.LVL143:
 736:Drivers/STM32L0xx_HAL_Driver/Src/stm32l0xx_hal_flash_ex.c ****   
 1480              		.loc 1 736 12 discriminator 2 view .LVU438
 1481 0018 FFF7FEFF 		bl	FLASH_WaitForLastOperation
 1482              	.LVL144:
 738:Drivers/STM32L0xx_HAL_Driver/Src/stm32l0xx_hal_flash_ex.c ****   {
 1483              		.loc 1 738 3 is_stmt 1 discriminator 2 view .LVU439
 738:Drivers/STM32L0xx_HAL_Driver/Src/stm32l0xx_hal_flash_ex.c ****   {
 1484              		.loc 1 738 5 is_stmt 0 discriminator 2 view .LVU440
 1485 001c 0028     		cmp	r0, #0
 1486 001e 0CD1     		bne	.L93
 741:Drivers/STM32L0xx_HAL_Driver/Src/stm32l0xx_hal_flash_ex.c **** 
 1487              		.loc 1 741 5 is_stmt 1 view .LVU441
 741:Drivers/STM32L0xx_HAL_Driver/Src/stm32l0xx_hal_flash_ex.c **** 
 1488              		.loc 1 741 22 is_stmt 0 view .LVU442
 1489 0020 0C4B     		ldr	r3, .L101
 1490 0022 0022     		movs	r2, #0
 1491 0024 5A61     		str	r2, [r3, #20]
 743:Drivers/STM32L0xx_HAL_Driver/Src/stm32l0xx_hal_flash_ex.c ****     {
 1492              		.loc 1 743 5 is_stmt 1 view .LVU443
 743:Drivers/STM32L0xx_HAL_Driver/Src/stm32l0xx_hal_flash_ex.c ****     {
ARM GAS  /tmp/ccd22iA4.s 			page 57


 1493              		.loc 1 743 7 is_stmt 0 view .LVU444
 1494 0026 022E     		cmp	r6, #2
 1495 0028 06D0     		beq	.L98
 748:Drivers/STM32L0xx_HAL_Driver/Src/stm32l0xx_hal_flash_ex.c ****     {
 1496              		.loc 1 748 10 is_stmt 1 view .LVU445
 748:Drivers/STM32L0xx_HAL_Driver/Src/stm32l0xx_hal_flash_ex.c ****     {
 1497              		.loc 1 748 12 is_stmt 0 view .LVU446
 1498 002a 012E     		cmp	r6, #1
 1499 002c 09D0     		beq	.L99
 753:Drivers/STM32L0xx_HAL_Driver/Src/stm32l0xx_hal_flash_ex.c ****     {
 1500              		.loc 1 753 10 is_stmt 1 view .LVU447
 753:Drivers/STM32L0xx_HAL_Driver/Src/stm32l0xx_hal_flash_ex.c ****     {
 1501              		.loc 1 753 12 is_stmt 0 view .LVU448
 1502 002e 002E     		cmp	r6, #0
 1503 0030 0AD1     		bne	.L100
 756:Drivers/STM32L0xx_HAL_Driver/Src/stm32l0xx_hal_flash_ex.c ****     }
 1504              		.loc 1 756 7 is_stmt 1 view .LVU449
 756:Drivers/STM32L0xx_HAL_Driver/Src/stm32l0xx_hal_flash_ex.c ****     }
 1505              		.loc 1 756 34 is_stmt 0 view .LVU450
 1506 0032 E4B2     		uxtb	r4, r4
 1507              	.LVL145:
 756:Drivers/STM32L0xx_HAL_Driver/Src/stm32l0xx_hal_flash_ex.c ****     }
 1508              		.loc 1 756 32 view .LVU451
 1509 0034 2C70     		strb	r4, [r5]
 1510 0036 00E0     		b	.L93
 1511              	.LVL146:
 1512              	.L98:
 746:Drivers/STM32L0xx_HAL_Driver/Src/stm32l0xx_hal_flash_ex.c ****     }
 1513              		.loc 1 746 7 is_stmt 1 view .LVU452
 746:Drivers/STM32L0xx_HAL_Driver/Src/stm32l0xx_hal_flash_ex.c ****     }
 1514              		.loc 1 746 33 is_stmt 0 view .LVU453
 1515 0038 2C60     		str	r4, [r5]
 1516              	.LVL147:
 1517              	.L93:
 771:Drivers/STM32L0xx_HAL_Driver/Src/stm32l0xx_hal_flash_ex.c **** 
 1518              		.loc 1 771 3 is_stmt 1 view .LVU454
 771:Drivers/STM32L0xx_HAL_Driver/Src/stm32l0xx_hal_flash_ex.c **** 
 1519              		.loc 1 771 3 view .LVU455
 1520 003a 064B     		ldr	r3, .L101
 1521 003c 0022     		movs	r2, #0
 1522 003e 1A74     		strb	r2, [r3, #16]
 771:Drivers/STM32L0xx_HAL_Driver/Src/stm32l0xx_hal_flash_ex.c **** 
 1523              		.loc 1 771 3 view .LVU456
 773:Drivers/STM32L0xx_HAL_Driver/Src/stm32l0xx_hal_flash_ex.c **** }
 1524              		.loc 1 773 3 view .LVU457
 1525              	.LVL148:
 1526              	.L92:
 774:Drivers/STM32L0xx_HAL_Driver/Src/stm32l0xx_hal_flash_ex.c **** 
 1527              		.loc 1 774 1 is_stmt 0 view .LVU458
 1528              		@ sp needed
 1529              	.LVL149:
 1530              	.LVL150:
 774:Drivers/STM32L0xx_HAL_Driver/Src/stm32l0xx_hal_flash_ex.c **** 
 1531              		.loc 1 774 1 view .LVU459
 1532 0040 70BD     		pop	{r4, r5, r6, pc}
 1533              	.LVL151:
 1534              	.L99:
ARM GAS  /tmp/ccd22iA4.s 			page 58


 751:Drivers/STM32L0xx_HAL_Driver/Src/stm32l0xx_hal_flash_ex.c ****     }
 1535              		.loc 1 751 7 is_stmt 1 view .LVU460
 751:Drivers/STM32L0xx_HAL_Driver/Src/stm32l0xx_hal_flash_ex.c ****     }
 1536              		.loc 1 751 35 is_stmt 0 view .LVU461
 1537 0042 A4B2     		uxth	r4, r4
 1538              	.LVL152:
 751:Drivers/STM32L0xx_HAL_Driver/Src/stm32l0xx_hal_flash_ex.c ****     }
 1539              		.loc 1 751 33 view .LVU462
 1540 0044 2C80     		strh	r4, [r5]
 1541 0046 F8E7     		b	.L93
 1542              	.LVL153:
 1543              	.L100:
 763:Drivers/STM32L0xx_HAL_Driver/Src/stm32l0xx_hal_flash_ex.c ****     {
 1544              		.loc 1 763 5 is_stmt 1 view .LVU463
 766:Drivers/STM32L0xx_HAL_Driver/Src/stm32l0xx_hal_flash_ex.c ****     }
 1545              		.loc 1 766 7 view .LVU464
 766:Drivers/STM32L0xx_HAL_Driver/Src/stm32l0xx_hal_flash_ex.c ****     }
 1546              		.loc 1 766 16 is_stmt 0 view .LVU465
 1547 0048 0348     		ldr	r0, .L101+4
 1548 004a FFF7FEFF 		bl	FLASH_WaitForLastOperation
 1549              	.LVL154:
 766:Drivers/STM32L0xx_HAL_Driver/Src/stm32l0xx_hal_flash_ex.c ****     }
 1550              		.loc 1 766 16 view .LVU466
 1551 004e F4E7     		b	.L93
 1552              	.LVL155:
 1553              	.L97:
 729:Drivers/STM32L0xx_HAL_Driver/Src/stm32l0xx_hal_flash_ex.c **** 
 1554              		.loc 1 729 3 view .LVU467
 1555 0050 0220     		movs	r0, #2
 1556              	.LVL156:
 729:Drivers/STM32L0xx_HAL_Driver/Src/stm32l0xx_hal_flash_ex.c **** 
 1557              		.loc 1 729 3 view .LVU468
 1558 0052 F5E7     		b	.L92
 1559              	.L102:
 1560              		.align	2
 1561              	.L101:
 1562 0054 00000000 		.word	pFlash
 1563 0058 50C30000 		.word	50000
 1564              		.cfi_endproc
 1565              	.LFE45:
 1567              		.section	.text.HAL_FLASHEx_DATAEEPROM_EnableFixedTimeProgram,"ax",%progbits
 1568              		.align	1
 1569              		.global	HAL_FLASHEx_DATAEEPROM_EnableFixedTimeProgram
 1570              		.syntax unified
 1571              		.code	16
 1572              		.thumb_func
 1574              	HAL_FLASHEx_DATAEEPROM_EnableFixedTimeProgram:
 1575              	.LFB46:
 781:Drivers/STM32L0xx_HAL_Driver/Src/stm32l0xx_hal_flash_ex.c ****   SET_BIT(FLASH->PECR, FLASH_PECR_FIX);
 1576              		.loc 1 781 1 is_stmt 1 view -0
 1577              		.cfi_startproc
 1578              		@ args = 0, pretend = 0, frame = 0
 1579              		@ frame_needed = 0, uses_anonymous_args = 0
 1580              		@ link register save eliminated.
 782:Drivers/STM32L0xx_HAL_Driver/Src/stm32l0xx_hal_flash_ex.c **** }
 1581              		.loc 1 782 3 view .LVU470
 1582 0000 034A     		ldr	r2, .L104
ARM GAS  /tmp/ccd22iA4.s 			page 59


 1583 0002 5168     		ldr	r1, [r2, #4]
 1584 0004 8023     		movs	r3, #128
 1585 0006 5B00     		lsls	r3, r3, #1
 1586 0008 0B43     		orrs	r3, r1
 1587 000a 5360     		str	r3, [r2, #4]
 783:Drivers/STM32L0xx_HAL_Driver/Src/stm32l0xx_hal_flash_ex.c **** 
 1588              		.loc 1 783 1 is_stmt 0 view .LVU471
 1589              		@ sp needed
 1590 000c 7047     		bx	lr
 1591              	.L105:
 1592 000e C046     		.align	2
 1593              	.L104:
 1594 0010 00200240 		.word	1073881088
 1595              		.cfi_endproc
 1596              	.LFE46:
 1598              		.section	.text.HAL_FLASHEx_DATAEEPROM_DisableFixedTimeProgram,"ax",%progbits
 1599              		.align	1
 1600              		.global	HAL_FLASHEx_DATAEEPROM_DisableFixedTimeProgram
 1601              		.syntax unified
 1602              		.code	16
 1603              		.thumb_func
 1605              	HAL_FLASHEx_DATAEEPROM_DisableFixedTimeProgram:
 1606              	.LFB47:
 790:Drivers/STM32L0xx_HAL_Driver/Src/stm32l0xx_hal_flash_ex.c ****   CLEAR_BIT(FLASH->PECR, FLASH_PECR_FIX);
 1607              		.loc 1 790 1 is_stmt 1 view -0
 1608              		.cfi_startproc
 1609              		@ args = 0, pretend = 0, frame = 0
 1610              		@ frame_needed = 0, uses_anonymous_args = 0
 1611              		@ link register save eliminated.
 791:Drivers/STM32L0xx_HAL_Driver/Src/stm32l0xx_hal_flash_ex.c **** }
 1612              		.loc 1 791 3 view .LVU473
 1613 0000 024A     		ldr	r2, .L107
 1614 0002 5368     		ldr	r3, [r2, #4]
 1615 0004 0249     		ldr	r1, .L107+4
 1616 0006 0B40     		ands	r3, r1
 1617 0008 5360     		str	r3, [r2, #4]
 792:Drivers/STM32L0xx_HAL_Driver/Src/stm32l0xx_hal_flash_ex.c **** 
 1618              		.loc 1 792 1 is_stmt 0 view .LVU474
 1619              		@ sp needed
 1620 000a 7047     		bx	lr
 1621              	.L108:
 1622              		.align	2
 1623              	.L107:
 1624 000c 00200240 		.word	1073881088
 1625 0010 FFFEFFFF 		.word	-257
 1626              		.cfi_endproc
 1627              	.LFE47:
 1629              		.section	.text.FLASH_PageErase,"ax",%progbits
 1630              		.align	1
 1631              		.global	FLASH_PageErase
 1632              		.syntax unified
 1633              		.code	16
 1634              		.thumb_func
 1636              	FLASH_PageErase:
 1637              	.LVL157:
 1638              	.LFB58:
1175:Drivers/STM32L0xx_HAL_Driver/Src/stm32l0xx_hal_flash_ex.c **** 
ARM GAS  /tmp/ccd22iA4.s 			page 60


1176:Drivers/STM32L0xx_HAL_Driver/Src/stm32l0xx_hal_flash_ex.c **** #if defined(FLASH_OPTR_BFB2)
1177:Drivers/STM32L0xx_HAL_Driver/Src/stm32l0xx_hal_flash_ex.c **** /**
1178:Drivers/STM32L0xx_HAL_Driver/Src/stm32l0xx_hal_flash_ex.c ****   * @brief  Configures to boot from Bank1 or Bank2.
1179:Drivers/STM32L0xx_HAL_Driver/Src/stm32l0xx_hal_flash_ex.c ****   * @param  OB_BOOT select the FLASH Bank to boot from.
1180:Drivers/STM32L0xx_HAL_Driver/Src/stm32l0xx_hal_flash_ex.c ****   *   This parameter can be one of the following values:
1181:Drivers/STM32L0xx_HAL_Driver/Src/stm32l0xx_hal_flash_ex.c ****   *          This parameter can be one of the following values:
1182:Drivers/STM32L0xx_HAL_Driver/Src/stm32l0xx_hal_flash_ex.c ****   *             @arg @ref OB_BOOT_BANK1 BFB2 option bit reset
1183:Drivers/STM32L0xx_HAL_Driver/Src/stm32l0xx_hal_flash_ex.c ****   *             @arg @ref OB_BOOT_BANK2 BFB2 option bit set
1184:Drivers/STM32L0xx_HAL_Driver/Src/stm32l0xx_hal_flash_ex.c ****   * @retval HAL status
1185:Drivers/STM32L0xx_HAL_Driver/Src/stm32l0xx_hal_flash_ex.c ****   */
1186:Drivers/STM32L0xx_HAL_Driver/Src/stm32l0xx_hal_flash_ex.c **** static HAL_StatusTypeDef FLASH_OB_BootConfig(uint8_t OB_BOOT)
1187:Drivers/STM32L0xx_HAL_Driver/Src/stm32l0xx_hal_flash_ex.c **** {
1188:Drivers/STM32L0xx_HAL_Driver/Src/stm32l0xx_hal_flash_ex.c ****   HAL_StatusTypeDef status = HAL_OK; 
1189:Drivers/STM32L0xx_HAL_Driver/Src/stm32l0xx_hal_flash_ex.c ****   uint32_t tmp = 0U, tmp1 = 0U;
1190:Drivers/STM32L0xx_HAL_Driver/Src/stm32l0xx_hal_flash_ex.c **** 
1191:Drivers/STM32L0xx_HAL_Driver/Src/stm32l0xx_hal_flash_ex.c ****   /* Check the parameters */
1192:Drivers/STM32L0xx_HAL_Driver/Src/stm32l0xx_hal_flash_ex.c ****   assert_param(IS_OB_BOOT_BANK(OB_BOOT));
1193:Drivers/STM32L0xx_HAL_Driver/Src/stm32l0xx_hal_flash_ex.c **** 
1194:Drivers/STM32L0xx_HAL_Driver/Src/stm32l0xx_hal_flash_ex.c ****   /* Get the User Option byte register  and BOR Level*/
1195:Drivers/STM32L0xx_HAL_Driver/Src/stm32l0xx_hal_flash_ex.c ****   tmp1 = OB->USER & ((~FLASH_OPTR_BFB2) >> 16U);
1196:Drivers/STM32L0xx_HAL_Driver/Src/stm32l0xx_hal_flash_ex.c **** 
1197:Drivers/STM32L0xx_HAL_Driver/Src/stm32l0xx_hal_flash_ex.c ****   /* Calculate the option byte to write */
1198:Drivers/STM32L0xx_HAL_Driver/Src/stm32l0xx_hal_flash_ex.c ****   tmp = (uint32_t)~(OB_BOOT | tmp1) << 16U;
1199:Drivers/STM32L0xx_HAL_Driver/Src/stm32l0xx_hal_flash_ex.c ****   tmp |= (OB_BOOT | tmp1);
1200:Drivers/STM32L0xx_HAL_Driver/Src/stm32l0xx_hal_flash_ex.c **** 
1201:Drivers/STM32L0xx_HAL_Driver/Src/stm32l0xx_hal_flash_ex.c ****   /* Wait for last operation to be completed */
1202:Drivers/STM32L0xx_HAL_Driver/Src/stm32l0xx_hal_flash_ex.c ****   status = FLASH_WaitForLastOperation(FLASH_TIMEOUT_VALUE);
1203:Drivers/STM32L0xx_HAL_Driver/Src/stm32l0xx_hal_flash_ex.c **** 
1204:Drivers/STM32L0xx_HAL_Driver/Src/stm32l0xx_hal_flash_ex.c ****   if(status == HAL_OK)
1205:Drivers/STM32L0xx_HAL_Driver/Src/stm32l0xx_hal_flash_ex.c ****   {  
1206:Drivers/STM32L0xx_HAL_Driver/Src/stm32l0xx_hal_flash_ex.c ****     /* Clean the error context */
1207:Drivers/STM32L0xx_HAL_Driver/Src/stm32l0xx_hal_flash_ex.c ****     pFlash.ErrorCode = HAL_FLASH_ERROR_NONE;
1208:Drivers/STM32L0xx_HAL_Driver/Src/stm32l0xx_hal_flash_ex.c **** 
1209:Drivers/STM32L0xx_HAL_Driver/Src/stm32l0xx_hal_flash_ex.c ****     /* Write the BOOT Option Byte */
1210:Drivers/STM32L0xx_HAL_Driver/Src/stm32l0xx_hal_flash_ex.c ****     OB->USER = tmp;
1211:Drivers/STM32L0xx_HAL_Driver/Src/stm32l0xx_hal_flash_ex.c ****     
1212:Drivers/STM32L0xx_HAL_Driver/Src/stm32l0xx_hal_flash_ex.c ****     /* Wait for last operation to be completed */
1213:Drivers/STM32L0xx_HAL_Driver/Src/stm32l0xx_hal_flash_ex.c ****     status = FLASH_WaitForLastOperation(FLASH_TIMEOUT_VALUE);
1214:Drivers/STM32L0xx_HAL_Driver/Src/stm32l0xx_hal_flash_ex.c ****   }
1215:Drivers/STM32L0xx_HAL_Driver/Src/stm32l0xx_hal_flash_ex.c **** 
1216:Drivers/STM32L0xx_HAL_Driver/Src/stm32l0xx_hal_flash_ex.c ****   /* Return the Option Byte program Status */
1217:Drivers/STM32L0xx_HAL_Driver/Src/stm32l0xx_hal_flash_ex.c ****   return status;
1218:Drivers/STM32L0xx_HAL_Driver/Src/stm32l0xx_hal_flash_ex.c **** }
1219:Drivers/STM32L0xx_HAL_Driver/Src/stm32l0xx_hal_flash_ex.c **** 
1220:Drivers/STM32L0xx_HAL_Driver/Src/stm32l0xx_hal_flash_ex.c **** #endif /* FLASH_OPTR_BFB2 */
1221:Drivers/STM32L0xx_HAL_Driver/Src/stm32l0xx_hal_flash_ex.c **** 
1222:Drivers/STM32L0xx_HAL_Driver/Src/stm32l0xx_hal_flash_ex.c **** /**
1223:Drivers/STM32L0xx_HAL_Driver/Src/stm32l0xx_hal_flash_ex.c ****   * @}
1224:Drivers/STM32L0xx_HAL_Driver/Src/stm32l0xx_hal_flash_ex.c ****   */
1225:Drivers/STM32L0xx_HAL_Driver/Src/stm32l0xx_hal_flash_ex.c **** 
1226:Drivers/STM32L0xx_HAL_Driver/Src/stm32l0xx_hal_flash_ex.c **** /**
1227:Drivers/STM32L0xx_HAL_Driver/Src/stm32l0xx_hal_flash_ex.c ****   * @}
1228:Drivers/STM32L0xx_HAL_Driver/Src/stm32l0xx_hal_flash_ex.c ****   */
1229:Drivers/STM32L0xx_HAL_Driver/Src/stm32l0xx_hal_flash_ex.c **** 
1230:Drivers/STM32L0xx_HAL_Driver/Src/stm32l0xx_hal_flash_ex.c **** /** @addtogroup FLASH
1231:Drivers/STM32L0xx_HAL_Driver/Src/stm32l0xx_hal_flash_ex.c ****   * @{
1232:Drivers/STM32L0xx_HAL_Driver/Src/stm32l0xx_hal_flash_ex.c ****   */
ARM GAS  /tmp/ccd22iA4.s 			page 61


1233:Drivers/STM32L0xx_HAL_Driver/Src/stm32l0xx_hal_flash_ex.c **** 
1234:Drivers/STM32L0xx_HAL_Driver/Src/stm32l0xx_hal_flash_ex.c **** 
1235:Drivers/STM32L0xx_HAL_Driver/Src/stm32l0xx_hal_flash_ex.c **** /** @addtogroup FLASH_Private_Functions
1236:Drivers/STM32L0xx_HAL_Driver/Src/stm32l0xx_hal_flash_ex.c ****  * @{
1237:Drivers/STM32L0xx_HAL_Driver/Src/stm32l0xx_hal_flash_ex.c ****  */
1238:Drivers/STM32L0xx_HAL_Driver/Src/stm32l0xx_hal_flash_ex.c **** 
1239:Drivers/STM32L0xx_HAL_Driver/Src/stm32l0xx_hal_flash_ex.c **** /**
1240:Drivers/STM32L0xx_HAL_Driver/Src/stm32l0xx_hal_flash_ex.c ****   * @brief  Erases a specified page in program memory.
1241:Drivers/STM32L0xx_HAL_Driver/Src/stm32l0xx_hal_flash_ex.c ****   * @param  PageAddress The page address in program memory to be erased.
1242:Drivers/STM32L0xx_HAL_Driver/Src/stm32l0xx_hal_flash_ex.c ****   * @note   A Page is erased in the Program memory only if the address to load 
1243:Drivers/STM32L0xx_HAL_Driver/Src/stm32l0xx_hal_flash_ex.c ****   *         is the start address of a page (multiple of @ref FLASH_PAGE_SIZE bytes).
1244:Drivers/STM32L0xx_HAL_Driver/Src/stm32l0xx_hal_flash_ex.c ****   * @retval None
1245:Drivers/STM32L0xx_HAL_Driver/Src/stm32l0xx_hal_flash_ex.c ****   */
1246:Drivers/STM32L0xx_HAL_Driver/Src/stm32l0xx_hal_flash_ex.c **** void FLASH_PageErase(uint32_t PageAddress)
1247:Drivers/STM32L0xx_HAL_Driver/Src/stm32l0xx_hal_flash_ex.c **** {
 1639              		.loc 1 1247 1 is_stmt 1 view -0
 1640              		.cfi_startproc
 1641              		@ args = 0, pretend = 0, frame = 0
 1642              		@ frame_needed = 0, uses_anonymous_args = 0
 1643              		.loc 1 1247 1 is_stmt 0 view .LVU476
 1644 0000 10B5     		push	{r4, lr}
 1645              	.LCFI12:
 1646              		.cfi_def_cfa_offset 8
 1647              		.cfi_offset 4, -8
 1648              		.cfi_offset 14, -4
1248:Drivers/STM32L0xx_HAL_Driver/Src/stm32l0xx_hal_flash_ex.c ****   /* Clean the error context */
1249:Drivers/STM32L0xx_HAL_Driver/Src/stm32l0xx_hal_flash_ex.c ****   pFlash.ErrorCode = HAL_FLASH_ERROR_NONE;
 1649              		.loc 1 1249 3 is_stmt 1 view .LVU477
 1650              		.loc 1 1249 20 is_stmt 0 view .LVU478
 1651 0002 0021     		movs	r1, #0
 1652 0004 074B     		ldr	r3, .L110
 1653 0006 5961     		str	r1, [r3, #20]
1250:Drivers/STM32L0xx_HAL_Driver/Src/stm32l0xx_hal_flash_ex.c **** 
1251:Drivers/STM32L0xx_HAL_Driver/Src/stm32l0xx_hal_flash_ex.c ****   /* Set the ERASE bit */
1252:Drivers/STM32L0xx_HAL_Driver/Src/stm32l0xx_hal_flash_ex.c ****   SET_BIT(FLASH->PECR, FLASH_PECR_ERASE);
 1654              		.loc 1 1252 3 is_stmt 1 view .LVU479
 1655 0008 074B     		ldr	r3, .L110+4
 1656 000a 5C68     		ldr	r4, [r3, #4]
 1657 000c 8022     		movs	r2, #128
 1658 000e 9200     		lsls	r2, r2, #2
 1659 0010 2243     		orrs	r2, r4
 1660 0012 5A60     		str	r2, [r3, #4]
1253:Drivers/STM32L0xx_HAL_Driver/Src/stm32l0xx_hal_flash_ex.c **** 
1254:Drivers/STM32L0xx_HAL_Driver/Src/stm32l0xx_hal_flash_ex.c ****   /* Set PROG bit */
1255:Drivers/STM32L0xx_HAL_Driver/Src/stm32l0xx_hal_flash_ex.c ****   SET_BIT(FLASH->PECR, FLASH_PECR_PROG);
 1661              		.loc 1 1255 3 view .LVU480
 1662 0014 5A68     		ldr	r2, [r3, #4]
 1663 0016 0824     		movs	r4, #8
 1664 0018 2243     		orrs	r2, r4
 1665 001a 5A60     		str	r2, [r3, #4]
1256:Drivers/STM32L0xx_HAL_Driver/Src/stm32l0xx_hal_flash_ex.c **** 
1257:Drivers/STM32L0xx_HAL_Driver/Src/stm32l0xx_hal_flash_ex.c ****   /* Write 00000000h to the first word of the program page to erase */
1258:Drivers/STM32L0xx_HAL_Driver/Src/stm32l0xx_hal_flash_ex.c ****   *(__IO uint32_t *)(uint32_t)(PageAddress & ~(FLASH_PAGE_SIZE - 1)) = 0x00000000;
 1666              		.loc 1 1258 3 view .LVU481
 1667              		.loc 1 1258 21 is_stmt 0 view .LVU482
 1668 001c 7F23     		movs	r3, #127
 1669 001e 9843     		bics	r0, r3
ARM GAS  /tmp/ccd22iA4.s 			page 62


 1670              	.LVL158:
 1671              		.loc 1 1258 70 view .LVU483
 1672 0020 0160     		str	r1, [r0]
1259:Drivers/STM32L0xx_HAL_Driver/Src/stm32l0xx_hal_flash_ex.c **** }
 1673              		.loc 1 1259 1 view .LVU484
 1674              		@ sp needed
 1675 0022 10BD     		pop	{r4, pc}
 1676              	.L111:
 1677              		.align	2
 1678              	.L110:
 1679 0024 00000000 		.word	pFlash
 1680 0028 00200240 		.word	1073881088
 1681              		.cfi_endproc
 1682              	.LFE58:
 1684              		.section	.text.HAL_FLASHEx_Erase,"ax",%progbits
 1685              		.align	1
 1686              		.global	HAL_FLASHEx_Erase
 1687              		.syntax unified
 1688              		.code	16
 1689              		.thumb_func
 1691              	HAL_FLASHEx_Erase:
 1692              	.LVL159:
 1693              	.LFB34:
 172:Drivers/STM32L0xx_HAL_Driver/Src/stm32l0xx_hal_flash_ex.c ****   HAL_StatusTypeDef status = HAL_ERROR;
 1694              		.loc 1 172 1 is_stmt 1 view -0
 1695              		.cfi_startproc
 1696              		@ args = 0, pretend = 0, frame = 0
 1697              		@ frame_needed = 0, uses_anonymous_args = 0
 172:Drivers/STM32L0xx_HAL_Driver/Src/stm32l0xx_hal_flash_ex.c ****   HAL_StatusTypeDef status = HAL_ERROR;
 1698              		.loc 1 172 1 is_stmt 0 view .LVU486
 1699 0000 70B5     		push	{r4, r5, r6, lr}
 1700              	.LCFI13:
 1701              		.cfi_def_cfa_offset 16
 1702              		.cfi_offset 4, -16
 1703              		.cfi_offset 5, -12
 1704              		.cfi_offset 6, -8
 1705              		.cfi_offset 14, -4
 1706 0002 0500     		movs	r5, r0
 1707 0004 0E00     		movs	r6, r1
 173:Drivers/STM32L0xx_HAL_Driver/Src/stm32l0xx_hal_flash_ex.c ****   uint32_t address = 0U;
 1708              		.loc 1 173 3 is_stmt 1 view .LVU487
 1709              	.LVL160:
 174:Drivers/STM32L0xx_HAL_Driver/Src/stm32l0xx_hal_flash_ex.c ****   
 1710              		.loc 1 174 3 view .LVU488
 177:Drivers/STM32L0xx_HAL_Driver/Src/stm32l0xx_hal_flash_ex.c **** 
 1711              		.loc 1 177 3 view .LVU489
 177:Drivers/STM32L0xx_HAL_Driver/Src/stm32l0xx_hal_flash_ex.c **** 
 1712              		.loc 1 177 3 view .LVU490
 1713 0006 184B     		ldr	r3, .L119
 1714 0008 1B7C     		ldrb	r3, [r3, #16]
 1715 000a 012B     		cmp	r3, #1
 1716 000c 2AD0     		beq	.L118
 177:Drivers/STM32L0xx_HAL_Driver/Src/stm32l0xx_hal_flash_ex.c **** 
 1717              		.loc 1 177 3 discriminator 2 view .LVU491
 1718 000e 164B     		ldr	r3, .L119
 1719 0010 0122     		movs	r2, #1
 1720 0012 1A74     		strb	r2, [r3, #16]
ARM GAS  /tmp/ccd22iA4.s 			page 63


 177:Drivers/STM32L0xx_HAL_Driver/Src/stm32l0xx_hal_flash_ex.c **** 
 1721              		.loc 1 177 3 discriminator 2 view .LVU492
 180:Drivers/STM32L0xx_HAL_Driver/Src/stm32l0xx_hal_flash_ex.c **** 
 1722              		.loc 1 180 3 discriminator 2 view .LVU493
 180:Drivers/STM32L0xx_HAL_Driver/Src/stm32l0xx_hal_flash_ex.c **** 
 1723              		.loc 1 180 12 is_stmt 0 discriminator 2 view .LVU494
 1724 0014 1548     		ldr	r0, .L119+4
 1725              	.LVL161:
 180:Drivers/STM32L0xx_HAL_Driver/Src/stm32l0xx_hal_flash_ex.c **** 
 1726              		.loc 1 180 12 discriminator 2 view .LVU495
 1727 0016 FFF7FEFF 		bl	FLASH_WaitForLastOperation
 1728              	.LVL162:
 182:Drivers/STM32L0xx_HAL_Driver/Src/stm32l0xx_hal_flash_ex.c ****   {
 1729              		.loc 1 182 3 is_stmt 1 discriminator 2 view .LVU496
 182:Drivers/STM32L0xx_HAL_Driver/Src/stm32l0xx_hal_flash_ex.c ****   {
 1730              		.loc 1 182 6 is_stmt 0 discriminator 2 view .LVU497
 1731 001a 0028     		cmp	r0, #0
 1732 001c 1ED1     		bne	.L114
 185:Drivers/STM32L0xx_HAL_Driver/Src/stm32l0xx_hal_flash_ex.c **** 
 1733              		.loc 1 185 5 is_stmt 1 view .LVU498
 185:Drivers/STM32L0xx_HAL_Driver/Src/stm32l0xx_hal_flash_ex.c **** 
 1734              		.loc 1 185 16 is_stmt 0 view .LVU499
 1735 001e 0123     		movs	r3, #1
 1736 0020 5B42     		rsbs	r3, r3, #0
 1737 0022 3360     		str	r3, [r6]
 188:Drivers/STM32L0xx_HAL_Driver/Src/stm32l0xx_hal_flash_ex.c ****     assert_param(IS_FLASH_TYPEERASE(pEraseInit->TypeErase));
 1738              		.loc 1 188 5 is_stmt 1 view .LVU500
 189:Drivers/STM32L0xx_HAL_Driver/Src/stm32l0xx_hal_flash_ex.c ****     assert_param(IS_FLASH_PROGRAM_ADDRESS(pEraseInit->PageAddress));
 1739              		.loc 1 189 5 view .LVU501
 190:Drivers/STM32L0xx_HAL_Driver/Src/stm32l0xx_hal_flash_ex.c ****     assert_param(IS_FLASH_PROGRAM_ADDRESS((pEraseInit->PageAddress & ~(FLASH_PAGE_SIZE - 1U)) + pEr
 1740              		.loc 1 190 5 view .LVU502
 191:Drivers/STM32L0xx_HAL_Driver/Src/stm32l0xx_hal_flash_ex.c **** 
 1741              		.loc 1 191 5 view .LVU503
 194:Drivers/STM32L0xx_HAL_Driver/Src/stm32l0xx_hal_flash_ex.c ****         address < ((pEraseInit->NbPages * FLASH_PAGE_SIZE) + pEraseInit->PageAddress);
 1742              		.loc 1 194 5 view .LVU504
 194:Drivers/STM32L0xx_HAL_Driver/Src/stm32l0xx_hal_flash_ex.c ****         address < ((pEraseInit->NbPages * FLASH_PAGE_SIZE) + pEraseInit->PageAddress);
 1743              		.loc 1 194 17 is_stmt 0 view .LVU505
 1744 0024 6C68     		ldr	r4, [r5, #4]
 1745              	.LVL163:
 194:Drivers/STM32L0xx_HAL_Driver/Src/stm32l0xx_hal_flash_ex.c ****         address < ((pEraseInit->NbPages * FLASH_PAGE_SIZE) + pEraseInit->PageAddress);
 1746              		.loc 1 194 5 view .LVU506
 1747 0026 00E0     		b	.L115
 1748              	.L116:
 196:Drivers/STM32L0xx_HAL_Driver/Src/stm32l0xx_hal_flash_ex.c ****     {
 1749              		.loc 1 196 9 is_stmt 1 view .LVU507
 196:Drivers/STM32L0xx_HAL_Driver/Src/stm32l0xx_hal_flash_ex.c ****     {
 1750              		.loc 1 196 17 is_stmt 0 view .LVU508
 1751 0028 8034     		adds	r4, r4, #128
 1752              	.LVL164:
 1753              	.L115:
 195:Drivers/STM32L0xx_HAL_Driver/Src/stm32l0xx_hal_flash_ex.c ****         address += FLASH_PAGE_SIZE)
 1754              		.loc 1 195 9 is_stmt 1 discriminator 1 view .LVU509
 195:Drivers/STM32L0xx_HAL_Driver/Src/stm32l0xx_hal_flash_ex.c ****         address += FLASH_PAGE_SIZE)
 1755              		.loc 1 195 41 is_stmt 0 discriminator 1 view .LVU510
 1756 002a AB68     		ldr	r3, [r5, #8]
 1757 002c DB01     		lsls	r3, r3, #7
 195:Drivers/STM32L0xx_HAL_Driver/Src/stm32l0xx_hal_flash_ex.c ****         address += FLASH_PAGE_SIZE)
ARM GAS  /tmp/ccd22iA4.s 			page 64


 1758              		.loc 1 195 60 discriminator 1 view .LVU511
 1759 002e 6A68     		ldr	r2, [r5, #4]
 1760 0030 9446     		mov	ip, r2
 1761 0032 6344     		add	r3, r3, ip
 194:Drivers/STM32L0xx_HAL_Driver/Src/stm32l0xx_hal_flash_ex.c ****         address < ((pEraseInit->NbPages * FLASH_PAGE_SIZE) + pEraseInit->PageAddress);
 1762              		.loc 1 194 5 discriminator 1 view .LVU512
 1763 0034 A342     		cmp	r3, r4
 1764 0036 11D9     		bls	.L114
 198:Drivers/STM32L0xx_HAL_Driver/Src/stm32l0xx_hal_flash_ex.c **** 
 1765              		.loc 1 198 7 is_stmt 1 view .LVU513
 1766 0038 2000     		movs	r0, r4
 1767              	.LVL165:
 198:Drivers/STM32L0xx_HAL_Driver/Src/stm32l0xx_hal_flash_ex.c **** 
 1768              		.loc 1 198 7 is_stmt 0 view .LVU514
 1769 003a FFF7FEFF 		bl	FLASH_PageErase
 1770              	.LVL166:
 201:Drivers/STM32L0xx_HAL_Driver/Src/stm32l0xx_hal_flash_ex.c **** 
 1771              		.loc 1 201 7 is_stmt 1 view .LVU515
 201:Drivers/STM32L0xx_HAL_Driver/Src/stm32l0xx_hal_flash_ex.c **** 
 1772              		.loc 1 201 16 is_stmt 0 view .LVU516
 1773 003e 0B48     		ldr	r0, .L119+4
 1774 0040 FFF7FEFF 		bl	FLASH_WaitForLastOperation
 1775              	.LVL167:
 204:Drivers/STM32L0xx_HAL_Driver/Src/stm32l0xx_hal_flash_ex.c ****       CLEAR_BIT(FLASH->PECR, FLASH_PECR_ERASE);
 1776              		.loc 1 204 7 is_stmt 1 view .LVU517
 1777 0044 0A4B     		ldr	r3, .L119+8
 1778 0046 5A68     		ldr	r2, [r3, #4]
 1779 0048 0821     		movs	r1, #8
 1780 004a 8A43     		bics	r2, r1
 1781 004c 5A60     		str	r2, [r3, #4]
 205:Drivers/STM32L0xx_HAL_Driver/Src/stm32l0xx_hal_flash_ex.c **** 
 1782              		.loc 1 205 7 view .LVU518
 1783 004e 5A68     		ldr	r2, [r3, #4]
 1784 0050 0849     		ldr	r1, .L119+12
 1785 0052 0A40     		ands	r2, r1
 1786 0054 5A60     		str	r2, [r3, #4]
 207:Drivers/STM32L0xx_HAL_Driver/Src/stm32l0xx_hal_flash_ex.c ****       {
 1787              		.loc 1 207 7 view .LVU519
 207:Drivers/STM32L0xx_HAL_Driver/Src/stm32l0xx_hal_flash_ex.c ****       {
 1788              		.loc 1 207 10 is_stmt 0 view .LVU520
 1789 0056 0028     		cmp	r0, #0
 1790 0058 E6D0     		beq	.L116
 210:Drivers/STM32L0xx_HAL_Driver/Src/stm32l0xx_hal_flash_ex.c ****         break;
 1791              		.loc 1 210 9 is_stmt 1 view .LVU521
 210:Drivers/STM32L0xx_HAL_Driver/Src/stm32l0xx_hal_flash_ex.c ****         break;
 1792              		.loc 1 210 20 is_stmt 0 view .LVU522
 1793 005a 3460     		str	r4, [r6]
 211:Drivers/STM32L0xx_HAL_Driver/Src/stm32l0xx_hal_flash_ex.c ****       }
 1794              		.loc 1 211 9 is_stmt 1 view .LVU523
 1795              	.LVL168:
 1796              	.L114:
 217:Drivers/STM32L0xx_HAL_Driver/Src/stm32l0xx_hal_flash_ex.c **** 
 1797              		.loc 1 217 3 view .LVU524
 217:Drivers/STM32L0xx_HAL_Driver/Src/stm32l0xx_hal_flash_ex.c **** 
 1798              		.loc 1 217 3 view .LVU525
 1799 005c 024B     		ldr	r3, .L119
 1800 005e 0022     		movs	r2, #0
ARM GAS  /tmp/ccd22iA4.s 			page 65


 1801 0060 1A74     		strb	r2, [r3, #16]
 217:Drivers/STM32L0xx_HAL_Driver/Src/stm32l0xx_hal_flash_ex.c **** 
 1802              		.loc 1 217 3 view .LVU526
 219:Drivers/STM32L0xx_HAL_Driver/Src/stm32l0xx_hal_flash_ex.c **** }
 1803              		.loc 1 219 3 view .LVU527
 1804              	.LVL169:
 1805              	.L113:
 220:Drivers/STM32L0xx_HAL_Driver/Src/stm32l0xx_hal_flash_ex.c **** 
 1806              		.loc 1 220 1 is_stmt 0 view .LVU528
 1807              		@ sp needed
 1808              	.LVL170:
 1809              	.LVL171:
 220:Drivers/STM32L0xx_HAL_Driver/Src/stm32l0xx_hal_flash_ex.c **** 
 1810              		.loc 1 220 1 view .LVU529
 1811 0062 70BD     		pop	{r4, r5, r6, pc}
 1812              	.LVL172:
 1813              	.L118:
 177:Drivers/STM32L0xx_HAL_Driver/Src/stm32l0xx_hal_flash_ex.c **** 
 1814              		.loc 1 177 3 view .LVU530
 1815 0064 0220     		movs	r0, #2
 1816              	.LVL173:
 177:Drivers/STM32L0xx_HAL_Driver/Src/stm32l0xx_hal_flash_ex.c **** 
 1817              		.loc 1 177 3 view .LVU531
 1818 0066 FCE7     		b	.L113
 1819              	.L120:
 1820              		.align	2
 1821              	.L119:
 1822 0068 00000000 		.word	pFlash
 1823 006c 50C30000 		.word	50000
 1824 0070 00200240 		.word	1073881088
 1825 0074 FFFDFFFF 		.word	-513
 1826              		.cfi_endproc
 1827              	.LFE34:
 1829              		.section	.text.HAL_FLASHEx_Erase_IT,"ax",%progbits
 1830              		.align	1
 1831              		.global	HAL_FLASHEx_Erase_IT
 1832              		.syntax unified
 1833              		.code	16
 1834              		.thumb_func
 1836              	HAL_FLASHEx_Erase_IT:
 1837              	.LVL174:
 1838              	.LFB35:
 236:Drivers/STM32L0xx_HAL_Driver/Src/stm32l0xx_hal_flash_ex.c ****   HAL_StatusTypeDef status = HAL_ERROR;
 1839              		.loc 1 236 1 is_stmt 1 view -0
 1840              		.cfi_startproc
 1841              		@ args = 0, pretend = 0, frame = 0
 1842              		@ frame_needed = 0, uses_anonymous_args = 0
 236:Drivers/STM32L0xx_HAL_Driver/Src/stm32l0xx_hal_flash_ex.c ****   HAL_StatusTypeDef status = HAL_ERROR;
 1843              		.loc 1 236 1 is_stmt 0 view .LVU533
 1844 0000 70B5     		push	{r4, r5, r6, lr}
 1845              	.LCFI14:
 1846              		.cfi_def_cfa_offset 16
 1847              		.cfi_offset 4, -16
 1848              		.cfi_offset 5, -12
 1849              		.cfi_offset 6, -8
 1850              		.cfi_offset 14, -4
 1851 0002 0500     		movs	r5, r0
ARM GAS  /tmp/ccd22iA4.s 			page 66


 237:Drivers/STM32L0xx_HAL_Driver/Src/stm32l0xx_hal_flash_ex.c **** 
 1852              		.loc 1 237 3 is_stmt 1 view .LVU534
 1853              	.LVL175:
 240:Drivers/STM32L0xx_HAL_Driver/Src/stm32l0xx_hal_flash_ex.c ****   {
 1854              		.loc 1 240 3 view .LVU535
 240:Drivers/STM32L0xx_HAL_Driver/Src/stm32l0xx_hal_flash_ex.c ****   {
 1855              		.loc 1 240 13 is_stmt 0 view .LVU536
 1856 0004 144B     		ldr	r3, .L127
 1857 0006 1B78     		ldrb	r3, [r3]
 240:Drivers/STM32L0xx_HAL_Driver/Src/stm32l0xx_hal_flash_ex.c ****   {
 1858              		.loc 1 240 6 view .LVU537
 1859 0008 002B     		cmp	r3, #0
 1860 000a 20D1     		bne	.L124
 246:Drivers/STM32L0xx_HAL_Driver/Src/stm32l0xx_hal_flash_ex.c ****   assert_param(IS_FLASH_TYPEERASE(pEraseInit->TypeErase));
 1861              		.loc 1 246 3 is_stmt 1 view .LVU538
 247:Drivers/STM32L0xx_HAL_Driver/Src/stm32l0xx_hal_flash_ex.c ****   assert_param(IS_FLASH_PROGRAM_ADDRESS(pEraseInit->PageAddress));
 1862              		.loc 1 247 3 view .LVU539
 248:Drivers/STM32L0xx_HAL_Driver/Src/stm32l0xx_hal_flash_ex.c ****   assert_param(IS_FLASH_PROGRAM_ADDRESS((pEraseInit->PageAddress & ~(FLASH_PAGE_SIZE - 1)) + pErase
 1863              		.loc 1 248 3 view .LVU540
 249:Drivers/STM32L0xx_HAL_Driver/Src/stm32l0xx_hal_flash_ex.c **** 
 1864              		.loc 1 249 3 view .LVU541
 252:Drivers/STM32L0xx_HAL_Driver/Src/stm32l0xx_hal_flash_ex.c **** 
 1865              		.loc 1 252 3 view .LVU542
 252:Drivers/STM32L0xx_HAL_Driver/Src/stm32l0xx_hal_flash_ex.c **** 
 1866              		.loc 1 252 3 view .LVU543
 1867 000c 124B     		ldr	r3, .L127
 1868 000e 1B7C     		ldrb	r3, [r3, #16]
 1869 0010 012B     		cmp	r3, #1
 1870 0012 1ED0     		beq	.L125
 252:Drivers/STM32L0xx_HAL_Driver/Src/stm32l0xx_hal_flash_ex.c **** 
 1871              		.loc 1 252 3 discriminator 2 view .LVU544
 1872 0014 104B     		ldr	r3, .L127
 1873 0016 0122     		movs	r2, #1
 1874 0018 1A74     		strb	r2, [r3, #16]
 252:Drivers/STM32L0xx_HAL_Driver/Src/stm32l0xx_hal_flash_ex.c **** 
 1875              		.loc 1 252 3 discriminator 2 view .LVU545
 255:Drivers/STM32L0xx_HAL_Driver/Src/stm32l0xx_hal_flash_ex.c ****   
 1876              		.loc 1 255 3 discriminator 2 view .LVU546
 255:Drivers/STM32L0xx_HAL_Driver/Src/stm32l0xx_hal_flash_ex.c ****   
 1877              		.loc 1 255 12 is_stmt 0 discriminator 2 view .LVU547
 1878 001a 1048     		ldr	r0, .L127+4
 1879              	.LVL176:
 255:Drivers/STM32L0xx_HAL_Driver/Src/stm32l0xx_hal_flash_ex.c ****   
 1880              		.loc 1 255 12 discriminator 2 view .LVU548
 1881 001c FFF7FEFF 		bl	FLASH_WaitForLastOperation
 1882              	.LVL177:
 1883 0020 041E     		subs	r4, r0, #0
 1884              	.LVL178:
 257:Drivers/STM32L0xx_HAL_Driver/Src/stm32l0xx_hal_flash_ex.c ****   {
 1885              		.loc 1 257 3 is_stmt 1 discriminator 2 view .LVU549
 257:Drivers/STM32L0xx_HAL_Driver/Src/stm32l0xx_hal_flash_ex.c ****   {
 1886              		.loc 1 257 6 is_stmt 0 discriminator 2 view .LVU550
 1887 0022 04D0     		beq	.L126
 272:Drivers/STM32L0xx_HAL_Driver/Src/stm32l0xx_hal_flash_ex.c ****   }
 1888              		.loc 1 272 5 is_stmt 1 view .LVU551
 272:Drivers/STM32L0xx_HAL_Driver/Src/stm32l0xx_hal_flash_ex.c ****   }
 1889              		.loc 1 272 5 view .LVU552
ARM GAS  /tmp/ccd22iA4.s 			page 67


 1890 0024 0C4B     		ldr	r3, .L127
 1891 0026 0022     		movs	r2, #0
 1892 0028 1A74     		strb	r2, [r3, #16]
 1893              	.LVL179:
 1894              	.L122:
 276:Drivers/STM32L0xx_HAL_Driver/Src/stm32l0xx_hal_flash_ex.c **** 
 1895              		.loc 1 276 1 is_stmt 0 view .LVU553
 1896 002a 2000     		movs	r0, r4
 1897              		@ sp needed
 1898              	.LVL180:
 276:Drivers/STM32L0xx_HAL_Driver/Src/stm32l0xx_hal_flash_ex.c **** 
 1899              		.loc 1 276 1 view .LVU554
 1900 002c 70BD     		pop	{r4, r5, r6, pc}
 1901              	.LVL181:
 1902              	.L126:
 260:Drivers/STM32L0xx_HAL_Driver/Src/stm32l0xx_hal_flash_ex.c ****     
 1903              		.loc 1 260 5 is_stmt 1 view .LVU555
 1904 002e 0C4A     		ldr	r2, .L127+8
 1905 0030 5168     		ldr	r1, [r2, #4]
 1906 0032 C023     		movs	r3, #192
 1907 0034 9B02     		lsls	r3, r3, #10
 1908 0036 0B43     		orrs	r3, r1
 1909 0038 5360     		str	r3, [r2, #4]
 262:Drivers/STM32L0xx_HAL_Driver/Src/stm32l0xx_hal_flash_ex.c ****     pFlash.NbPagesToErase = pEraseInit->NbPages;
 1910              		.loc 1 262 5 view .LVU556
 262:Drivers/STM32L0xx_HAL_Driver/Src/stm32l0xx_hal_flash_ex.c ****     pFlash.NbPagesToErase = pEraseInit->NbPages;
 1911              		.loc 1 262 29 is_stmt 0 view .LVU557
 1912 003a 074B     		ldr	r3, .L127
 1913 003c 0122     		movs	r2, #1
 1914 003e 1A70     		strb	r2, [r3]
 263:Drivers/STM32L0xx_HAL_Driver/Src/stm32l0xx_hal_flash_ex.c ****     pFlash.Page = pEraseInit->PageAddress;
 1915              		.loc 1 263 5 is_stmt 1 view .LVU558
 263:Drivers/STM32L0xx_HAL_Driver/Src/stm32l0xx_hal_flash_ex.c ****     pFlash.Page = pEraseInit->PageAddress;
 1916              		.loc 1 263 27 is_stmt 0 view .LVU559
 1917 0040 AA68     		ldr	r2, [r5, #8]
 1918 0042 5A60     		str	r2, [r3, #4]
 264:Drivers/STM32L0xx_HAL_Driver/Src/stm32l0xx_hal_flash_ex.c **** 
 1919              		.loc 1 264 5 is_stmt 1 view .LVU560
 264:Drivers/STM32L0xx_HAL_Driver/Src/stm32l0xx_hal_flash_ex.c **** 
 1920              		.loc 1 264 29 is_stmt 0 view .LVU561
 1921 0044 6868     		ldr	r0, [r5, #4]
 1922              	.LVL182:
 264:Drivers/STM32L0xx_HAL_Driver/Src/stm32l0xx_hal_flash_ex.c **** 
 1923              		.loc 1 264 17 view .LVU562
 1924 0046 D860     		str	r0, [r3, #12]
 267:Drivers/STM32L0xx_HAL_Driver/Src/stm32l0xx_hal_flash_ex.c ****   }
 1925              		.loc 1 267 5 is_stmt 1 view .LVU563
 1926 0048 FFF7FEFF 		bl	FLASH_PageErase
 1927              	.LVL183:
 1928 004c EDE7     		b	.L122
 1929              	.LVL184:
 1930              	.L124:
 242:Drivers/STM32L0xx_HAL_Driver/Src/stm32l0xx_hal_flash_ex.c ****   }
 1931              		.loc 1 242 12 is_stmt 0 view .LVU564
 1932 004e 0124     		movs	r4, #1
 1933 0050 EBE7     		b	.L122
 1934              	.L125:
ARM GAS  /tmp/ccd22iA4.s 			page 68


 252:Drivers/STM32L0xx_HAL_Driver/Src/stm32l0xx_hal_flash_ex.c **** 
 1935              		.loc 1 252 3 view .LVU565
 1936 0052 0224     		movs	r4, #2
 1937 0054 E9E7     		b	.L122
 1938              	.L128:
 1939 0056 C046     		.align	2
 1940              	.L127:
 1941 0058 00000000 		.word	pFlash
 1942 005c 50C30000 		.word	50000
 1943 0060 00200240 		.word	1073881088
 1944              		.cfi_endproc
 1945              	.LFE35:
 1947              		.text
 1948              	.Letext0:
 1949              		.file 3 "/home/thomas/programme/gcc-arm-none-eabi-10.3-2021.10/arm-none-eabi/include/machine/_defa
 1950              		.file 4 "/home/thomas/programme/gcc-arm-none-eabi-10.3-2021.10/arm-none-eabi/include/sys/_stdint.h
 1951              		.file 5 "Drivers/CMSIS/Device/ST/STM32L0xx/Include/stm32l052xx.h"
 1952              		.file 6 "Drivers/CMSIS/Device/ST/STM32L0xx/Include/stm32l0xx.h"
 1953              		.file 7 "Drivers/STM32L0xx_HAL_Driver/Inc/stm32l0xx_hal_def.h"
 1954              		.file 8 "Drivers/STM32L0xx_HAL_Driver/Inc/stm32l0xx_hal_flash.h"
 1955              		.file 9 "Drivers/STM32L0xx_HAL_Driver/Inc/stm32l0xx_hal_flash_ex.h"
ARM GAS  /tmp/ccd22iA4.s 			page 69


DEFINED SYMBOLS
                            *ABS*:0000000000000000 stm32l0xx_hal_flash_ex.c
     /tmp/ccd22iA4.s:18     .text.FLASH_OB_GetUser:0000000000000000 $t
     /tmp/ccd22iA4.s:23     .text.FLASH_OB_GetUser:0000000000000000 FLASH_OB_GetUser
     /tmp/ccd22iA4.s:46     .text.FLASH_OB_GetUser:000000000000000c $d
     /tmp/ccd22iA4.s:51     .text.FLASH_OB_GetRDP:0000000000000000 $t
     /tmp/ccd22iA4.s:56     .text.FLASH_OB_GetRDP:0000000000000000 FLASH_OB_GetRDP
     /tmp/ccd22iA4.s:87     .text.FLASH_OB_GetRDP:0000000000000014 $d
     /tmp/ccd22iA4.s:92     .text.FLASH_OB_GetBOR:0000000000000000 $t
     /tmp/ccd22iA4.s:97     .text.FLASH_OB_GetBOR:0000000000000000 FLASH_OB_GetBOR
     /tmp/ccd22iA4.s:119    .text.FLASH_OB_GetBOR:000000000000000c $d
     /tmp/ccd22iA4.s:124    .text.FLASH_OB_GetBOOTBit1:0000000000000000 $t
     /tmp/ccd22iA4.s:129    .text.FLASH_OB_GetBOOTBit1:0000000000000000 FLASH_OB_GetBOOTBit1
     /tmp/ccd22iA4.s:148    .text.FLASH_OB_GetBOOTBit1:0000000000000008 $d
     /tmp/ccd22iA4.s:153    .text.FLASH_OB_GetWRP:0000000000000000 $t
     /tmp/ccd22iA4.s:158    .text.FLASH_OB_GetWRP:0000000000000000 FLASH_OB_GetWRP
     /tmp/ccd22iA4.s:175    .text.FLASH_OB_GetWRP:0000000000000008 $d
     /tmp/ccd22iA4.s:180    .text.FLASH_OB_ProtectedSectorsConfig:0000000000000000 $t
     /tmp/ccd22iA4.s:185    .text.FLASH_OB_ProtectedSectorsConfig:0000000000000000 FLASH_OB_ProtectedSectorsConfig
     /tmp/ccd22iA4.s:291    .text.FLASH_OB_ProtectedSectorsConfig:000000000000004c $d
     /tmp/ccd22iA4.s:298    .text.FLASH_OB_RDPConfig:0000000000000000 $t
     /tmp/ccd22iA4.s:303    .text.FLASH_OB_RDPConfig:0000000000000000 FLASH_OB_RDPConfig
     /tmp/ccd22iA4.s:389    .text.FLASH_OB_RDPConfig:0000000000000034 $d
     /tmp/ccd22iA4.s:396    .text.FLASH_OB_UserConfig:0000000000000000 $t
     /tmp/ccd22iA4.s:401    .text.FLASH_OB_UserConfig:0000000000000000 FLASH_OB_UserConfig
     /tmp/ccd22iA4.s:486    .text.FLASH_OB_UserConfig:0000000000000034 $d
     /tmp/ccd22iA4.s:494    .text.FLASH_OB_BORConfig:0000000000000000 $t
     /tmp/ccd22iA4.s:499    .text.FLASH_OB_BORConfig:0000000000000000 FLASH_OB_BORConfig
     /tmp/ccd22iA4.s:577    .text.FLASH_OB_BORConfig:0000000000000030 $d
     /tmp/ccd22iA4.s:585    .text.FLASH_OB_BOOTBit1Config:0000000000000000 $t
     /tmp/ccd22iA4.s:590    .text.FLASH_OB_BOOTBit1Config:0000000000000000 FLASH_OB_BOOTBit1Config
     /tmp/ccd22iA4.s:671    .text.FLASH_OB_BOOTBit1Config:0000000000000034 $d
     /tmp/ccd22iA4.s:678    .text.HAL_FLASHEx_OBProgram:0000000000000000 $t
     /tmp/ccd22iA4.s:684    .text.HAL_FLASHEx_OBProgram:0000000000000000 HAL_FLASHEx_OBProgram
     /tmp/ccd22iA4.s:877    .text.HAL_FLASHEx_OBProgram:000000000000009c $d
     /tmp/ccd22iA4.s:882    .text.HAL_FLASHEx_OBGetConfig:0000000000000000 $t
     /tmp/ccd22iA4.s:888    .text.HAL_FLASHEx_OBGetConfig:0000000000000000 HAL_FLASHEx_OBGetConfig
     /tmp/ccd22iA4.s:945    .text.HAL_FLASHEx_AdvOBProgram:0000000000000000 $t
     /tmp/ccd22iA4.s:951    .text.HAL_FLASHEx_AdvOBProgram:0000000000000000 HAL_FLASHEx_AdvOBProgram
     /tmp/ccd22iA4.s:997    .text.HAL_FLASHEx_AdvOBGetConfig:0000000000000000 $t
     /tmp/ccd22iA4.s:1003   .text.HAL_FLASHEx_AdvOBGetConfig:0000000000000000 HAL_FLASHEx_AdvOBGetConfig
     /tmp/ccd22iA4.s:1039   .text.HAL_FLASHEx_AdvOBGetConfig:0000000000000018 $d
     /tmp/ccd22iA4.s:1044   .text.HAL_FLASHEx_OB_SelectPCROP:0000000000000000 $t
     /tmp/ccd22iA4.s:1050   .text.HAL_FLASHEx_OB_SelectPCROP:0000000000000000 HAL_FLASHEx_OB_SelectPCROP
     /tmp/ccd22iA4.s:1129   .text.HAL_FLASHEx_OB_SelectPCROP:0000000000000030 $d
     /tmp/ccd22iA4.s:1136   .text.HAL_FLASHEx_OB_DeSelectPCROP:0000000000000000 $t
     /tmp/ccd22iA4.s:1142   .text.HAL_FLASHEx_OB_DeSelectPCROP:0000000000000000 HAL_FLASHEx_OB_DeSelectPCROP
     /tmp/ccd22iA4.s:1214   .text.HAL_FLASHEx_OB_DeSelectPCROP:000000000000002c $d
     /tmp/ccd22iA4.s:1221   .text.HAL_FLASHEx_DATAEEPROM_Unlock:0000000000000000 $t
     /tmp/ccd22iA4.s:1227   .text.HAL_FLASHEx_DATAEEPROM_Unlock:0000000000000000 HAL_FLASHEx_DATAEEPROM_Unlock
     /tmp/ccd22iA4.s:1326   .text.HAL_FLASHEx_DATAEEPROM_Unlock:0000000000000030 $d
     /tmp/ccd22iA4.s:1333   .text.HAL_FLASHEx_DATAEEPROM_Lock:0000000000000000 $t
     /tmp/ccd22iA4.s:1339   .text.HAL_FLASHEx_DATAEEPROM_Lock:0000000000000000 HAL_FLASHEx_DATAEEPROM_Lock
     /tmp/ccd22iA4.s:1360   .text.HAL_FLASHEx_DATAEEPROM_Lock:0000000000000010 $d
     /tmp/ccd22iA4.s:1365   .text.HAL_FLASHEx_DATAEEPROM_Erase:0000000000000000 $t
     /tmp/ccd22iA4.s:1371   .text.HAL_FLASHEx_DATAEEPROM_Erase:0000000000000000 HAL_FLASHEx_DATAEEPROM_Erase
     /tmp/ccd22iA4.s:1429   .text.HAL_FLASHEx_DATAEEPROM_Erase:0000000000000020 $d
ARM GAS  /tmp/ccd22iA4.s 			page 70


     /tmp/ccd22iA4.s:1435   .text.HAL_FLASHEx_DATAEEPROM_Program:0000000000000000 $t
     /tmp/ccd22iA4.s:1441   .text.HAL_FLASHEx_DATAEEPROM_Program:0000000000000000 HAL_FLASHEx_DATAEEPROM_Program
     /tmp/ccd22iA4.s:1562   .text.HAL_FLASHEx_DATAEEPROM_Program:0000000000000054 $d
     /tmp/ccd22iA4.s:1568   .text.HAL_FLASHEx_DATAEEPROM_EnableFixedTimeProgram:0000000000000000 $t
     /tmp/ccd22iA4.s:1574   .text.HAL_FLASHEx_DATAEEPROM_EnableFixedTimeProgram:0000000000000000 HAL_FLASHEx_DATAEEPROM_EnableFixedTimeProgram
     /tmp/ccd22iA4.s:1594   .text.HAL_FLASHEx_DATAEEPROM_EnableFixedTimeProgram:0000000000000010 $d
     /tmp/ccd22iA4.s:1599   .text.HAL_FLASHEx_DATAEEPROM_DisableFixedTimeProgram:0000000000000000 $t
     /tmp/ccd22iA4.s:1605   .text.HAL_FLASHEx_DATAEEPROM_DisableFixedTimeProgram:0000000000000000 HAL_FLASHEx_DATAEEPROM_DisableFixedTimeProgram
     /tmp/ccd22iA4.s:1624   .text.HAL_FLASHEx_DATAEEPROM_DisableFixedTimeProgram:000000000000000c $d
     /tmp/ccd22iA4.s:1630   .text.FLASH_PageErase:0000000000000000 $t
     /tmp/ccd22iA4.s:1636   .text.FLASH_PageErase:0000000000000000 FLASH_PageErase
     /tmp/ccd22iA4.s:1679   .text.FLASH_PageErase:0000000000000024 $d
     /tmp/ccd22iA4.s:1685   .text.HAL_FLASHEx_Erase:0000000000000000 $t
     /tmp/ccd22iA4.s:1691   .text.HAL_FLASHEx_Erase:0000000000000000 HAL_FLASHEx_Erase
     /tmp/ccd22iA4.s:1822   .text.HAL_FLASHEx_Erase:0000000000000068 $d
     /tmp/ccd22iA4.s:1830   .text.HAL_FLASHEx_Erase_IT:0000000000000000 $t
     /tmp/ccd22iA4.s:1836   .text.HAL_FLASHEx_Erase_IT:0000000000000000 HAL_FLASHEx_Erase_IT
     /tmp/ccd22iA4.s:1941   .text.HAL_FLASHEx_Erase_IT:0000000000000058 $d

UNDEFINED SYMBOLS
FLASH_WaitForLastOperation
pFlash
