ARM GAS  /tmp/cc7HCqHO.s 			page 1


   1              		.cpu cortex-m0plus
   2              		.arch armv6s-m
   3              		.fpu softvfp
   4              		.eabi_attribute 20, 1
   5              		.eabi_attribute 21, 1
   6              		.eabi_attribute 23, 3
   7              		.eabi_attribute 24, 1
   8              		.eabi_attribute 25, 1
   9              		.eabi_attribute 26, 1
  10              		.eabi_attribute 30, 1
  11              		.eabi_attribute 34, 0
  12              		.eabi_attribute 18, 4
  13              		.file	"stm32l0xx_hal_flash.c"
  14              		.text
  15              	.Ltext0:
  16              		.cfi_sections	.debug_frame
  17              		.section	.text.FLASH_SetErrorCode,"ax",%progbits
  18              		.align	1
  19              		.syntax unified
  20              		.code	16
  21              		.thumb_func
  23              	FLASH_SetErrorCode:
  24              	.LFB46:
  25              		.file 1 "Drivers/STM32L0xx_HAL_Driver/Src/stm32l0xx_hal_flash.c"
   1:Drivers/STM32L0xx_HAL_Driver/Src/stm32l0xx_hal_flash.c **** /**
   2:Drivers/STM32L0xx_HAL_Driver/Src/stm32l0xx_hal_flash.c ****   ******************************************************************************
   3:Drivers/STM32L0xx_HAL_Driver/Src/stm32l0xx_hal_flash.c ****   * @file    stm32l0xx_hal_flash.c
   4:Drivers/STM32L0xx_HAL_Driver/Src/stm32l0xx_hal_flash.c ****   * @author  MCD Application Team
   5:Drivers/STM32L0xx_HAL_Driver/Src/stm32l0xx_hal_flash.c ****   * @brief   FLASH HAL module driver.
   6:Drivers/STM32L0xx_HAL_Driver/Src/stm32l0xx_hal_flash.c ****   *          This file provides firmware functions to manage the following 
   7:Drivers/STM32L0xx_HAL_Driver/Src/stm32l0xx_hal_flash.c ****   *          functionalities of the internal FLASH memory:
   8:Drivers/STM32L0xx_HAL_Driver/Src/stm32l0xx_hal_flash.c ****   *           + Program operations functions
   9:Drivers/STM32L0xx_HAL_Driver/Src/stm32l0xx_hal_flash.c ****   *           + Memory Control functions 
  10:Drivers/STM32L0xx_HAL_Driver/Src/stm32l0xx_hal_flash.c ****   *           + Peripheral State functions
  11:Drivers/STM32L0xx_HAL_Driver/Src/stm32l0xx_hal_flash.c ****   *         
  12:Drivers/STM32L0xx_HAL_Driver/Src/stm32l0xx_hal_flash.c ****   @verbatim
  13:Drivers/STM32L0xx_HAL_Driver/Src/stm32l0xx_hal_flash.c ****   ==============================================================================
  14:Drivers/STM32L0xx_HAL_Driver/Src/stm32l0xx_hal_flash.c ****                         ##### FLASH peripheral features #####
  15:Drivers/STM32L0xx_HAL_Driver/Src/stm32l0xx_hal_flash.c ****   ==============================================================================
  16:Drivers/STM32L0xx_HAL_Driver/Src/stm32l0xx_hal_flash.c ****   [..] The Flash memory interface manages CPU AHB I-Code and D-Code accesses 
  17:Drivers/STM32L0xx_HAL_Driver/Src/stm32l0xx_hal_flash.c ****        to the Flash memory. It implements the erase and program Flash memory operations 
  18:Drivers/STM32L0xx_HAL_Driver/Src/stm32l0xx_hal_flash.c ****        and the read and write protection mechanisms.
  19:Drivers/STM32L0xx_HAL_Driver/Src/stm32l0xx_hal_flash.c **** 
  20:Drivers/STM32L0xx_HAL_Driver/Src/stm32l0xx_hal_flash.c ****   [..] The Flash memory interface accelerates code execution with a system of instruction
  21:Drivers/STM32L0xx_HAL_Driver/Src/stm32l0xx_hal_flash.c ****       prefetch. 
  22:Drivers/STM32L0xx_HAL_Driver/Src/stm32l0xx_hal_flash.c **** 
  23:Drivers/STM32L0xx_HAL_Driver/Src/stm32l0xx_hal_flash.c ****   [..] The FLASH main features are:
  24:Drivers/STM32L0xx_HAL_Driver/Src/stm32l0xx_hal_flash.c ****       (+) Flash memory read operations
  25:Drivers/STM32L0xx_HAL_Driver/Src/stm32l0xx_hal_flash.c ****       (+) Flash memory program/erase operations
  26:Drivers/STM32L0xx_HAL_Driver/Src/stm32l0xx_hal_flash.c ****       (+) Read / write protections
  27:Drivers/STM32L0xx_HAL_Driver/Src/stm32l0xx_hal_flash.c ****       (+) Prefetch on I-Code
  28:Drivers/STM32L0xx_HAL_Driver/Src/stm32l0xx_hal_flash.c ****       (+) Option Bytes programming
  29:Drivers/STM32L0xx_HAL_Driver/Src/stm32l0xx_hal_flash.c **** 
  30:Drivers/STM32L0xx_HAL_Driver/Src/stm32l0xx_hal_flash.c **** 
  31:Drivers/STM32L0xx_HAL_Driver/Src/stm32l0xx_hal_flash.c ****                      ##### How to use this driver #####
  32:Drivers/STM32L0xx_HAL_Driver/Src/stm32l0xx_hal_flash.c ****   ==============================================================================
  33:Drivers/STM32L0xx_HAL_Driver/Src/stm32l0xx_hal_flash.c ****   [..]                             
ARM GAS  /tmp/cc7HCqHO.s 			page 2


  34:Drivers/STM32L0xx_HAL_Driver/Src/stm32l0xx_hal_flash.c ****       This driver provides functions and macros to configure and program the FLASH 
  35:Drivers/STM32L0xx_HAL_Driver/Src/stm32l0xx_hal_flash.c ****       memory of all STM32L0xx devices.
  36:Drivers/STM32L0xx_HAL_Driver/Src/stm32l0xx_hal_flash.c ****     
  37:Drivers/STM32L0xx_HAL_Driver/Src/stm32l0xx_hal_flash.c ****       (#) FLASH Memory I/O Programming functions: this group includes all needed
  38:Drivers/STM32L0xx_HAL_Driver/Src/stm32l0xx_hal_flash.c ****           functions to erase and program the main memory:
  39:Drivers/STM32L0xx_HAL_Driver/Src/stm32l0xx_hal_flash.c ****         (++) Lock and Unlock the FLASH interface
  40:Drivers/STM32L0xx_HAL_Driver/Src/stm32l0xx_hal_flash.c ****         (++) Erase function: Erase page
  41:Drivers/STM32L0xx_HAL_Driver/Src/stm32l0xx_hal_flash.c ****         (++) Program functions: Fast Word and Half Page(should be 
  42:Drivers/STM32L0xx_HAL_Driver/Src/stm32l0xx_hal_flash.c ****         executed from internal SRAM).
  43:Drivers/STM32L0xx_HAL_Driver/Src/stm32l0xx_hal_flash.c ****   
  44:Drivers/STM32L0xx_HAL_Driver/Src/stm32l0xx_hal_flash.c ****       (#) DATA EEPROM Programming functions: this group includes all 
  45:Drivers/STM32L0xx_HAL_Driver/Src/stm32l0xx_hal_flash.c ****           needed functions to erase and program the DATA EEPROM memory:
  46:Drivers/STM32L0xx_HAL_Driver/Src/stm32l0xx_hal_flash.c ****         (++) Lock and Unlock the DATA EEPROM interface.
  47:Drivers/STM32L0xx_HAL_Driver/Src/stm32l0xx_hal_flash.c ****         (++) Erase function: Erase Byte, erase HalfWord, erase Word, erase 
  48:Drivers/STM32L0xx_HAL_Driver/Src/stm32l0xx_hal_flash.c ****              Double Word (should be executed from internal SRAM).
  49:Drivers/STM32L0xx_HAL_Driver/Src/stm32l0xx_hal_flash.c ****         (++) Program functions: Fast Program Byte, Fast Program Half-Word, 
  50:Drivers/STM32L0xx_HAL_Driver/Src/stm32l0xx_hal_flash.c ****              FastProgramWord, Program Byte, Program Half-Word, 
  51:Drivers/STM32L0xx_HAL_Driver/Src/stm32l0xx_hal_flash.c ****              Program Word and Program Double-Word (should be executed 
  52:Drivers/STM32L0xx_HAL_Driver/Src/stm32l0xx_hal_flash.c ****              from internal SRAM).
  53:Drivers/STM32L0xx_HAL_Driver/Src/stm32l0xx_hal_flash.c **** 
  54:Drivers/STM32L0xx_HAL_Driver/Src/stm32l0xx_hal_flash.c ****       (#) FLASH Option Bytes Programming functions: this group includes all needed
  55:Drivers/STM32L0xx_HAL_Driver/Src/stm32l0xx_hal_flash.c ****           functions to manage the Option Bytes:
  56:Drivers/STM32L0xx_HAL_Driver/Src/stm32l0xx_hal_flash.c ****         (++) Lock and Unlock the Option Bytes
  57:Drivers/STM32L0xx_HAL_Driver/Src/stm32l0xx_hal_flash.c ****         (++) Set/Reset the write protection
  58:Drivers/STM32L0xx_HAL_Driver/Src/stm32l0xx_hal_flash.c ****         (++) Set the Read protection Level
  59:Drivers/STM32L0xx_HAL_Driver/Src/stm32l0xx_hal_flash.c ****         (++) Program the user Option Bytes
  60:Drivers/STM32L0xx_HAL_Driver/Src/stm32l0xx_hal_flash.c ****         (++) Launch the Option Bytes loader
  61:Drivers/STM32L0xx_HAL_Driver/Src/stm32l0xx_hal_flash.c ****         (++) Set/Get the Read protection Level.
  62:Drivers/STM32L0xx_HAL_Driver/Src/stm32l0xx_hal_flash.c ****         (++) Set/Get the BOR level.
  63:Drivers/STM32L0xx_HAL_Driver/Src/stm32l0xx_hal_flash.c ****         (++) Get the Write protection.
  64:Drivers/STM32L0xx_HAL_Driver/Src/stm32l0xx_hal_flash.c ****         (++) Get the user option bytes.
  65:Drivers/STM32L0xx_HAL_Driver/Src/stm32l0xx_hal_flash.c ****     
  66:Drivers/STM32L0xx_HAL_Driver/Src/stm32l0xx_hal_flash.c ****       (#) Interrupts and flags management functions : this group 
  67:Drivers/STM32L0xx_HAL_Driver/Src/stm32l0xx_hal_flash.c ****           includes all needed functions to:
  68:Drivers/STM32L0xx_HAL_Driver/Src/stm32l0xx_hal_flash.c ****         (++) Handle FLASH interrupts
  69:Drivers/STM32L0xx_HAL_Driver/Src/stm32l0xx_hal_flash.c ****         (++) Wait for last FLASH operation according to its status
  70:Drivers/STM32L0xx_HAL_Driver/Src/stm32l0xx_hal_flash.c ****         (++) Get error flag status
  71:Drivers/STM32L0xx_HAL_Driver/Src/stm32l0xx_hal_flash.c **** 
  72:Drivers/STM32L0xx_HAL_Driver/Src/stm32l0xx_hal_flash.c ****     (#) FLASH Interface configuration functions: this group includes 
  73:Drivers/STM32L0xx_HAL_Driver/Src/stm32l0xx_hal_flash.c ****       the management of following features:
  74:Drivers/STM32L0xx_HAL_Driver/Src/stm32l0xx_hal_flash.c ****       (++) Enable/Disable the RUN PowerDown mode.
  75:Drivers/STM32L0xx_HAL_Driver/Src/stm32l0xx_hal_flash.c ****       (++) Enable/Disable the SLEEP PowerDown mode.  
  76:Drivers/STM32L0xx_HAL_Driver/Src/stm32l0xx_hal_flash.c ****   
  77:Drivers/STM32L0xx_HAL_Driver/Src/stm32l0xx_hal_flash.c ****     (#) FLASH Peripheral State methods: this group includes 
  78:Drivers/STM32L0xx_HAL_Driver/Src/stm32l0xx_hal_flash.c ****       the management of following features:
  79:Drivers/STM32L0xx_HAL_Driver/Src/stm32l0xx_hal_flash.c ****       (++) Wait for the FLASH operation
  80:Drivers/STM32L0xx_HAL_Driver/Src/stm32l0xx_hal_flash.c ****       (++)  Get the specific FLASH error flag
  81:Drivers/STM32L0xx_HAL_Driver/Src/stm32l0xx_hal_flash.c ****     
  82:Drivers/STM32L0xx_HAL_Driver/Src/stm32l0xx_hal_flash.c ****   [..] In addition to these function, this driver includes a set of macros allowing
  83:Drivers/STM32L0xx_HAL_Driver/Src/stm32l0xx_hal_flash.c ****        to handle the following operations:
  84:Drivers/STM32L0xx_HAL_Driver/Src/stm32l0xx_hal_flash.c ****       
  85:Drivers/STM32L0xx_HAL_Driver/Src/stm32l0xx_hal_flash.c ****       (+) Set/Get the latency
  86:Drivers/STM32L0xx_HAL_Driver/Src/stm32l0xx_hal_flash.c ****       (+) Enable/Disable the prefetch buffer
  87:Drivers/STM32L0xx_HAL_Driver/Src/stm32l0xx_hal_flash.c ****       (+) Enable/Disable the preread buffer
  88:Drivers/STM32L0xx_HAL_Driver/Src/stm32l0xx_hal_flash.c ****       (+) Enable/Disable the Flash power-down
  89:Drivers/STM32L0xx_HAL_Driver/Src/stm32l0xx_hal_flash.c ****       (+) Enable/Disable the FLASH interrupts
  90:Drivers/STM32L0xx_HAL_Driver/Src/stm32l0xx_hal_flash.c ****       (+) Monitor the FLASH flags status
ARM GAS  /tmp/cc7HCqHO.s 			page 3


  91:Drivers/STM32L0xx_HAL_Driver/Src/stm32l0xx_hal_flash.c ****           
  92:Drivers/STM32L0xx_HAL_Driver/Src/stm32l0xx_hal_flash.c ****                  ##### Programming operation functions #####
  93:Drivers/STM32L0xx_HAL_Driver/Src/stm32l0xx_hal_flash.c ****   ===============================================================================  
  94:Drivers/STM32L0xx_HAL_Driver/Src/stm32l0xx_hal_flash.c ****      [..]
  95:Drivers/STM32L0xx_HAL_Driver/Src/stm32l0xx_hal_flash.c ****      This subsection provides a set of functions allowing to manage the FLASH 
  96:Drivers/STM32L0xx_HAL_Driver/Src/stm32l0xx_hal_flash.c ****      program operations.
  97:Drivers/STM32L0xx_HAL_Driver/Src/stm32l0xx_hal_flash.c ****   
  98:Drivers/STM32L0xx_HAL_Driver/Src/stm32l0xx_hal_flash.c ****     [..] The FLASH Memory Programming functions, includes the following functions:
  99:Drivers/STM32L0xx_HAL_Driver/Src/stm32l0xx_hal_flash.c ****      (+) HAL_FLASH_Unlock(void);
 100:Drivers/STM32L0xx_HAL_Driver/Src/stm32l0xx_hal_flash.c ****      (+) HAL_FLASH_Lock(void);
 101:Drivers/STM32L0xx_HAL_Driver/Src/stm32l0xx_hal_flash.c ****      (+) HAL_FLASH_Program(uint32_t TypeProgram, uint32_t Address, uint32_t Data)
 102:Drivers/STM32L0xx_HAL_Driver/Src/stm32l0xx_hal_flash.c ****      (+) HAL_FLASH_Program_IT(uint32_t TypeProgram, uint32_t Address, uint32_t Data)
 103:Drivers/STM32L0xx_HAL_Driver/Src/stm32l0xx_hal_flash.c ****     
 104:Drivers/STM32L0xx_HAL_Driver/Src/stm32l0xx_hal_flash.c ****      [..] Any operation of erase or program should follow these steps:
 105:Drivers/STM32L0xx_HAL_Driver/Src/stm32l0xx_hal_flash.c ****      (#) Call the HAL_FLASH_Unlock() function to enable the flash control register and 
 106:Drivers/STM32L0xx_HAL_Driver/Src/stm32l0xx_hal_flash.c ****          program memory access.
 107:Drivers/STM32L0xx_HAL_Driver/Src/stm32l0xx_hal_flash.c ****      (#) Call the desired function to erase page or program data.
 108:Drivers/STM32L0xx_HAL_Driver/Src/stm32l0xx_hal_flash.c ****      (#) Call the HAL_FLASH_Lock() to disable the flash program memory access 
 109:Drivers/STM32L0xx_HAL_Driver/Src/stm32l0xx_hal_flash.c ****         (recommended to protect the FLASH memory against possible unwanted operation).
 110:Drivers/STM32L0xx_HAL_Driver/Src/stm32l0xx_hal_flash.c ****   
 111:Drivers/STM32L0xx_HAL_Driver/Src/stm32l0xx_hal_flash.c ****                ##### Option Bytes Programming functions ##### 
 112:Drivers/STM32L0xx_HAL_Driver/Src/stm32l0xx_hal_flash.c ****    ==============================================================================  
 113:Drivers/STM32L0xx_HAL_Driver/Src/stm32l0xx_hal_flash.c ****   
 114:Drivers/STM32L0xx_HAL_Driver/Src/stm32l0xx_hal_flash.c ****      [..] The FLASH_Option Bytes Programming_functions, includes the following functions:
 115:Drivers/STM32L0xx_HAL_Driver/Src/stm32l0xx_hal_flash.c ****      (+) HAL_FLASH_OB_Unlock(void);
 116:Drivers/STM32L0xx_HAL_Driver/Src/stm32l0xx_hal_flash.c ****      (+) HAL_FLASH_OB_Lock(void);
 117:Drivers/STM32L0xx_HAL_Driver/Src/stm32l0xx_hal_flash.c ****      (+) HAL_FLASH_OB_Launch(void);
 118:Drivers/STM32L0xx_HAL_Driver/Src/stm32l0xx_hal_flash.c ****      (+) HAL_FLASHEx_OBProgram(FLASH_OBProgramInitTypeDef *pOBInit);
 119:Drivers/STM32L0xx_HAL_Driver/Src/stm32l0xx_hal_flash.c ****      (+) HAL_FLASHEx_OBGetConfig(FLASH_OBProgramInitTypeDef *pOBInit);
 120:Drivers/STM32L0xx_HAL_Driver/Src/stm32l0xx_hal_flash.c ****     
 121:Drivers/STM32L0xx_HAL_Driver/Src/stm32l0xx_hal_flash.c ****      [..] Any operation of erase or program should follow these steps:
 122:Drivers/STM32L0xx_HAL_Driver/Src/stm32l0xx_hal_flash.c ****      (#) Call the HAL_FLASH_OB_Unlock() function to enable the Flash option control 
 123:Drivers/STM32L0xx_HAL_Driver/Src/stm32l0xx_hal_flash.c ****          register access.
 124:Drivers/STM32L0xx_HAL_Driver/Src/stm32l0xx_hal_flash.c ****      (#) Call the following functions to program the desired option bytes.
 125:Drivers/STM32L0xx_HAL_Driver/Src/stm32l0xx_hal_flash.c ****          (++) HAL_FLASHEx_OBProgram(FLASH_OBProgramInitTypeDef *pOBInit);      
 126:Drivers/STM32L0xx_HAL_Driver/Src/stm32l0xx_hal_flash.c ****      (#) Once all needed option bytes to be programmed are correctly written, call the
 127:Drivers/STM32L0xx_HAL_Driver/Src/stm32l0xx_hal_flash.c ****          HAL_FLASH_OB_Launch(void) function to launch the Option Bytes programming process.
 128:Drivers/STM32L0xx_HAL_Driver/Src/stm32l0xx_hal_flash.c ****      (#) Call the HAL_FLASH_OB_Lock() to disable the Flash option control register access (recommen
 129:Drivers/STM32L0xx_HAL_Driver/Src/stm32l0xx_hal_flash.c ****          to protect the option Bytes against possible unwanted operations).
 130:Drivers/STM32L0xx_HAL_Driver/Src/stm32l0xx_hal_flash.c ****   
 131:Drivers/STM32L0xx_HAL_Driver/Src/stm32l0xx_hal_flash.c ****     [..] Proprietary code Read Out Protection (PcROP):    
 132:Drivers/STM32L0xx_HAL_Driver/Src/stm32l0xx_hal_flash.c ****     (#) The PcROP sector is selected by using the same option bytes as the Write
 133:Drivers/STM32L0xx_HAL_Driver/Src/stm32l0xx_hal_flash.c ****         protection. As a result, these 2 options are exclusive each other.
 134:Drivers/STM32L0xx_HAL_Driver/Src/stm32l0xx_hal_flash.c ****     (#) To activate PCROP mode for Flash sectors(s), you need to follow the sequence below:
 135:Drivers/STM32L0xx_HAL_Driver/Src/stm32l0xx_hal_flash.c ****         (++) Use this function HAL_FLASHEx_AdvOBProgram with PCROPState = OB_PCROP_STATE_ENABLE.
 136:Drivers/STM32L0xx_HAL_Driver/Src/stm32l0xx_hal_flash.c **** 
 137:Drivers/STM32L0xx_HAL_Driver/Src/stm32l0xx_hal_flash.c ****   @endverbatim
 138:Drivers/STM32L0xx_HAL_Driver/Src/stm32l0xx_hal_flash.c ****   ******************************************************************************
 139:Drivers/STM32L0xx_HAL_Driver/Src/stm32l0xx_hal_flash.c ****   * @attention
 140:Drivers/STM32L0xx_HAL_Driver/Src/stm32l0xx_hal_flash.c ****   *
 141:Drivers/STM32L0xx_HAL_Driver/Src/stm32l0xx_hal_flash.c ****   * <h2><center>&copy; Copyright (c) 2016 STMicroelectronics. 
 142:Drivers/STM32L0xx_HAL_Driver/Src/stm32l0xx_hal_flash.c ****   * All rights reserved.</center></h2>
 143:Drivers/STM32L0xx_HAL_Driver/Src/stm32l0xx_hal_flash.c ****   *
 144:Drivers/STM32L0xx_HAL_Driver/Src/stm32l0xx_hal_flash.c ****   * This software component is licensed by ST under BSD 3-Clause license,
 145:Drivers/STM32L0xx_HAL_Driver/Src/stm32l0xx_hal_flash.c ****   * the "License"; You may not use this file except in compliance with the 
 146:Drivers/STM32L0xx_HAL_Driver/Src/stm32l0xx_hal_flash.c ****   * License. You may obtain a copy of the License at:
 147:Drivers/STM32L0xx_HAL_Driver/Src/stm32l0xx_hal_flash.c ****   *                        opensource.org/licenses/BSD-3-Clause
ARM GAS  /tmp/cc7HCqHO.s 			page 4


 148:Drivers/STM32L0xx_HAL_Driver/Src/stm32l0xx_hal_flash.c ****   *
 149:Drivers/STM32L0xx_HAL_Driver/Src/stm32l0xx_hal_flash.c ****   ******************************************************************************  
 150:Drivers/STM32L0xx_HAL_Driver/Src/stm32l0xx_hal_flash.c ****   */
 151:Drivers/STM32L0xx_HAL_Driver/Src/stm32l0xx_hal_flash.c **** 
 152:Drivers/STM32L0xx_HAL_Driver/Src/stm32l0xx_hal_flash.c **** /* Includes ------------------------------------------------------------------*/
 153:Drivers/STM32L0xx_HAL_Driver/Src/stm32l0xx_hal_flash.c **** #include "stm32l0xx_hal.h"
 154:Drivers/STM32L0xx_HAL_Driver/Src/stm32l0xx_hal_flash.c **** 
 155:Drivers/STM32L0xx_HAL_Driver/Src/stm32l0xx_hal_flash.c **** /** @addtogroup STM32L0xx_HAL_Driver
 156:Drivers/STM32L0xx_HAL_Driver/Src/stm32l0xx_hal_flash.c ****   * @{
 157:Drivers/STM32L0xx_HAL_Driver/Src/stm32l0xx_hal_flash.c ****   */
 158:Drivers/STM32L0xx_HAL_Driver/Src/stm32l0xx_hal_flash.c **** 
 159:Drivers/STM32L0xx_HAL_Driver/Src/stm32l0xx_hal_flash.c **** #ifdef HAL_FLASH_MODULE_ENABLED
 160:Drivers/STM32L0xx_HAL_Driver/Src/stm32l0xx_hal_flash.c **** 
 161:Drivers/STM32L0xx_HAL_Driver/Src/stm32l0xx_hal_flash.c **** /** @defgroup FLASH FLASH
 162:Drivers/STM32L0xx_HAL_Driver/Src/stm32l0xx_hal_flash.c ****   * @brief FLASH HAL module driver
 163:Drivers/STM32L0xx_HAL_Driver/Src/stm32l0xx_hal_flash.c ****   * @{
 164:Drivers/STM32L0xx_HAL_Driver/Src/stm32l0xx_hal_flash.c ****   */
 165:Drivers/STM32L0xx_HAL_Driver/Src/stm32l0xx_hal_flash.c **** 
 166:Drivers/STM32L0xx_HAL_Driver/Src/stm32l0xx_hal_flash.c **** /* Private typedef -----------------------------------------------------------*/
 167:Drivers/STM32L0xx_HAL_Driver/Src/stm32l0xx_hal_flash.c **** /* Private define ------------------------------------------------------------*/
 168:Drivers/STM32L0xx_HAL_Driver/Src/stm32l0xx_hal_flash.c **** /** @defgroup FLASH_Private_Constants FLASH Private Constants
 169:Drivers/STM32L0xx_HAL_Driver/Src/stm32l0xx_hal_flash.c ****   * @{
 170:Drivers/STM32L0xx_HAL_Driver/Src/stm32l0xx_hal_flash.c ****   */
 171:Drivers/STM32L0xx_HAL_Driver/Src/stm32l0xx_hal_flash.c **** /**
 172:Drivers/STM32L0xx_HAL_Driver/Src/stm32l0xx_hal_flash.c ****   * @}
 173:Drivers/STM32L0xx_HAL_Driver/Src/stm32l0xx_hal_flash.c ****   */
 174:Drivers/STM32L0xx_HAL_Driver/Src/stm32l0xx_hal_flash.c **** 
 175:Drivers/STM32L0xx_HAL_Driver/Src/stm32l0xx_hal_flash.c **** /* Private macro ---------------------------- ---------------------------------*/
 176:Drivers/STM32L0xx_HAL_Driver/Src/stm32l0xx_hal_flash.c **** /** @defgroup FLASH_Private_Macros FLASH Private Macros
 177:Drivers/STM32L0xx_HAL_Driver/Src/stm32l0xx_hal_flash.c ****   * @{
 178:Drivers/STM32L0xx_HAL_Driver/Src/stm32l0xx_hal_flash.c ****   */
 179:Drivers/STM32L0xx_HAL_Driver/Src/stm32l0xx_hal_flash.c ****  
 180:Drivers/STM32L0xx_HAL_Driver/Src/stm32l0xx_hal_flash.c **** /**
 181:Drivers/STM32L0xx_HAL_Driver/Src/stm32l0xx_hal_flash.c ****   * @}
 182:Drivers/STM32L0xx_HAL_Driver/Src/stm32l0xx_hal_flash.c ****   */
 183:Drivers/STM32L0xx_HAL_Driver/Src/stm32l0xx_hal_flash.c **** 
 184:Drivers/STM32L0xx_HAL_Driver/Src/stm32l0xx_hal_flash.c **** /* Private variables ---------------------------------------------------------*/
 185:Drivers/STM32L0xx_HAL_Driver/Src/stm32l0xx_hal_flash.c **** /** @defgroup FLASH_Private_Variables FLASH Private Variables
 186:Drivers/STM32L0xx_HAL_Driver/Src/stm32l0xx_hal_flash.c ****   * @{
 187:Drivers/STM32L0xx_HAL_Driver/Src/stm32l0xx_hal_flash.c ****   */
 188:Drivers/STM32L0xx_HAL_Driver/Src/stm32l0xx_hal_flash.c **** /* Variables used for Erase pages under interruption*/
 189:Drivers/STM32L0xx_HAL_Driver/Src/stm32l0xx_hal_flash.c **** FLASH_ProcessTypeDef pFlash;
 190:Drivers/STM32L0xx_HAL_Driver/Src/stm32l0xx_hal_flash.c **** /**
 191:Drivers/STM32L0xx_HAL_Driver/Src/stm32l0xx_hal_flash.c ****   * @}
 192:Drivers/STM32L0xx_HAL_Driver/Src/stm32l0xx_hal_flash.c ****   */
 193:Drivers/STM32L0xx_HAL_Driver/Src/stm32l0xx_hal_flash.c **** 
 194:Drivers/STM32L0xx_HAL_Driver/Src/stm32l0xx_hal_flash.c **** /* Private function prototypes -----------------------------------------------*/
 195:Drivers/STM32L0xx_HAL_Driver/Src/stm32l0xx_hal_flash.c **** /** @defgroup FLASH_Private_Functions FLASH Private Functions
 196:Drivers/STM32L0xx_HAL_Driver/Src/stm32l0xx_hal_flash.c ****   * @{
 197:Drivers/STM32L0xx_HAL_Driver/Src/stm32l0xx_hal_flash.c ****   */
 198:Drivers/STM32L0xx_HAL_Driver/Src/stm32l0xx_hal_flash.c **** static  void   FLASH_SetErrorCode(void);
 199:Drivers/STM32L0xx_HAL_Driver/Src/stm32l0xx_hal_flash.c **** extern void    FLASH_PageErase(uint32_t PageAddress);
 200:Drivers/STM32L0xx_HAL_Driver/Src/stm32l0xx_hal_flash.c **** /**
 201:Drivers/STM32L0xx_HAL_Driver/Src/stm32l0xx_hal_flash.c ****   * @}
 202:Drivers/STM32L0xx_HAL_Driver/Src/stm32l0xx_hal_flash.c ****   */
 203:Drivers/STM32L0xx_HAL_Driver/Src/stm32l0xx_hal_flash.c **** 
 204:Drivers/STM32L0xx_HAL_Driver/Src/stm32l0xx_hal_flash.c **** /* Exported functions ---------------------------------------------------------*/
ARM GAS  /tmp/cc7HCqHO.s 			page 5


 205:Drivers/STM32L0xx_HAL_Driver/Src/stm32l0xx_hal_flash.c **** /** @defgroup FLASH_Exported_Functions FLASH Exported Functions
 206:Drivers/STM32L0xx_HAL_Driver/Src/stm32l0xx_hal_flash.c ****   * @{
 207:Drivers/STM32L0xx_HAL_Driver/Src/stm32l0xx_hal_flash.c ****   */
 208:Drivers/STM32L0xx_HAL_Driver/Src/stm32l0xx_hal_flash.c ****   
 209:Drivers/STM32L0xx_HAL_Driver/Src/stm32l0xx_hal_flash.c **** /** @defgroup FLASH_Exported_Functions_Group1 Programming operation functions 
 210:Drivers/STM32L0xx_HAL_Driver/Src/stm32l0xx_hal_flash.c ****   *  @brief   Programming operation functions 
 211:Drivers/STM32L0xx_HAL_Driver/Src/stm32l0xx_hal_flash.c ****   *
 212:Drivers/STM32L0xx_HAL_Driver/Src/stm32l0xx_hal_flash.c **** @verbatim   
 213:Drivers/STM32L0xx_HAL_Driver/Src/stm32l0xx_hal_flash.c **** @endverbatim
 214:Drivers/STM32L0xx_HAL_Driver/Src/stm32l0xx_hal_flash.c ****   * @{
 215:Drivers/STM32L0xx_HAL_Driver/Src/stm32l0xx_hal_flash.c ****   */
 216:Drivers/STM32L0xx_HAL_Driver/Src/stm32l0xx_hal_flash.c **** 
 217:Drivers/STM32L0xx_HAL_Driver/Src/stm32l0xx_hal_flash.c **** /**
 218:Drivers/STM32L0xx_HAL_Driver/Src/stm32l0xx_hal_flash.c ****   * @brief  Program word at a specified address
 219:Drivers/STM32L0xx_HAL_Driver/Src/stm32l0xx_hal_flash.c ****   * @note   To correctly run this function, the HAL_FLASH_Unlock() function
 220:Drivers/STM32L0xx_HAL_Driver/Src/stm32l0xx_hal_flash.c ****   *         must be called before.
 221:Drivers/STM32L0xx_HAL_Driver/Src/stm32l0xx_hal_flash.c ****   *         Call the HAL_FLASH_Lock() to disable the flash memory access
 222:Drivers/STM32L0xx_HAL_Driver/Src/stm32l0xx_hal_flash.c ****   *         (recommended to protect the FLASH memory against possible unwanted operation).
 223:Drivers/STM32L0xx_HAL_Driver/Src/stm32l0xx_hal_flash.c ****   *
 224:Drivers/STM32L0xx_HAL_Driver/Src/stm32l0xx_hal_flash.c ****   * @param  TypeProgram   Indicate the way to program at a specified address.
 225:Drivers/STM32L0xx_HAL_Driver/Src/stm32l0xx_hal_flash.c ****   *                       This parameter can be a value of @ref FLASH_Type_Program
 226:Drivers/STM32L0xx_HAL_Driver/Src/stm32l0xx_hal_flash.c ****   * @param  Address       Specifie the address to be programmed.
 227:Drivers/STM32L0xx_HAL_Driver/Src/stm32l0xx_hal_flash.c ****   * @param  Data          Specifie the data to be programmed
 228:Drivers/STM32L0xx_HAL_Driver/Src/stm32l0xx_hal_flash.c ****   * 
 229:Drivers/STM32L0xx_HAL_Driver/Src/stm32l0xx_hal_flash.c ****   * @retval HAL_StatusTypeDef HAL Status
 230:Drivers/STM32L0xx_HAL_Driver/Src/stm32l0xx_hal_flash.c ****   */
 231:Drivers/STM32L0xx_HAL_Driver/Src/stm32l0xx_hal_flash.c **** HAL_StatusTypeDef HAL_FLASH_Program(uint32_t TypeProgram, uint32_t Address, uint32_t Data)
 232:Drivers/STM32L0xx_HAL_Driver/Src/stm32l0xx_hal_flash.c **** {
 233:Drivers/STM32L0xx_HAL_Driver/Src/stm32l0xx_hal_flash.c ****   HAL_StatusTypeDef status = HAL_ERROR;
 234:Drivers/STM32L0xx_HAL_Driver/Src/stm32l0xx_hal_flash.c ****   
 235:Drivers/STM32L0xx_HAL_Driver/Src/stm32l0xx_hal_flash.c ****   /* Process Locked */
 236:Drivers/STM32L0xx_HAL_Driver/Src/stm32l0xx_hal_flash.c ****   __HAL_LOCK(&pFlash);
 237:Drivers/STM32L0xx_HAL_Driver/Src/stm32l0xx_hal_flash.c **** 
 238:Drivers/STM32L0xx_HAL_Driver/Src/stm32l0xx_hal_flash.c ****   /* Check the parameters */
 239:Drivers/STM32L0xx_HAL_Driver/Src/stm32l0xx_hal_flash.c ****   assert_param(IS_FLASH_TYPEPROGRAM(TypeProgram));
 240:Drivers/STM32L0xx_HAL_Driver/Src/stm32l0xx_hal_flash.c ****   assert_param(IS_FLASH_PROGRAM_ADDRESS(Address));
 241:Drivers/STM32L0xx_HAL_Driver/Src/stm32l0xx_hal_flash.c **** 
 242:Drivers/STM32L0xx_HAL_Driver/Src/stm32l0xx_hal_flash.c ****   /* Wait for last operation to be completed */
 243:Drivers/STM32L0xx_HAL_Driver/Src/stm32l0xx_hal_flash.c ****   status = FLASH_WaitForLastOperation(FLASH_TIMEOUT_VALUE);
 244:Drivers/STM32L0xx_HAL_Driver/Src/stm32l0xx_hal_flash.c ****   
 245:Drivers/STM32L0xx_HAL_Driver/Src/stm32l0xx_hal_flash.c ****   if(status == HAL_OK)
 246:Drivers/STM32L0xx_HAL_Driver/Src/stm32l0xx_hal_flash.c ****   {
 247:Drivers/STM32L0xx_HAL_Driver/Src/stm32l0xx_hal_flash.c ****     /* Clean the error context */
 248:Drivers/STM32L0xx_HAL_Driver/Src/stm32l0xx_hal_flash.c ****     pFlash.ErrorCode = HAL_FLASH_ERROR_NONE;
 249:Drivers/STM32L0xx_HAL_Driver/Src/stm32l0xx_hal_flash.c **** 
 250:Drivers/STM32L0xx_HAL_Driver/Src/stm32l0xx_hal_flash.c ****     /*Program word (32-bit) at a specified address.*/
 251:Drivers/STM32L0xx_HAL_Driver/Src/stm32l0xx_hal_flash.c ****     *(__IO uint32_t *)Address = Data;
 252:Drivers/STM32L0xx_HAL_Driver/Src/stm32l0xx_hal_flash.c **** 
 253:Drivers/STM32L0xx_HAL_Driver/Src/stm32l0xx_hal_flash.c ****     /* Wait for last operation to be completed */
 254:Drivers/STM32L0xx_HAL_Driver/Src/stm32l0xx_hal_flash.c ****     status = FLASH_WaitForLastOperation(FLASH_TIMEOUT_VALUE);
 255:Drivers/STM32L0xx_HAL_Driver/Src/stm32l0xx_hal_flash.c ****   }
 256:Drivers/STM32L0xx_HAL_Driver/Src/stm32l0xx_hal_flash.c **** 
 257:Drivers/STM32L0xx_HAL_Driver/Src/stm32l0xx_hal_flash.c ****   /* Process Unlocked */
 258:Drivers/STM32L0xx_HAL_Driver/Src/stm32l0xx_hal_flash.c ****   __HAL_UNLOCK(&pFlash);
 259:Drivers/STM32L0xx_HAL_Driver/Src/stm32l0xx_hal_flash.c **** 
 260:Drivers/STM32L0xx_HAL_Driver/Src/stm32l0xx_hal_flash.c ****   return status;
 261:Drivers/STM32L0xx_HAL_Driver/Src/stm32l0xx_hal_flash.c **** }
ARM GAS  /tmp/cc7HCqHO.s 			page 6


 262:Drivers/STM32L0xx_HAL_Driver/Src/stm32l0xx_hal_flash.c **** 
 263:Drivers/STM32L0xx_HAL_Driver/Src/stm32l0xx_hal_flash.c **** /**
 264:Drivers/STM32L0xx_HAL_Driver/Src/stm32l0xx_hal_flash.c ****   * @brief   Program word at a specified address  with interrupt enabled.
 265:Drivers/STM32L0xx_HAL_Driver/Src/stm32l0xx_hal_flash.c ****   *
 266:Drivers/STM32L0xx_HAL_Driver/Src/stm32l0xx_hal_flash.c ****   * @param  TypeProgram  Indicate the way to program at a specified address.
 267:Drivers/STM32L0xx_HAL_Driver/Src/stm32l0xx_hal_flash.c ****   *                      This parameter can be a value of @ref FLASH_Type_Program
 268:Drivers/STM32L0xx_HAL_Driver/Src/stm32l0xx_hal_flash.c ****   * @param  Address      Specifie the address to be programmed.
 269:Drivers/STM32L0xx_HAL_Driver/Src/stm32l0xx_hal_flash.c ****   * @param  Data         Specifie the data to be programmed
 270:Drivers/STM32L0xx_HAL_Driver/Src/stm32l0xx_hal_flash.c ****   * 
 271:Drivers/STM32L0xx_HAL_Driver/Src/stm32l0xx_hal_flash.c ****   * @retval HAL_StatusTypeDef HAL Status
 272:Drivers/STM32L0xx_HAL_Driver/Src/stm32l0xx_hal_flash.c ****   */
 273:Drivers/STM32L0xx_HAL_Driver/Src/stm32l0xx_hal_flash.c **** HAL_StatusTypeDef HAL_FLASH_Program_IT(uint32_t TypeProgram, uint32_t Address, uint32_t Data)
 274:Drivers/STM32L0xx_HAL_Driver/Src/stm32l0xx_hal_flash.c **** {
 275:Drivers/STM32L0xx_HAL_Driver/Src/stm32l0xx_hal_flash.c ****   HAL_StatusTypeDef status = HAL_OK;
 276:Drivers/STM32L0xx_HAL_Driver/Src/stm32l0xx_hal_flash.c ****   
 277:Drivers/STM32L0xx_HAL_Driver/Src/stm32l0xx_hal_flash.c ****   /* Process Locked */
 278:Drivers/STM32L0xx_HAL_Driver/Src/stm32l0xx_hal_flash.c ****   __HAL_LOCK(&pFlash);
 279:Drivers/STM32L0xx_HAL_Driver/Src/stm32l0xx_hal_flash.c **** 
 280:Drivers/STM32L0xx_HAL_Driver/Src/stm32l0xx_hal_flash.c ****   /* Check the parameters */
 281:Drivers/STM32L0xx_HAL_Driver/Src/stm32l0xx_hal_flash.c ****   assert_param(IS_FLASH_TYPEPROGRAM(TypeProgram));
 282:Drivers/STM32L0xx_HAL_Driver/Src/stm32l0xx_hal_flash.c ****   assert_param(IS_FLASH_PROGRAM_ADDRESS(Address));
 283:Drivers/STM32L0xx_HAL_Driver/Src/stm32l0xx_hal_flash.c **** 
 284:Drivers/STM32L0xx_HAL_Driver/Src/stm32l0xx_hal_flash.c ****   /* Enable End of FLASH Operation and Error source interrupts */
 285:Drivers/STM32L0xx_HAL_Driver/Src/stm32l0xx_hal_flash.c ****   __HAL_FLASH_ENABLE_IT(FLASH_IT_EOP | FLASH_IT_ERR);
 286:Drivers/STM32L0xx_HAL_Driver/Src/stm32l0xx_hal_flash.c ****   
 287:Drivers/STM32L0xx_HAL_Driver/Src/stm32l0xx_hal_flash.c ****   pFlash.Address = Address;
 288:Drivers/STM32L0xx_HAL_Driver/Src/stm32l0xx_hal_flash.c ****   pFlash.ProcedureOnGoing = FLASH_PROC_PROGRAM;
 289:Drivers/STM32L0xx_HAL_Driver/Src/stm32l0xx_hal_flash.c ****   /* Clean the error context */
 290:Drivers/STM32L0xx_HAL_Driver/Src/stm32l0xx_hal_flash.c ****   pFlash.ErrorCode = HAL_FLASH_ERROR_NONE;
 291:Drivers/STM32L0xx_HAL_Driver/Src/stm32l0xx_hal_flash.c **** 
 292:Drivers/STM32L0xx_HAL_Driver/Src/stm32l0xx_hal_flash.c ****   if(TypeProgram == FLASH_TYPEPROGRAM_WORD)
 293:Drivers/STM32L0xx_HAL_Driver/Src/stm32l0xx_hal_flash.c ****   {
 294:Drivers/STM32L0xx_HAL_Driver/Src/stm32l0xx_hal_flash.c ****     /* Program word (32-bit) at a specified address. */
 295:Drivers/STM32L0xx_HAL_Driver/Src/stm32l0xx_hal_flash.c ****     *(__IO uint32_t *)Address = Data;
 296:Drivers/STM32L0xx_HAL_Driver/Src/stm32l0xx_hal_flash.c ****   }
 297:Drivers/STM32L0xx_HAL_Driver/Src/stm32l0xx_hal_flash.c ****   return status;
 298:Drivers/STM32L0xx_HAL_Driver/Src/stm32l0xx_hal_flash.c **** }
 299:Drivers/STM32L0xx_HAL_Driver/Src/stm32l0xx_hal_flash.c **** 
 300:Drivers/STM32L0xx_HAL_Driver/Src/stm32l0xx_hal_flash.c **** /**
 301:Drivers/STM32L0xx_HAL_Driver/Src/stm32l0xx_hal_flash.c ****   * @brief This function handles FLASH interrupt request.
 302:Drivers/STM32L0xx_HAL_Driver/Src/stm32l0xx_hal_flash.c ****   * @retval None
 303:Drivers/STM32L0xx_HAL_Driver/Src/stm32l0xx_hal_flash.c ****   */
 304:Drivers/STM32L0xx_HAL_Driver/Src/stm32l0xx_hal_flash.c **** void HAL_FLASH_IRQHandler(void)
 305:Drivers/STM32L0xx_HAL_Driver/Src/stm32l0xx_hal_flash.c **** {
 306:Drivers/STM32L0xx_HAL_Driver/Src/stm32l0xx_hal_flash.c ****   uint32_t addresstmp = 0;
 307:Drivers/STM32L0xx_HAL_Driver/Src/stm32l0xx_hal_flash.c ****   
 308:Drivers/STM32L0xx_HAL_Driver/Src/stm32l0xx_hal_flash.c ****   /* Check FLASH operation error flags */
 309:Drivers/STM32L0xx_HAL_Driver/Src/stm32l0xx_hal_flash.c **** 
 310:Drivers/STM32L0xx_HAL_Driver/Src/stm32l0xx_hal_flash.c ****   /* WARNING : On the first cut of STM32L031xx and STM32L041xx devices,
 311:Drivers/STM32L0xx_HAL_Driver/Src/stm32l0xx_hal_flash.c ****    *           (RefID = 0x1000) the FLASH_FLAG_OPTVERR bit was not behaving
 312:Drivers/STM32L0xx_HAL_Driver/Src/stm32l0xx_hal_flash.c ****    *           as expected. If the user run an application using the first
 313:Drivers/STM32L0xx_HAL_Driver/Src/stm32l0xx_hal_flash.c ****    *           cut of the STM32L031xx device or the first cut of the STM32L041xx
 314:Drivers/STM32L0xx_HAL_Driver/Src/stm32l0xx_hal_flash.c ****    *           device, the check on the FLASH_FLAG_OPTVERR bit should be ignored.
 315:Drivers/STM32L0xx_HAL_Driver/Src/stm32l0xx_hal_flash.c ****    *
 316:Drivers/STM32L0xx_HAL_Driver/Src/stm32l0xx_hal_flash.c ****    *           Note :The revId of the device can be retrieved via the HAL_GetREVID()
 317:Drivers/STM32L0xx_HAL_Driver/Src/stm32l0xx_hal_flash.c ****    *           function.
 318:Drivers/STM32L0xx_HAL_Driver/Src/stm32l0xx_hal_flash.c ****    *
ARM GAS  /tmp/cc7HCqHO.s 			page 7


 319:Drivers/STM32L0xx_HAL_Driver/Src/stm32l0xx_hal_flash.c ****    */
 320:Drivers/STM32L0xx_HAL_Driver/Src/stm32l0xx_hal_flash.c **** 
 321:Drivers/STM32L0xx_HAL_Driver/Src/stm32l0xx_hal_flash.c ****   if( __HAL_FLASH_GET_FLAG(FLASH_FLAG_WRPERR)     || 
 322:Drivers/STM32L0xx_HAL_Driver/Src/stm32l0xx_hal_flash.c ****       __HAL_FLASH_GET_FLAG(FLASH_FLAG_PGAERR)     || 
 323:Drivers/STM32L0xx_HAL_Driver/Src/stm32l0xx_hal_flash.c ****       __HAL_FLASH_GET_FLAG(FLASH_FLAG_SIZERR)     || 
 324:Drivers/STM32L0xx_HAL_Driver/Src/stm32l0xx_hal_flash.c ****       __HAL_FLASH_GET_FLAG(FLASH_FLAG_OPTVERR)    || 
 325:Drivers/STM32L0xx_HAL_Driver/Src/stm32l0xx_hal_flash.c ****       __HAL_FLASH_GET_FLAG(FLASH_FLAG_RDERR)      || 
 326:Drivers/STM32L0xx_HAL_Driver/Src/stm32l0xx_hal_flash.c ****       __HAL_FLASH_GET_FLAG(FLASH_FLAG_FWWERR)     || 
 327:Drivers/STM32L0xx_HAL_Driver/Src/stm32l0xx_hal_flash.c ****       __HAL_FLASH_GET_FLAG(FLASH_FLAG_NOTZEROERR) )
 328:Drivers/STM32L0xx_HAL_Driver/Src/stm32l0xx_hal_flash.c ****   {
 329:Drivers/STM32L0xx_HAL_Driver/Src/stm32l0xx_hal_flash.c ****     if(pFlash.ProcedureOnGoing == FLASH_PROC_PAGEERASE)
 330:Drivers/STM32L0xx_HAL_Driver/Src/stm32l0xx_hal_flash.c ****     {
 331:Drivers/STM32L0xx_HAL_Driver/Src/stm32l0xx_hal_flash.c ****       /* Return the faulty sector */
 332:Drivers/STM32L0xx_HAL_Driver/Src/stm32l0xx_hal_flash.c ****       addresstmp = pFlash.Page;
 333:Drivers/STM32L0xx_HAL_Driver/Src/stm32l0xx_hal_flash.c ****       pFlash.Page = 0xFFFFFFFFU;
 334:Drivers/STM32L0xx_HAL_Driver/Src/stm32l0xx_hal_flash.c ****     }
 335:Drivers/STM32L0xx_HAL_Driver/Src/stm32l0xx_hal_flash.c ****     else
 336:Drivers/STM32L0xx_HAL_Driver/Src/stm32l0xx_hal_flash.c ****     {
 337:Drivers/STM32L0xx_HAL_Driver/Src/stm32l0xx_hal_flash.c ****       /* Return the faulty address */
 338:Drivers/STM32L0xx_HAL_Driver/Src/stm32l0xx_hal_flash.c ****       addresstmp = pFlash.Address;
 339:Drivers/STM32L0xx_HAL_Driver/Src/stm32l0xx_hal_flash.c ****     }
 340:Drivers/STM32L0xx_HAL_Driver/Src/stm32l0xx_hal_flash.c ****     /* Save the Error code */
 341:Drivers/STM32L0xx_HAL_Driver/Src/stm32l0xx_hal_flash.c ****     FLASH_SetErrorCode();
 342:Drivers/STM32L0xx_HAL_Driver/Src/stm32l0xx_hal_flash.c ****     
 343:Drivers/STM32L0xx_HAL_Driver/Src/stm32l0xx_hal_flash.c ****     /* FLASH error interrupt user callback */
 344:Drivers/STM32L0xx_HAL_Driver/Src/stm32l0xx_hal_flash.c ****     HAL_FLASH_OperationErrorCallback(addresstmp);
 345:Drivers/STM32L0xx_HAL_Driver/Src/stm32l0xx_hal_flash.c **** 
 346:Drivers/STM32L0xx_HAL_Driver/Src/stm32l0xx_hal_flash.c ****     /* Stop the procedure ongoing */
 347:Drivers/STM32L0xx_HAL_Driver/Src/stm32l0xx_hal_flash.c ****     pFlash.ProcedureOnGoing = FLASH_PROC_NONE;
 348:Drivers/STM32L0xx_HAL_Driver/Src/stm32l0xx_hal_flash.c ****   }
 349:Drivers/STM32L0xx_HAL_Driver/Src/stm32l0xx_hal_flash.c **** 
 350:Drivers/STM32L0xx_HAL_Driver/Src/stm32l0xx_hal_flash.c ****   /* Check FLASH End of Operation flag  */
 351:Drivers/STM32L0xx_HAL_Driver/Src/stm32l0xx_hal_flash.c ****   if(__HAL_FLASH_GET_FLAG(FLASH_FLAG_EOP))
 352:Drivers/STM32L0xx_HAL_Driver/Src/stm32l0xx_hal_flash.c ****   {
 353:Drivers/STM32L0xx_HAL_Driver/Src/stm32l0xx_hal_flash.c ****     /* Clear FLASH End of Operation pending bit */
 354:Drivers/STM32L0xx_HAL_Driver/Src/stm32l0xx_hal_flash.c ****     __HAL_FLASH_CLEAR_FLAG(FLASH_FLAG_EOP);
 355:Drivers/STM32L0xx_HAL_Driver/Src/stm32l0xx_hal_flash.c ****     
 356:Drivers/STM32L0xx_HAL_Driver/Src/stm32l0xx_hal_flash.c ****     /* Process can continue only if no error detected */
 357:Drivers/STM32L0xx_HAL_Driver/Src/stm32l0xx_hal_flash.c ****     if(pFlash.ProcedureOnGoing != FLASH_PROC_NONE)
 358:Drivers/STM32L0xx_HAL_Driver/Src/stm32l0xx_hal_flash.c ****     {
 359:Drivers/STM32L0xx_HAL_Driver/Src/stm32l0xx_hal_flash.c ****       if(pFlash.ProcedureOnGoing == FLASH_PROC_PAGEERASE)
 360:Drivers/STM32L0xx_HAL_Driver/Src/stm32l0xx_hal_flash.c ****       {
 361:Drivers/STM32L0xx_HAL_Driver/Src/stm32l0xx_hal_flash.c ****         /* Nb of pages to erased can be decreased */
 362:Drivers/STM32L0xx_HAL_Driver/Src/stm32l0xx_hal_flash.c ****         pFlash.NbPagesToErase--;
 363:Drivers/STM32L0xx_HAL_Driver/Src/stm32l0xx_hal_flash.c **** 
 364:Drivers/STM32L0xx_HAL_Driver/Src/stm32l0xx_hal_flash.c ****         /* Check if there are still pages to erase */
 365:Drivers/STM32L0xx_HAL_Driver/Src/stm32l0xx_hal_flash.c ****         if(pFlash.NbPagesToErase != 0U)
 366:Drivers/STM32L0xx_HAL_Driver/Src/stm32l0xx_hal_flash.c ****         {
 367:Drivers/STM32L0xx_HAL_Driver/Src/stm32l0xx_hal_flash.c ****           addresstmp = pFlash.Page;
 368:Drivers/STM32L0xx_HAL_Driver/Src/stm32l0xx_hal_flash.c ****           /*Indicate user which sector has been erased */
 369:Drivers/STM32L0xx_HAL_Driver/Src/stm32l0xx_hal_flash.c ****           HAL_FLASH_EndOfOperationCallback(addresstmp);
 370:Drivers/STM32L0xx_HAL_Driver/Src/stm32l0xx_hal_flash.c **** 
 371:Drivers/STM32L0xx_HAL_Driver/Src/stm32l0xx_hal_flash.c ****           /*Increment sector number*/
 372:Drivers/STM32L0xx_HAL_Driver/Src/stm32l0xx_hal_flash.c ****           addresstmp = pFlash.Page + FLASH_PAGE_SIZE;
 373:Drivers/STM32L0xx_HAL_Driver/Src/stm32l0xx_hal_flash.c ****           pFlash.Page = addresstmp;
 374:Drivers/STM32L0xx_HAL_Driver/Src/stm32l0xx_hal_flash.c **** 
 375:Drivers/STM32L0xx_HAL_Driver/Src/stm32l0xx_hal_flash.c ****           /* If the erase operation is completed, disable the ERASE Bit */
ARM GAS  /tmp/cc7HCqHO.s 			page 8


 376:Drivers/STM32L0xx_HAL_Driver/Src/stm32l0xx_hal_flash.c ****           CLEAR_BIT(FLASH->PECR, FLASH_PECR_ERASE);
 377:Drivers/STM32L0xx_HAL_Driver/Src/stm32l0xx_hal_flash.c **** 
 378:Drivers/STM32L0xx_HAL_Driver/Src/stm32l0xx_hal_flash.c ****           FLASH_PageErase(addresstmp);
 379:Drivers/STM32L0xx_HAL_Driver/Src/stm32l0xx_hal_flash.c ****         }
 380:Drivers/STM32L0xx_HAL_Driver/Src/stm32l0xx_hal_flash.c ****         else
 381:Drivers/STM32L0xx_HAL_Driver/Src/stm32l0xx_hal_flash.c ****         {
 382:Drivers/STM32L0xx_HAL_Driver/Src/stm32l0xx_hal_flash.c ****           /* No more pages to Erase, user callback can be called. */
 383:Drivers/STM32L0xx_HAL_Driver/Src/stm32l0xx_hal_flash.c ****           /* Reset Sector and stop Erase pages procedure */
 384:Drivers/STM32L0xx_HAL_Driver/Src/stm32l0xx_hal_flash.c ****           pFlash.Page = addresstmp = 0xFFFFFFFFU;
 385:Drivers/STM32L0xx_HAL_Driver/Src/stm32l0xx_hal_flash.c ****           pFlash.ProcedureOnGoing = FLASH_PROC_NONE;
 386:Drivers/STM32L0xx_HAL_Driver/Src/stm32l0xx_hal_flash.c ****           /* FLASH EOP interrupt user callback */
 387:Drivers/STM32L0xx_HAL_Driver/Src/stm32l0xx_hal_flash.c ****           HAL_FLASH_EndOfOperationCallback(addresstmp);
 388:Drivers/STM32L0xx_HAL_Driver/Src/stm32l0xx_hal_flash.c ****         }
 389:Drivers/STM32L0xx_HAL_Driver/Src/stm32l0xx_hal_flash.c ****       }
 390:Drivers/STM32L0xx_HAL_Driver/Src/stm32l0xx_hal_flash.c ****       else
 391:Drivers/STM32L0xx_HAL_Driver/Src/stm32l0xx_hal_flash.c ****       {
 392:Drivers/STM32L0xx_HAL_Driver/Src/stm32l0xx_hal_flash.c ****           /* If the program operation is completed, disable the PROG Bit */
 393:Drivers/STM32L0xx_HAL_Driver/Src/stm32l0xx_hal_flash.c ****           CLEAR_BIT(FLASH->PECR, FLASH_PECR_PROG);
 394:Drivers/STM32L0xx_HAL_Driver/Src/stm32l0xx_hal_flash.c **** 
 395:Drivers/STM32L0xx_HAL_Driver/Src/stm32l0xx_hal_flash.c ****           /* Program ended. Return the selected address */
 396:Drivers/STM32L0xx_HAL_Driver/Src/stm32l0xx_hal_flash.c ****           /* FLASH EOP interrupt user callback */
 397:Drivers/STM32L0xx_HAL_Driver/Src/stm32l0xx_hal_flash.c ****           HAL_FLASH_EndOfOperationCallback(pFlash.Address);
 398:Drivers/STM32L0xx_HAL_Driver/Src/stm32l0xx_hal_flash.c ****         
 399:Drivers/STM32L0xx_HAL_Driver/Src/stm32l0xx_hal_flash.c ****           /* Reset Address and stop Program procedure */
 400:Drivers/STM32L0xx_HAL_Driver/Src/stm32l0xx_hal_flash.c ****           pFlash.Address = 0xFFFFFFFFU;
 401:Drivers/STM32L0xx_HAL_Driver/Src/stm32l0xx_hal_flash.c ****           pFlash.ProcedureOnGoing = FLASH_PROC_NONE;
 402:Drivers/STM32L0xx_HAL_Driver/Src/stm32l0xx_hal_flash.c ****       }
 403:Drivers/STM32L0xx_HAL_Driver/Src/stm32l0xx_hal_flash.c ****     }
 404:Drivers/STM32L0xx_HAL_Driver/Src/stm32l0xx_hal_flash.c ****   }
 405:Drivers/STM32L0xx_HAL_Driver/Src/stm32l0xx_hal_flash.c ****   
 406:Drivers/STM32L0xx_HAL_Driver/Src/stm32l0xx_hal_flash.c **** 
 407:Drivers/STM32L0xx_HAL_Driver/Src/stm32l0xx_hal_flash.c ****   if(pFlash.ProcedureOnGoing == FLASH_PROC_NONE)
 408:Drivers/STM32L0xx_HAL_Driver/Src/stm32l0xx_hal_flash.c ****   {
 409:Drivers/STM32L0xx_HAL_Driver/Src/stm32l0xx_hal_flash.c ****     /* Operation is completed, disable the PROG and ERASE */
 410:Drivers/STM32L0xx_HAL_Driver/Src/stm32l0xx_hal_flash.c ****     CLEAR_BIT(FLASH->PECR, (FLASH_PECR_ERASE | FLASH_PECR_PROG));
 411:Drivers/STM32L0xx_HAL_Driver/Src/stm32l0xx_hal_flash.c **** 
 412:Drivers/STM32L0xx_HAL_Driver/Src/stm32l0xx_hal_flash.c ****     /* Disable End of FLASH Operation and Error source interrupts */
 413:Drivers/STM32L0xx_HAL_Driver/Src/stm32l0xx_hal_flash.c ****     __HAL_FLASH_DISABLE_IT(FLASH_IT_EOP | FLASH_IT_ERR);
 414:Drivers/STM32L0xx_HAL_Driver/Src/stm32l0xx_hal_flash.c **** 
 415:Drivers/STM32L0xx_HAL_Driver/Src/stm32l0xx_hal_flash.c ****     /* Process Unlocked */
 416:Drivers/STM32L0xx_HAL_Driver/Src/stm32l0xx_hal_flash.c ****     __HAL_UNLOCK(&pFlash);
 417:Drivers/STM32L0xx_HAL_Driver/Src/stm32l0xx_hal_flash.c ****   }
 418:Drivers/STM32L0xx_HAL_Driver/Src/stm32l0xx_hal_flash.c **** }
 419:Drivers/STM32L0xx_HAL_Driver/Src/stm32l0xx_hal_flash.c **** 
 420:Drivers/STM32L0xx_HAL_Driver/Src/stm32l0xx_hal_flash.c **** /**
 421:Drivers/STM32L0xx_HAL_Driver/Src/stm32l0xx_hal_flash.c ****   * @brief  FLASH end of operation interrupt callback
 422:Drivers/STM32L0xx_HAL_Driver/Src/stm32l0xx_hal_flash.c ****   * @param  ReturnValue The value saved in this parameter depends on the ongoing procedure
 423:Drivers/STM32L0xx_HAL_Driver/Src/stm32l0xx_hal_flash.c ****   *                 - Pages Erase: Address of the page which has been erased 
 424:Drivers/STM32L0xx_HAL_Driver/Src/stm32l0xx_hal_flash.c ****   *                    (if 0xFFFFFFFF, it means that all the selected pages have been erased)
 425:Drivers/STM32L0xx_HAL_Driver/Src/stm32l0xx_hal_flash.c ****   *                 - Program: Address which was selected for data program
 426:Drivers/STM32L0xx_HAL_Driver/Src/stm32l0xx_hal_flash.c ****   * @retval none
 427:Drivers/STM32L0xx_HAL_Driver/Src/stm32l0xx_hal_flash.c ****   */
 428:Drivers/STM32L0xx_HAL_Driver/Src/stm32l0xx_hal_flash.c **** __weak void HAL_FLASH_EndOfOperationCallback(uint32_t ReturnValue)
 429:Drivers/STM32L0xx_HAL_Driver/Src/stm32l0xx_hal_flash.c **** {
 430:Drivers/STM32L0xx_HAL_Driver/Src/stm32l0xx_hal_flash.c ****   /* Prevent unused argument(s) compilation warning */
 431:Drivers/STM32L0xx_HAL_Driver/Src/stm32l0xx_hal_flash.c ****   UNUSED(ReturnValue);
 432:Drivers/STM32L0xx_HAL_Driver/Src/stm32l0xx_hal_flash.c **** 
ARM GAS  /tmp/cc7HCqHO.s 			page 9


 433:Drivers/STM32L0xx_HAL_Driver/Src/stm32l0xx_hal_flash.c ****   /* NOTE : This function Should not be modified, when the callback is needed,
 434:Drivers/STM32L0xx_HAL_Driver/Src/stm32l0xx_hal_flash.c ****             the HAL_FLASH_EndOfOperationCallback could be implemented in the user file
 435:Drivers/STM32L0xx_HAL_Driver/Src/stm32l0xx_hal_flash.c ****    */ 
 436:Drivers/STM32L0xx_HAL_Driver/Src/stm32l0xx_hal_flash.c **** }
 437:Drivers/STM32L0xx_HAL_Driver/Src/stm32l0xx_hal_flash.c **** 
 438:Drivers/STM32L0xx_HAL_Driver/Src/stm32l0xx_hal_flash.c **** /**
 439:Drivers/STM32L0xx_HAL_Driver/Src/stm32l0xx_hal_flash.c ****   * @brief  FLASH operation error interrupt callback
 440:Drivers/STM32L0xx_HAL_Driver/Src/stm32l0xx_hal_flash.c ****   * @param  ReturnValue The value saved in this parameter depends on the ongoing procedure
 441:Drivers/STM32L0xx_HAL_Driver/Src/stm32l0xx_hal_flash.c ****   *                 - Pages Erase: Address of the page which returned an error
 442:Drivers/STM32L0xx_HAL_Driver/Src/stm32l0xx_hal_flash.c ****   *                 - Program: Address which was selected for data program
 443:Drivers/STM32L0xx_HAL_Driver/Src/stm32l0xx_hal_flash.c ****   * @retval none
 444:Drivers/STM32L0xx_HAL_Driver/Src/stm32l0xx_hal_flash.c ****   */
 445:Drivers/STM32L0xx_HAL_Driver/Src/stm32l0xx_hal_flash.c **** __weak void HAL_FLASH_OperationErrorCallback(uint32_t ReturnValue)
 446:Drivers/STM32L0xx_HAL_Driver/Src/stm32l0xx_hal_flash.c **** {
 447:Drivers/STM32L0xx_HAL_Driver/Src/stm32l0xx_hal_flash.c ****   /* Prevent unused argument(s) compilation warning */
 448:Drivers/STM32L0xx_HAL_Driver/Src/stm32l0xx_hal_flash.c ****   UNUSED(ReturnValue);
 449:Drivers/STM32L0xx_HAL_Driver/Src/stm32l0xx_hal_flash.c **** 
 450:Drivers/STM32L0xx_HAL_Driver/Src/stm32l0xx_hal_flash.c ****   /* NOTE : This function Should not be modified, when the callback is needed,
 451:Drivers/STM32L0xx_HAL_Driver/Src/stm32l0xx_hal_flash.c ****             the HAL_FLASH_OperationErrorCallback could be implemented in the user file
 452:Drivers/STM32L0xx_HAL_Driver/Src/stm32l0xx_hal_flash.c ****    */ 
 453:Drivers/STM32L0xx_HAL_Driver/Src/stm32l0xx_hal_flash.c **** }
 454:Drivers/STM32L0xx_HAL_Driver/Src/stm32l0xx_hal_flash.c **** 
 455:Drivers/STM32L0xx_HAL_Driver/Src/stm32l0xx_hal_flash.c **** /**
 456:Drivers/STM32L0xx_HAL_Driver/Src/stm32l0xx_hal_flash.c ****   * @}
 457:Drivers/STM32L0xx_HAL_Driver/Src/stm32l0xx_hal_flash.c ****   */
 458:Drivers/STM32L0xx_HAL_Driver/Src/stm32l0xx_hal_flash.c **** 
 459:Drivers/STM32L0xx_HAL_Driver/Src/stm32l0xx_hal_flash.c **** /** @defgroup FLASH_Exported_Functions_Group2 Peripheral Control functions 
 460:Drivers/STM32L0xx_HAL_Driver/Src/stm32l0xx_hal_flash.c ****  *  @brief   management functions 
 461:Drivers/STM32L0xx_HAL_Driver/Src/stm32l0xx_hal_flash.c ****  *
 462:Drivers/STM32L0xx_HAL_Driver/Src/stm32l0xx_hal_flash.c **** @verbatim   
 463:Drivers/STM32L0xx_HAL_Driver/Src/stm32l0xx_hal_flash.c ****  ===============================================================================
 464:Drivers/STM32L0xx_HAL_Driver/Src/stm32l0xx_hal_flash.c ****                       ##### Peripheral Control functions #####
 465:Drivers/STM32L0xx_HAL_Driver/Src/stm32l0xx_hal_flash.c ****  ===============================================================================  
 466:Drivers/STM32L0xx_HAL_Driver/Src/stm32l0xx_hal_flash.c ****     [..]
 467:Drivers/STM32L0xx_HAL_Driver/Src/stm32l0xx_hal_flash.c ****     This subsection provides a set of functions allowing to control the FLASH 
 468:Drivers/STM32L0xx_HAL_Driver/Src/stm32l0xx_hal_flash.c ****     memory operations.
 469:Drivers/STM32L0xx_HAL_Driver/Src/stm32l0xx_hal_flash.c **** 
 470:Drivers/STM32L0xx_HAL_Driver/Src/stm32l0xx_hal_flash.c **** @endverbatim
 471:Drivers/STM32L0xx_HAL_Driver/Src/stm32l0xx_hal_flash.c ****   * @{
 472:Drivers/STM32L0xx_HAL_Driver/Src/stm32l0xx_hal_flash.c ****   */
 473:Drivers/STM32L0xx_HAL_Driver/Src/stm32l0xx_hal_flash.c **** 
 474:Drivers/STM32L0xx_HAL_Driver/Src/stm32l0xx_hal_flash.c **** /**
 475:Drivers/STM32L0xx_HAL_Driver/Src/stm32l0xx_hal_flash.c ****   * @brief  Unlock the FLASH control register access
 476:Drivers/STM32L0xx_HAL_Driver/Src/stm32l0xx_hal_flash.c ****   * @retval HAL Status
 477:Drivers/STM32L0xx_HAL_Driver/Src/stm32l0xx_hal_flash.c ****   */
 478:Drivers/STM32L0xx_HAL_Driver/Src/stm32l0xx_hal_flash.c **** HAL_StatusTypeDef HAL_FLASH_Unlock(void)
 479:Drivers/STM32L0xx_HAL_Driver/Src/stm32l0xx_hal_flash.c **** {
 480:Drivers/STM32L0xx_HAL_Driver/Src/stm32l0xx_hal_flash.c ****   uint32_t primask_bit;
 481:Drivers/STM32L0xx_HAL_Driver/Src/stm32l0xx_hal_flash.c **** 
 482:Drivers/STM32L0xx_HAL_Driver/Src/stm32l0xx_hal_flash.c ****   /* Unlocking FLASH_PECR register access*/
 483:Drivers/STM32L0xx_HAL_Driver/Src/stm32l0xx_hal_flash.c ****   if(HAL_IS_BIT_SET(FLASH->PECR, FLASH_PECR_PELOCK))
 484:Drivers/STM32L0xx_HAL_Driver/Src/stm32l0xx_hal_flash.c ****   {
 485:Drivers/STM32L0xx_HAL_Driver/Src/stm32l0xx_hal_flash.c ****     /* Disable interrupts to avoid any interruption during unlock sequence */
 486:Drivers/STM32L0xx_HAL_Driver/Src/stm32l0xx_hal_flash.c ****     primask_bit = __get_PRIMASK();
 487:Drivers/STM32L0xx_HAL_Driver/Src/stm32l0xx_hal_flash.c ****     __disable_irq();
 488:Drivers/STM32L0xx_HAL_Driver/Src/stm32l0xx_hal_flash.c **** 
 489:Drivers/STM32L0xx_HAL_Driver/Src/stm32l0xx_hal_flash.c ****     WRITE_REG(FLASH->PEKEYR, FLASH_PEKEY1);
ARM GAS  /tmp/cc7HCqHO.s 			page 10


 490:Drivers/STM32L0xx_HAL_Driver/Src/stm32l0xx_hal_flash.c ****     WRITE_REG(FLASH->PEKEYR, FLASH_PEKEY2);
 491:Drivers/STM32L0xx_HAL_Driver/Src/stm32l0xx_hal_flash.c **** 
 492:Drivers/STM32L0xx_HAL_Driver/Src/stm32l0xx_hal_flash.c ****     /* Re-enable the interrupts: restore previous priority mask */
 493:Drivers/STM32L0xx_HAL_Driver/Src/stm32l0xx_hal_flash.c ****     __set_PRIMASK(primask_bit);
 494:Drivers/STM32L0xx_HAL_Driver/Src/stm32l0xx_hal_flash.c **** 
 495:Drivers/STM32L0xx_HAL_Driver/Src/stm32l0xx_hal_flash.c ****     if(HAL_IS_BIT_SET(FLASH->PECR, FLASH_PECR_PELOCK))
 496:Drivers/STM32L0xx_HAL_Driver/Src/stm32l0xx_hal_flash.c ****     {
 497:Drivers/STM32L0xx_HAL_Driver/Src/stm32l0xx_hal_flash.c ****       return HAL_ERROR;
 498:Drivers/STM32L0xx_HAL_Driver/Src/stm32l0xx_hal_flash.c ****     }
 499:Drivers/STM32L0xx_HAL_Driver/Src/stm32l0xx_hal_flash.c ****   }
 500:Drivers/STM32L0xx_HAL_Driver/Src/stm32l0xx_hal_flash.c **** 
 501:Drivers/STM32L0xx_HAL_Driver/Src/stm32l0xx_hal_flash.c ****   if (HAL_IS_BIT_SET(FLASH->PECR, FLASH_PECR_PRGLOCK))
 502:Drivers/STM32L0xx_HAL_Driver/Src/stm32l0xx_hal_flash.c ****   {
 503:Drivers/STM32L0xx_HAL_Driver/Src/stm32l0xx_hal_flash.c ****     /* Disable interrupts to avoid any interruption during unlock sequence */
 504:Drivers/STM32L0xx_HAL_Driver/Src/stm32l0xx_hal_flash.c ****     primask_bit = __get_PRIMASK();
 505:Drivers/STM32L0xx_HAL_Driver/Src/stm32l0xx_hal_flash.c ****     __disable_irq();
 506:Drivers/STM32L0xx_HAL_Driver/Src/stm32l0xx_hal_flash.c **** 
 507:Drivers/STM32L0xx_HAL_Driver/Src/stm32l0xx_hal_flash.c ****     /* Unlocking the program memory access */
 508:Drivers/STM32L0xx_HAL_Driver/Src/stm32l0xx_hal_flash.c ****     WRITE_REG(FLASH->PRGKEYR, FLASH_PRGKEY1);
 509:Drivers/STM32L0xx_HAL_Driver/Src/stm32l0xx_hal_flash.c ****     WRITE_REG(FLASH->PRGKEYR, FLASH_PRGKEY2);  
 510:Drivers/STM32L0xx_HAL_Driver/Src/stm32l0xx_hal_flash.c **** 
 511:Drivers/STM32L0xx_HAL_Driver/Src/stm32l0xx_hal_flash.c ****     /* Re-enable the interrupts: restore previous priority mask */
 512:Drivers/STM32L0xx_HAL_Driver/Src/stm32l0xx_hal_flash.c ****     __set_PRIMASK(primask_bit);
 513:Drivers/STM32L0xx_HAL_Driver/Src/stm32l0xx_hal_flash.c **** 
 514:Drivers/STM32L0xx_HAL_Driver/Src/stm32l0xx_hal_flash.c ****     if (HAL_IS_BIT_SET(FLASH->PECR, FLASH_PECR_PRGLOCK))
 515:Drivers/STM32L0xx_HAL_Driver/Src/stm32l0xx_hal_flash.c ****     {
 516:Drivers/STM32L0xx_HAL_Driver/Src/stm32l0xx_hal_flash.c ****       return HAL_ERROR;
 517:Drivers/STM32L0xx_HAL_Driver/Src/stm32l0xx_hal_flash.c ****     }
 518:Drivers/STM32L0xx_HAL_Driver/Src/stm32l0xx_hal_flash.c ****   }
 519:Drivers/STM32L0xx_HAL_Driver/Src/stm32l0xx_hal_flash.c **** 
 520:Drivers/STM32L0xx_HAL_Driver/Src/stm32l0xx_hal_flash.c ****   return HAL_OK; 
 521:Drivers/STM32L0xx_HAL_Driver/Src/stm32l0xx_hal_flash.c **** }
 522:Drivers/STM32L0xx_HAL_Driver/Src/stm32l0xx_hal_flash.c **** 
 523:Drivers/STM32L0xx_HAL_Driver/Src/stm32l0xx_hal_flash.c **** /**
 524:Drivers/STM32L0xx_HAL_Driver/Src/stm32l0xx_hal_flash.c ****   * @brief  Locks the FLASH control register access
 525:Drivers/STM32L0xx_HAL_Driver/Src/stm32l0xx_hal_flash.c ****   * @retval HAL Status
 526:Drivers/STM32L0xx_HAL_Driver/Src/stm32l0xx_hal_flash.c ****   */
 527:Drivers/STM32L0xx_HAL_Driver/Src/stm32l0xx_hal_flash.c **** HAL_StatusTypeDef HAL_FLASH_Lock(void)
 528:Drivers/STM32L0xx_HAL_Driver/Src/stm32l0xx_hal_flash.c **** {
 529:Drivers/STM32L0xx_HAL_Driver/Src/stm32l0xx_hal_flash.c ****   /* Set the PRGLOCK Bit to lock the FLASH Registers access */
 530:Drivers/STM32L0xx_HAL_Driver/Src/stm32l0xx_hal_flash.c ****   SET_BIT(FLASH->PECR, FLASH_PECR_PRGLOCK);
 531:Drivers/STM32L0xx_HAL_Driver/Src/stm32l0xx_hal_flash.c ****   
 532:Drivers/STM32L0xx_HAL_Driver/Src/stm32l0xx_hal_flash.c ****   /* Set the PELOCK Bit to lock the PECR Register access */
 533:Drivers/STM32L0xx_HAL_Driver/Src/stm32l0xx_hal_flash.c ****   SET_BIT(FLASH->PECR, FLASH_PECR_PELOCK);
 534:Drivers/STM32L0xx_HAL_Driver/Src/stm32l0xx_hal_flash.c **** 
 535:Drivers/STM32L0xx_HAL_Driver/Src/stm32l0xx_hal_flash.c ****   return HAL_OK;  
 536:Drivers/STM32L0xx_HAL_Driver/Src/stm32l0xx_hal_flash.c **** }
 537:Drivers/STM32L0xx_HAL_Driver/Src/stm32l0xx_hal_flash.c **** 
 538:Drivers/STM32L0xx_HAL_Driver/Src/stm32l0xx_hal_flash.c **** /**
 539:Drivers/STM32L0xx_HAL_Driver/Src/stm32l0xx_hal_flash.c ****   * @brief  Unlock the FLASH Option Control Registers access.
 540:Drivers/STM32L0xx_HAL_Driver/Src/stm32l0xx_hal_flash.c ****   * @retval HAL Status
 541:Drivers/STM32L0xx_HAL_Driver/Src/stm32l0xx_hal_flash.c ****   */
 542:Drivers/STM32L0xx_HAL_Driver/Src/stm32l0xx_hal_flash.c **** HAL_StatusTypeDef HAL_FLASH_OB_Unlock(void)
 543:Drivers/STM32L0xx_HAL_Driver/Src/stm32l0xx_hal_flash.c **** {
 544:Drivers/STM32L0xx_HAL_Driver/Src/stm32l0xx_hal_flash.c ****   uint32_t primask_bit;
 545:Drivers/STM32L0xx_HAL_Driver/Src/stm32l0xx_hal_flash.c **** 
 546:Drivers/STM32L0xx_HAL_Driver/Src/stm32l0xx_hal_flash.c ****   if(HAL_IS_BIT_SET(FLASH->PECR, FLASH_PECR_OPTLOCK))
ARM GAS  /tmp/cc7HCqHO.s 			page 11


 547:Drivers/STM32L0xx_HAL_Driver/Src/stm32l0xx_hal_flash.c ****   {
 548:Drivers/STM32L0xx_HAL_Driver/Src/stm32l0xx_hal_flash.c ****     /* Disable interrupts to avoid any interruption during unlock sequence */
 549:Drivers/STM32L0xx_HAL_Driver/Src/stm32l0xx_hal_flash.c ****     primask_bit = __get_PRIMASK();
 550:Drivers/STM32L0xx_HAL_Driver/Src/stm32l0xx_hal_flash.c ****     __disable_irq();
 551:Drivers/STM32L0xx_HAL_Driver/Src/stm32l0xx_hal_flash.c **** 
 552:Drivers/STM32L0xx_HAL_Driver/Src/stm32l0xx_hal_flash.c ****     /* Unlocking FLASH_PECR register access*/
 553:Drivers/STM32L0xx_HAL_Driver/Src/stm32l0xx_hal_flash.c ****     if(HAL_IS_BIT_SET(FLASH->PECR, FLASH_PECR_PELOCK))
 554:Drivers/STM32L0xx_HAL_Driver/Src/stm32l0xx_hal_flash.c ****     {  
 555:Drivers/STM32L0xx_HAL_Driver/Src/stm32l0xx_hal_flash.c ****       /* Unlocking FLASH_PECR register access*/
 556:Drivers/STM32L0xx_HAL_Driver/Src/stm32l0xx_hal_flash.c ****       WRITE_REG(FLASH->PEKEYR, FLASH_PEKEY1);
 557:Drivers/STM32L0xx_HAL_Driver/Src/stm32l0xx_hal_flash.c ****       WRITE_REG(FLASH->PEKEYR, FLASH_PEKEY2);
 558:Drivers/STM32L0xx_HAL_Driver/Src/stm32l0xx_hal_flash.c ****     }
 559:Drivers/STM32L0xx_HAL_Driver/Src/stm32l0xx_hal_flash.c **** 
 560:Drivers/STM32L0xx_HAL_Driver/Src/stm32l0xx_hal_flash.c ****     /* Unlocking the option bytes block access */
 561:Drivers/STM32L0xx_HAL_Driver/Src/stm32l0xx_hal_flash.c ****     WRITE_REG(FLASH->OPTKEYR, FLASH_OPTKEY1);
 562:Drivers/STM32L0xx_HAL_Driver/Src/stm32l0xx_hal_flash.c ****     WRITE_REG(FLASH->OPTKEYR, FLASH_OPTKEY2);
 563:Drivers/STM32L0xx_HAL_Driver/Src/stm32l0xx_hal_flash.c **** 
 564:Drivers/STM32L0xx_HAL_Driver/Src/stm32l0xx_hal_flash.c ****     /* Re-enable the interrupts: restore previous priority mask */
 565:Drivers/STM32L0xx_HAL_Driver/Src/stm32l0xx_hal_flash.c ****     __set_PRIMASK(primask_bit);
 566:Drivers/STM32L0xx_HAL_Driver/Src/stm32l0xx_hal_flash.c ****   }
 567:Drivers/STM32L0xx_HAL_Driver/Src/stm32l0xx_hal_flash.c ****   else
 568:Drivers/STM32L0xx_HAL_Driver/Src/stm32l0xx_hal_flash.c ****   {
 569:Drivers/STM32L0xx_HAL_Driver/Src/stm32l0xx_hal_flash.c ****     return HAL_ERROR;
 570:Drivers/STM32L0xx_HAL_Driver/Src/stm32l0xx_hal_flash.c ****   }  
 571:Drivers/STM32L0xx_HAL_Driver/Src/stm32l0xx_hal_flash.c ****   
 572:Drivers/STM32L0xx_HAL_Driver/Src/stm32l0xx_hal_flash.c ****   return HAL_OK;  
 573:Drivers/STM32L0xx_HAL_Driver/Src/stm32l0xx_hal_flash.c **** }
 574:Drivers/STM32L0xx_HAL_Driver/Src/stm32l0xx_hal_flash.c **** 
 575:Drivers/STM32L0xx_HAL_Driver/Src/stm32l0xx_hal_flash.c **** /**
 576:Drivers/STM32L0xx_HAL_Driver/Src/stm32l0xx_hal_flash.c ****   * @brief  Lock the FLASH Option Control Registers access.
 577:Drivers/STM32L0xx_HAL_Driver/Src/stm32l0xx_hal_flash.c ****   * @retval HAL Status 
 578:Drivers/STM32L0xx_HAL_Driver/Src/stm32l0xx_hal_flash.c ****   */
 579:Drivers/STM32L0xx_HAL_Driver/Src/stm32l0xx_hal_flash.c **** HAL_StatusTypeDef HAL_FLASH_OB_Lock(void)
 580:Drivers/STM32L0xx_HAL_Driver/Src/stm32l0xx_hal_flash.c **** {
 581:Drivers/STM32L0xx_HAL_Driver/Src/stm32l0xx_hal_flash.c ****   /* Set the OPTLOCK Bit to lock the option bytes block access */
 582:Drivers/STM32L0xx_HAL_Driver/Src/stm32l0xx_hal_flash.c ****   SET_BIT(FLASH->PECR, FLASH_PECR_OPTLOCK);
 583:Drivers/STM32L0xx_HAL_Driver/Src/stm32l0xx_hal_flash.c ****   
 584:Drivers/STM32L0xx_HAL_Driver/Src/stm32l0xx_hal_flash.c ****   return HAL_OK;  
 585:Drivers/STM32L0xx_HAL_Driver/Src/stm32l0xx_hal_flash.c **** }
 586:Drivers/STM32L0xx_HAL_Driver/Src/stm32l0xx_hal_flash.c ****   
 587:Drivers/STM32L0xx_HAL_Driver/Src/stm32l0xx_hal_flash.c **** /**
 588:Drivers/STM32L0xx_HAL_Driver/Src/stm32l0xx_hal_flash.c ****   * @brief  Launch the option byte loading.
 589:Drivers/STM32L0xx_HAL_Driver/Src/stm32l0xx_hal_flash.c ****   * @note   This function will reset automatically the MCU.
 590:Drivers/STM32L0xx_HAL_Driver/Src/stm32l0xx_hal_flash.c ****   * @retval HAL Status
 591:Drivers/STM32L0xx_HAL_Driver/Src/stm32l0xx_hal_flash.c ****   */
 592:Drivers/STM32L0xx_HAL_Driver/Src/stm32l0xx_hal_flash.c **** HAL_StatusTypeDef HAL_FLASH_OB_Launch(void)
 593:Drivers/STM32L0xx_HAL_Driver/Src/stm32l0xx_hal_flash.c **** {
 594:Drivers/STM32L0xx_HAL_Driver/Src/stm32l0xx_hal_flash.c ****   /* Set the OBL_Launch bit to launch the option byte loading */
 595:Drivers/STM32L0xx_HAL_Driver/Src/stm32l0xx_hal_flash.c ****   SET_BIT(FLASH->PECR, FLASH_PECR_OBL_LAUNCH);
 596:Drivers/STM32L0xx_HAL_Driver/Src/stm32l0xx_hal_flash.c ****   
 597:Drivers/STM32L0xx_HAL_Driver/Src/stm32l0xx_hal_flash.c ****   /* Wait for last operation to be completed */
 598:Drivers/STM32L0xx_HAL_Driver/Src/stm32l0xx_hal_flash.c ****   return(FLASH_WaitForLastOperation(FLASH_TIMEOUT_VALUE));
 599:Drivers/STM32L0xx_HAL_Driver/Src/stm32l0xx_hal_flash.c **** }
 600:Drivers/STM32L0xx_HAL_Driver/Src/stm32l0xx_hal_flash.c **** 
 601:Drivers/STM32L0xx_HAL_Driver/Src/stm32l0xx_hal_flash.c **** /**
 602:Drivers/STM32L0xx_HAL_Driver/Src/stm32l0xx_hal_flash.c ****   * @}
 603:Drivers/STM32L0xx_HAL_Driver/Src/stm32l0xx_hal_flash.c ****   */  
ARM GAS  /tmp/cc7HCqHO.s 			page 12


 604:Drivers/STM32L0xx_HAL_Driver/Src/stm32l0xx_hal_flash.c **** 
 605:Drivers/STM32L0xx_HAL_Driver/Src/stm32l0xx_hal_flash.c **** /** @defgroup FLASH_Exported_Functions_Group3 Peripheral errors functions 
 606:Drivers/STM32L0xx_HAL_Driver/Src/stm32l0xx_hal_flash.c ****  *  @brief    Peripheral errors functions 
 607:Drivers/STM32L0xx_HAL_Driver/Src/stm32l0xx_hal_flash.c ****  *
 608:Drivers/STM32L0xx_HAL_Driver/Src/stm32l0xx_hal_flash.c **** @verbatim   
 609:Drivers/STM32L0xx_HAL_Driver/Src/stm32l0xx_hal_flash.c ****  ===============================================================================
 610:Drivers/STM32L0xx_HAL_Driver/Src/stm32l0xx_hal_flash.c ****                       ##### Peripheral Errors functions #####
 611:Drivers/STM32L0xx_HAL_Driver/Src/stm32l0xx_hal_flash.c ****  ===============================================================================  
 612:Drivers/STM32L0xx_HAL_Driver/Src/stm32l0xx_hal_flash.c ****     [..]
 613:Drivers/STM32L0xx_HAL_Driver/Src/stm32l0xx_hal_flash.c ****     This subsection permit to get in run-time errors of  the FLASH peripheral.
 614:Drivers/STM32L0xx_HAL_Driver/Src/stm32l0xx_hal_flash.c **** 
 615:Drivers/STM32L0xx_HAL_Driver/Src/stm32l0xx_hal_flash.c **** @endverbatim
 616:Drivers/STM32L0xx_HAL_Driver/Src/stm32l0xx_hal_flash.c ****   * @{
 617:Drivers/STM32L0xx_HAL_Driver/Src/stm32l0xx_hal_flash.c ****   */
 618:Drivers/STM32L0xx_HAL_Driver/Src/stm32l0xx_hal_flash.c **** 
 619:Drivers/STM32L0xx_HAL_Driver/Src/stm32l0xx_hal_flash.c **** /**
 620:Drivers/STM32L0xx_HAL_Driver/Src/stm32l0xx_hal_flash.c ****   * @brief  Get the specific FLASH error flag.
 621:Drivers/STM32L0xx_HAL_Driver/Src/stm32l0xx_hal_flash.c ****   * @retval FLASH_ErrorCode The returned value can be:
 622:Drivers/STM32L0xx_HAL_Driver/Src/stm32l0xx_hal_flash.c ****   *            @ref FLASH_Error_Codes
 623:Drivers/STM32L0xx_HAL_Driver/Src/stm32l0xx_hal_flash.c ****   */
 624:Drivers/STM32L0xx_HAL_Driver/Src/stm32l0xx_hal_flash.c **** uint32_t HAL_FLASH_GetError(void)
 625:Drivers/STM32L0xx_HAL_Driver/Src/stm32l0xx_hal_flash.c **** {
 626:Drivers/STM32L0xx_HAL_Driver/Src/stm32l0xx_hal_flash.c ****    return pFlash.ErrorCode;
 627:Drivers/STM32L0xx_HAL_Driver/Src/stm32l0xx_hal_flash.c **** }
 628:Drivers/STM32L0xx_HAL_Driver/Src/stm32l0xx_hal_flash.c **** 
 629:Drivers/STM32L0xx_HAL_Driver/Src/stm32l0xx_hal_flash.c **** /**
 630:Drivers/STM32L0xx_HAL_Driver/Src/stm32l0xx_hal_flash.c ****   * @}
 631:Drivers/STM32L0xx_HAL_Driver/Src/stm32l0xx_hal_flash.c ****   */
 632:Drivers/STM32L0xx_HAL_Driver/Src/stm32l0xx_hal_flash.c **** 
 633:Drivers/STM32L0xx_HAL_Driver/Src/stm32l0xx_hal_flash.c **** /**
 634:Drivers/STM32L0xx_HAL_Driver/Src/stm32l0xx_hal_flash.c ****   * @}
 635:Drivers/STM32L0xx_HAL_Driver/Src/stm32l0xx_hal_flash.c ****   */
 636:Drivers/STM32L0xx_HAL_Driver/Src/stm32l0xx_hal_flash.c **** 
 637:Drivers/STM32L0xx_HAL_Driver/Src/stm32l0xx_hal_flash.c **** /** @addtogroup FLASH_Private_Functions
 638:Drivers/STM32L0xx_HAL_Driver/Src/stm32l0xx_hal_flash.c ****  * @{
 639:Drivers/STM32L0xx_HAL_Driver/Src/stm32l0xx_hal_flash.c ****  */
 640:Drivers/STM32L0xx_HAL_Driver/Src/stm32l0xx_hal_flash.c **** 
 641:Drivers/STM32L0xx_HAL_Driver/Src/stm32l0xx_hal_flash.c **** /**
 642:Drivers/STM32L0xx_HAL_Driver/Src/stm32l0xx_hal_flash.c ****   * @brief  Wait for a FLASH operation to complete.
 643:Drivers/STM32L0xx_HAL_Driver/Src/stm32l0xx_hal_flash.c ****   * @param  Timeout  maximum flash operation timeout
 644:Drivers/STM32L0xx_HAL_Driver/Src/stm32l0xx_hal_flash.c ****   * @retval HAL Status
 645:Drivers/STM32L0xx_HAL_Driver/Src/stm32l0xx_hal_flash.c ****   */
 646:Drivers/STM32L0xx_HAL_Driver/Src/stm32l0xx_hal_flash.c **** HAL_StatusTypeDef FLASH_WaitForLastOperation(uint32_t Timeout)
 647:Drivers/STM32L0xx_HAL_Driver/Src/stm32l0xx_hal_flash.c **** {
 648:Drivers/STM32L0xx_HAL_Driver/Src/stm32l0xx_hal_flash.c ****   /* Wait for the FLASH operation to complete by polling on BUSY flag to be reset.
 649:Drivers/STM32L0xx_HAL_Driver/Src/stm32l0xx_hal_flash.c ****      Even if the FLASH operation fails, the BUSY flag will be reset and an error
 650:Drivers/STM32L0xx_HAL_Driver/Src/stm32l0xx_hal_flash.c ****      flag will be set */
 651:Drivers/STM32L0xx_HAL_Driver/Src/stm32l0xx_hal_flash.c ****      
 652:Drivers/STM32L0xx_HAL_Driver/Src/stm32l0xx_hal_flash.c ****   uint32_t tickstart = HAL_GetTick();
 653:Drivers/STM32L0xx_HAL_Driver/Src/stm32l0xx_hal_flash.c ****      
 654:Drivers/STM32L0xx_HAL_Driver/Src/stm32l0xx_hal_flash.c ****   while(__HAL_FLASH_GET_FLAG(FLASH_FLAG_BSY)) 
 655:Drivers/STM32L0xx_HAL_Driver/Src/stm32l0xx_hal_flash.c ****   { 
 656:Drivers/STM32L0xx_HAL_Driver/Src/stm32l0xx_hal_flash.c ****     if (Timeout != HAL_MAX_DELAY)
 657:Drivers/STM32L0xx_HAL_Driver/Src/stm32l0xx_hal_flash.c ****     {
 658:Drivers/STM32L0xx_HAL_Driver/Src/stm32l0xx_hal_flash.c ****       if((Timeout == 0U) || ((HAL_GetTick()-tickstart) > Timeout))
 659:Drivers/STM32L0xx_HAL_Driver/Src/stm32l0xx_hal_flash.c ****       {
 660:Drivers/STM32L0xx_HAL_Driver/Src/stm32l0xx_hal_flash.c ****         return HAL_TIMEOUT;
ARM GAS  /tmp/cc7HCqHO.s 			page 13


 661:Drivers/STM32L0xx_HAL_Driver/Src/stm32l0xx_hal_flash.c ****       }
 662:Drivers/STM32L0xx_HAL_Driver/Src/stm32l0xx_hal_flash.c ****     }
 663:Drivers/STM32L0xx_HAL_Driver/Src/stm32l0xx_hal_flash.c ****   }
 664:Drivers/STM32L0xx_HAL_Driver/Src/stm32l0xx_hal_flash.c ****   
 665:Drivers/STM32L0xx_HAL_Driver/Src/stm32l0xx_hal_flash.c ****   /* Check FLASH End of Operation flag  */
 666:Drivers/STM32L0xx_HAL_Driver/Src/stm32l0xx_hal_flash.c ****   if (__HAL_FLASH_GET_FLAG(FLASH_FLAG_EOP))
 667:Drivers/STM32L0xx_HAL_Driver/Src/stm32l0xx_hal_flash.c ****   {
 668:Drivers/STM32L0xx_HAL_Driver/Src/stm32l0xx_hal_flash.c ****     /* Clear FLASH End of Operation pending bit */
 669:Drivers/STM32L0xx_HAL_Driver/Src/stm32l0xx_hal_flash.c ****     __HAL_FLASH_CLEAR_FLAG(FLASH_FLAG_EOP);
 670:Drivers/STM32L0xx_HAL_Driver/Src/stm32l0xx_hal_flash.c ****   }
 671:Drivers/STM32L0xx_HAL_Driver/Src/stm32l0xx_hal_flash.c ****   
 672:Drivers/STM32L0xx_HAL_Driver/Src/stm32l0xx_hal_flash.c ****   if( __HAL_FLASH_GET_FLAG(FLASH_FLAG_WRPERR)     || 
 673:Drivers/STM32L0xx_HAL_Driver/Src/stm32l0xx_hal_flash.c ****       __HAL_FLASH_GET_FLAG(FLASH_FLAG_PGAERR)     || 
 674:Drivers/STM32L0xx_HAL_Driver/Src/stm32l0xx_hal_flash.c ****       __HAL_FLASH_GET_FLAG(FLASH_FLAG_SIZERR)     || 
 675:Drivers/STM32L0xx_HAL_Driver/Src/stm32l0xx_hal_flash.c ****       __HAL_FLASH_GET_FLAG(FLASH_FLAG_OPTVERR)    || 
 676:Drivers/STM32L0xx_HAL_Driver/Src/stm32l0xx_hal_flash.c ****       __HAL_FLASH_GET_FLAG(FLASH_FLAG_RDERR)      || 
 677:Drivers/STM32L0xx_HAL_Driver/Src/stm32l0xx_hal_flash.c ****       __HAL_FLASH_GET_FLAG(FLASH_FLAG_FWWERR)     || 
 678:Drivers/STM32L0xx_HAL_Driver/Src/stm32l0xx_hal_flash.c ****       __HAL_FLASH_GET_FLAG(FLASH_FLAG_NOTZEROERR) )
 679:Drivers/STM32L0xx_HAL_Driver/Src/stm32l0xx_hal_flash.c ****   {
 680:Drivers/STM32L0xx_HAL_Driver/Src/stm32l0xx_hal_flash.c ****     /*Save the error code*/
 681:Drivers/STM32L0xx_HAL_Driver/Src/stm32l0xx_hal_flash.c **** 
 682:Drivers/STM32L0xx_HAL_Driver/Src/stm32l0xx_hal_flash.c ****     /* WARNING : On the first cut of STM32L031xx and STM32L041xx devices,
 683:Drivers/STM32L0xx_HAL_Driver/Src/stm32l0xx_hal_flash.c ****      *           (RefID = 0x1000) the FLASH_FLAG_OPTVERR bit was not behaving
 684:Drivers/STM32L0xx_HAL_Driver/Src/stm32l0xx_hal_flash.c ****      *           as expected. If the user run an application using the first
 685:Drivers/STM32L0xx_HAL_Driver/Src/stm32l0xx_hal_flash.c ****      *           cut of the STM32L031xx device or the first cut of the STM32L041xx
 686:Drivers/STM32L0xx_HAL_Driver/Src/stm32l0xx_hal_flash.c ****      *           device, this error should be ignored. The revId of the device
 687:Drivers/STM32L0xx_HAL_Driver/Src/stm32l0xx_hal_flash.c ****      *           can be retrieved via the HAL_GetREVID() function.
 688:Drivers/STM32L0xx_HAL_Driver/Src/stm32l0xx_hal_flash.c ****      *
 689:Drivers/STM32L0xx_HAL_Driver/Src/stm32l0xx_hal_flash.c ****      */
 690:Drivers/STM32L0xx_HAL_Driver/Src/stm32l0xx_hal_flash.c ****     FLASH_SetErrorCode();
 691:Drivers/STM32L0xx_HAL_Driver/Src/stm32l0xx_hal_flash.c ****     return HAL_ERROR;
 692:Drivers/STM32L0xx_HAL_Driver/Src/stm32l0xx_hal_flash.c ****   }
 693:Drivers/STM32L0xx_HAL_Driver/Src/stm32l0xx_hal_flash.c **** 
 694:Drivers/STM32L0xx_HAL_Driver/Src/stm32l0xx_hal_flash.c ****   /* There is no error flag set */
 695:Drivers/STM32L0xx_HAL_Driver/Src/stm32l0xx_hal_flash.c ****   return HAL_OK;
 696:Drivers/STM32L0xx_HAL_Driver/Src/stm32l0xx_hal_flash.c **** }
 697:Drivers/STM32L0xx_HAL_Driver/Src/stm32l0xx_hal_flash.c **** 
 698:Drivers/STM32L0xx_HAL_Driver/Src/stm32l0xx_hal_flash.c **** 
 699:Drivers/STM32L0xx_HAL_Driver/Src/stm32l0xx_hal_flash.c **** /**
 700:Drivers/STM32L0xx_HAL_Driver/Src/stm32l0xx_hal_flash.c ****   * @brief  Set the specific FLASH error flag.
 701:Drivers/STM32L0xx_HAL_Driver/Src/stm32l0xx_hal_flash.c ****   * @retval None
 702:Drivers/STM32L0xx_HAL_Driver/Src/stm32l0xx_hal_flash.c ****   */
 703:Drivers/STM32L0xx_HAL_Driver/Src/stm32l0xx_hal_flash.c **** static void FLASH_SetErrorCode(void)
 704:Drivers/STM32L0xx_HAL_Driver/Src/stm32l0xx_hal_flash.c **** {
  26              		.loc 1 704 1 view -0
  27              		.cfi_startproc
  28              		@ args = 0, pretend = 0, frame = 0
  29              		@ frame_needed = 0, uses_anonymous_args = 0
  30              		@ link register save eliminated.
 705:Drivers/STM32L0xx_HAL_Driver/Src/stm32l0xx_hal_flash.c ****   uint32_t flags = 0;
  31              		.loc 1 705 3 view .LVU1
  32              	.LVL0:
 706:Drivers/STM32L0xx_HAL_Driver/Src/stm32l0xx_hal_flash.c ****   
 707:Drivers/STM32L0xx_HAL_Driver/Src/stm32l0xx_hal_flash.c ****   if(__HAL_FLASH_GET_FLAG(FLASH_FLAG_WRPERR))
  33              		.loc 1 707 3 view .LVU2
  34              		.loc 1 707 6 is_stmt 0 view .LVU3
  35 0000 2B4B     		ldr	r3, .L9
ARM GAS  /tmp/cc7HCqHO.s 			page 14


  36 0002 9969     		ldr	r1, [r3, #24]
  37 0004 8022     		movs	r2, #128
  38 0006 5200     		lsls	r2, r2, #1
  39 0008 0B00     		movs	r3, r1
  40 000a 1340     		ands	r3, r2
  41              		.loc 1 707 5 view .LVU4
  42 000c 1142     		tst	r1, r2
  43 000e 06D0     		beq	.L2
 708:Drivers/STM32L0xx_HAL_Driver/Src/stm32l0xx_hal_flash.c ****   {
 709:Drivers/STM32L0xx_HAL_Driver/Src/stm32l0xx_hal_flash.c ****     pFlash.ErrorCode |= HAL_FLASH_ERROR_WRP;
  44              		.loc 1 709 5 is_stmt 1 view .LVU5
  45              		.loc 1 709 22 is_stmt 0 view .LVU6
  46 0010 284A     		ldr	r2, .L9+4
  47 0012 5369     		ldr	r3, [r2, #20]
  48 0014 0221     		movs	r1, #2
  49 0016 0B43     		orrs	r3, r1
  50 0018 5361     		str	r3, [r2, #20]
 710:Drivers/STM32L0xx_HAL_Driver/Src/stm32l0xx_hal_flash.c ****     flags |= FLASH_FLAG_WRPERR;
  51              		.loc 1 710 5 is_stmt 1 view .LVU7
  52              	.LVL1:
  53              		.loc 1 710 11 is_stmt 0 view .LVU8
  54 001a 8023     		movs	r3, #128
  55 001c 5B00     		lsls	r3, r3, #1
  56              	.LVL2:
  57              	.L2:
 711:Drivers/STM32L0xx_HAL_Driver/Src/stm32l0xx_hal_flash.c ****   }
 712:Drivers/STM32L0xx_HAL_Driver/Src/stm32l0xx_hal_flash.c ****   if(__HAL_FLASH_GET_FLAG(FLASH_FLAG_PGAERR))
  58              		.loc 1 712 3 is_stmt 1 view .LVU9
  59              		.loc 1 712 6 is_stmt 0 view .LVU10
  60 001e 244A     		ldr	r2, .L9
  61 0020 9269     		ldr	r2, [r2, #24]
  62              		.loc 1 712 5 view .LVU11
  63 0022 9205     		lsls	r2, r2, #22
  64 0024 07D5     		bpl	.L3
 713:Drivers/STM32L0xx_HAL_Driver/Src/stm32l0xx_hal_flash.c ****   {
 714:Drivers/STM32L0xx_HAL_Driver/Src/stm32l0xx_hal_flash.c ****     pFlash.ErrorCode |= HAL_FLASH_ERROR_PGA;
  65              		.loc 1 714 5 is_stmt 1 view .LVU12
  66              		.loc 1 714 22 is_stmt 0 view .LVU13
  67 0026 2349     		ldr	r1, .L9+4
  68 0028 4A69     		ldr	r2, [r1, #20]
  69 002a 0120     		movs	r0, #1
  70 002c 0243     		orrs	r2, r0
  71 002e 4A61     		str	r2, [r1, #20]
 715:Drivers/STM32L0xx_HAL_Driver/Src/stm32l0xx_hal_flash.c ****     flags |= FLASH_FLAG_PGAERR;
  72              		.loc 1 715 5 is_stmt 1 view .LVU14
  73              		.loc 1 715 11 is_stmt 0 view .LVU15
  74 0030 8022     		movs	r2, #128
  75 0032 9200     		lsls	r2, r2, #2
  76 0034 1343     		orrs	r3, r2
  77              	.LVL3:
  78              	.L3:
 716:Drivers/STM32L0xx_HAL_Driver/Src/stm32l0xx_hal_flash.c ****   }
 717:Drivers/STM32L0xx_HAL_Driver/Src/stm32l0xx_hal_flash.c ****   if(__HAL_FLASH_GET_FLAG(FLASH_FLAG_SIZERR))
  79              		.loc 1 717 3 is_stmt 1 view .LVU16
  80              		.loc 1 717 6 is_stmt 0 view .LVU17
  81 0036 1E4A     		ldr	r2, .L9
  82 0038 9269     		ldr	r2, [r2, #24]
ARM GAS  /tmp/cc7HCqHO.s 			page 15


  83              		.loc 1 717 5 view .LVU18
  84 003a 5205     		lsls	r2, r2, #21
  85 003c 07D5     		bpl	.L4
 718:Drivers/STM32L0xx_HAL_Driver/Src/stm32l0xx_hal_flash.c ****   { 
 719:Drivers/STM32L0xx_HAL_Driver/Src/stm32l0xx_hal_flash.c ****     pFlash.ErrorCode |= HAL_FLASH_ERROR_SIZE;
  86              		.loc 1 719 5 is_stmt 1 view .LVU19
  87              		.loc 1 719 22 is_stmt 0 view .LVU20
  88 003e 1D49     		ldr	r1, .L9+4
  89 0040 4A69     		ldr	r2, [r1, #20]
  90 0042 0820     		movs	r0, #8
  91 0044 0243     		orrs	r2, r0
  92 0046 4A61     		str	r2, [r1, #20]
 720:Drivers/STM32L0xx_HAL_Driver/Src/stm32l0xx_hal_flash.c ****     flags |= FLASH_FLAG_SIZERR;
  93              		.loc 1 720 5 is_stmt 1 view .LVU21
  94              		.loc 1 720 11 is_stmt 0 view .LVU22
  95 0048 8022     		movs	r2, #128
  96 004a D200     		lsls	r2, r2, #3
  97 004c 1343     		orrs	r3, r2
  98              	.LVL4:
  99              	.L4:
 721:Drivers/STM32L0xx_HAL_Driver/Src/stm32l0xx_hal_flash.c ****   }
 722:Drivers/STM32L0xx_HAL_Driver/Src/stm32l0xx_hal_flash.c ****   if(__HAL_FLASH_GET_FLAG(FLASH_FLAG_OPTVERR))
 100              		.loc 1 722 3 is_stmt 1 view .LVU23
 101              		.loc 1 722 6 is_stmt 0 view .LVU24
 102 004e 184A     		ldr	r2, .L9
 103 0050 9269     		ldr	r2, [r2, #24]
 104              		.loc 1 722 5 view .LVU25
 105 0052 1205     		lsls	r2, r2, #20
 106 0054 07D5     		bpl	.L5
 723:Drivers/STM32L0xx_HAL_Driver/Src/stm32l0xx_hal_flash.c ****   {
 724:Drivers/STM32L0xx_HAL_Driver/Src/stm32l0xx_hal_flash.c ****     /* WARNING : On the first cut of STM32L031xx and STM32L041xx devices,
 725:Drivers/STM32L0xx_HAL_Driver/Src/stm32l0xx_hal_flash.c ****      *           (RefID = 0x1000) the FLASH_FLAG_OPTVERR bit was not behaving
 726:Drivers/STM32L0xx_HAL_Driver/Src/stm32l0xx_hal_flash.c ****      *           as expected. If the user run an application using the first
 727:Drivers/STM32L0xx_HAL_Driver/Src/stm32l0xx_hal_flash.c ****      *           cut of the STM32L031xx device or the first cut of the STM32L041xx
 728:Drivers/STM32L0xx_HAL_Driver/Src/stm32l0xx_hal_flash.c ****      *           device, this error should be ignored. The revId of the device
 729:Drivers/STM32L0xx_HAL_Driver/Src/stm32l0xx_hal_flash.c ****      *           can be retrieved via the HAL_GetREVID() function.
 730:Drivers/STM32L0xx_HAL_Driver/Src/stm32l0xx_hal_flash.c ****      *
 731:Drivers/STM32L0xx_HAL_Driver/Src/stm32l0xx_hal_flash.c ****      */
 732:Drivers/STM32L0xx_HAL_Driver/Src/stm32l0xx_hal_flash.c ****     pFlash.ErrorCode |= HAL_FLASH_ERROR_OPTV;
 107              		.loc 1 732 5 is_stmt 1 view .LVU26
 108              		.loc 1 732 22 is_stmt 0 view .LVU27
 109 0056 1749     		ldr	r1, .L9+4
 110 0058 4A69     		ldr	r2, [r1, #20]
 111 005a 0420     		movs	r0, #4
 112 005c 0243     		orrs	r2, r0
 113 005e 4A61     		str	r2, [r1, #20]
 733:Drivers/STM32L0xx_HAL_Driver/Src/stm32l0xx_hal_flash.c ****     flags |= FLASH_FLAG_OPTVERR;
 114              		.loc 1 733 5 is_stmt 1 view .LVU28
 115              		.loc 1 733 11 is_stmt 0 view .LVU29
 116 0060 8022     		movs	r2, #128
 117 0062 1201     		lsls	r2, r2, #4
 118 0064 1343     		orrs	r3, r2
 119              	.LVL5:
 120              	.L5:
 734:Drivers/STM32L0xx_HAL_Driver/Src/stm32l0xx_hal_flash.c ****   }
 735:Drivers/STM32L0xx_HAL_Driver/Src/stm32l0xx_hal_flash.c **** 
 736:Drivers/STM32L0xx_HAL_Driver/Src/stm32l0xx_hal_flash.c ****   if(__HAL_FLASH_GET_FLAG(FLASH_FLAG_RDERR))
ARM GAS  /tmp/cc7HCqHO.s 			page 16


 121              		.loc 1 736 3 is_stmt 1 view .LVU30
 122              		.loc 1 736 6 is_stmt 0 view .LVU31
 123 0066 124A     		ldr	r2, .L9
 124 0068 9269     		ldr	r2, [r2, #24]
 125              		.loc 1 736 5 view .LVU32
 126 006a 9204     		lsls	r2, r2, #18
 127 006c 07D5     		bpl	.L6
 737:Drivers/STM32L0xx_HAL_Driver/Src/stm32l0xx_hal_flash.c ****   {
 738:Drivers/STM32L0xx_HAL_Driver/Src/stm32l0xx_hal_flash.c ****     pFlash.ErrorCode |= HAL_FLASH_ERROR_RD;
 128              		.loc 1 738 5 is_stmt 1 view .LVU33
 129              		.loc 1 738 22 is_stmt 0 view .LVU34
 130 006e 1149     		ldr	r1, .L9+4
 131 0070 4A69     		ldr	r2, [r1, #20]
 132 0072 1020     		movs	r0, #16
 133 0074 0243     		orrs	r2, r0
 134 0076 4A61     		str	r2, [r1, #20]
 739:Drivers/STM32L0xx_HAL_Driver/Src/stm32l0xx_hal_flash.c ****     flags |= FLASH_FLAG_RDERR;
 135              		.loc 1 739 5 is_stmt 1 view .LVU35
 136              		.loc 1 739 11 is_stmt 0 view .LVU36
 137 0078 8022     		movs	r2, #128
 138 007a 9201     		lsls	r2, r2, #6
 139 007c 1343     		orrs	r3, r2
 140              	.LVL6:
 141              	.L6:
 740:Drivers/STM32L0xx_HAL_Driver/Src/stm32l0xx_hal_flash.c ****   }
 741:Drivers/STM32L0xx_HAL_Driver/Src/stm32l0xx_hal_flash.c ****   if(__HAL_FLASH_GET_FLAG(FLASH_FLAG_FWWERR))
 142              		.loc 1 741 3 is_stmt 1 view .LVU37
 143              		.loc 1 741 6 is_stmt 0 view .LVU38
 144 007e 0C4A     		ldr	r2, .L9
 145 0080 9269     		ldr	r2, [r2, #24]
 146              		.loc 1 741 5 view .LVU39
 147 0082 9203     		lsls	r2, r2, #14
 148 0084 05D5     		bpl	.L7
 742:Drivers/STM32L0xx_HAL_Driver/Src/stm32l0xx_hal_flash.c ****   { 
 743:Drivers/STM32L0xx_HAL_Driver/Src/stm32l0xx_hal_flash.c ****     pFlash.ErrorCode |= HAL_FLASH_ERROR_FWWERR;
 149              		.loc 1 743 5 is_stmt 1 view .LVU40
 150              		.loc 1 743 22 is_stmt 0 view .LVU41
 151 0086 0B48     		ldr	r0, .L9+4
 152 0088 4269     		ldr	r2, [r0, #20]
 153 008a 2021     		movs	r1, #32
 154 008c 0A43     		orrs	r2, r1
 155 008e 4261     		str	r2, [r0, #20]
 744:Drivers/STM32L0xx_HAL_Driver/Src/stm32l0xx_hal_flash.c ****     flags |= HAL_FLASH_ERROR_FWWERR;
 156              		.loc 1 744 5 is_stmt 1 view .LVU42
 157              		.loc 1 744 11 is_stmt 0 view .LVU43
 158 0090 0B43     		orrs	r3, r1
 159              	.LVL7:
 160              	.L7:
 745:Drivers/STM32L0xx_HAL_Driver/Src/stm32l0xx_hal_flash.c ****   }
 746:Drivers/STM32L0xx_HAL_Driver/Src/stm32l0xx_hal_flash.c ****   if(__HAL_FLASH_GET_FLAG(FLASH_FLAG_NOTZEROERR))
 161              		.loc 1 746 3 is_stmt 1 view .LVU44
 162              		.loc 1 746 6 is_stmt 0 view .LVU45
 163 0092 074A     		ldr	r2, .L9
 164 0094 9269     		ldr	r2, [r2, #24]
 165              		.loc 1 746 5 view .LVU46
 166 0096 D203     		lsls	r2, r2, #15
 167 0098 07D5     		bpl	.L8
ARM GAS  /tmp/cc7HCqHO.s 			page 17


 747:Drivers/STM32L0xx_HAL_Driver/Src/stm32l0xx_hal_flash.c ****   { 
 748:Drivers/STM32L0xx_HAL_Driver/Src/stm32l0xx_hal_flash.c ****     pFlash.ErrorCode |= HAL_FLASH_ERROR_NOTZERO;
 168              		.loc 1 748 5 is_stmt 1 view .LVU47
 169              		.loc 1 748 22 is_stmt 0 view .LVU48
 170 009a 0649     		ldr	r1, .L9+4
 171 009c 4A69     		ldr	r2, [r1, #20]
 172 009e 4020     		movs	r0, #64
 173 00a0 0243     		orrs	r2, r0
 174 00a2 4A61     		str	r2, [r1, #20]
 749:Drivers/STM32L0xx_HAL_Driver/Src/stm32l0xx_hal_flash.c ****     flags |= FLASH_FLAG_NOTZEROERR;
 175              		.loc 1 749 5 is_stmt 1 view .LVU49
 176              		.loc 1 749 11 is_stmt 0 view .LVU50
 177 00a4 8022     		movs	r2, #128
 178 00a6 5202     		lsls	r2, r2, #9
 179 00a8 1343     		orrs	r3, r2
 180              	.LVL8:
 181              	.L8:
 750:Drivers/STM32L0xx_HAL_Driver/Src/stm32l0xx_hal_flash.c ****   }
 751:Drivers/STM32L0xx_HAL_Driver/Src/stm32l0xx_hal_flash.c **** 
 752:Drivers/STM32L0xx_HAL_Driver/Src/stm32l0xx_hal_flash.c ****   /* Clear FLASH error pending bits */
 753:Drivers/STM32L0xx_HAL_Driver/Src/stm32l0xx_hal_flash.c ****   __HAL_FLASH_CLEAR_FLAG(flags);
 182              		.loc 1 753 3 is_stmt 1 view .LVU51
 183 00aa 014A     		ldr	r2, .L9
 184 00ac 9361     		str	r3, [r2, #24]
 754:Drivers/STM32L0xx_HAL_Driver/Src/stm32l0xx_hal_flash.c **** }  
 185              		.loc 1 754 1 is_stmt 0 view .LVU52
 186              		@ sp needed
 187 00ae 7047     		bx	lr
 188              	.L10:
 189              		.align	2
 190              	.L9:
 191 00b0 00200240 		.word	1073881088
 192 00b4 00000000 		.word	.LANCHOR0
 193              		.cfi_endproc
 194              	.LFE46:
 196              		.section	.text.HAL_FLASH_Program_IT,"ax",%progbits
 197              		.align	1
 198              		.global	HAL_FLASH_Program_IT
 199              		.syntax unified
 200              		.code	16
 201              		.thumb_func
 203              	HAL_FLASH_Program_IT:
 204              	.LVL9:
 205              	.LFB35:
 274:Drivers/STM32L0xx_HAL_Driver/Src/stm32l0xx_hal_flash.c ****   HAL_StatusTypeDef status = HAL_OK;
 206              		.loc 1 274 1 is_stmt 1 view -0
 207              		.cfi_startproc
 208              		@ args = 0, pretend = 0, frame = 0
 209              		@ frame_needed = 0, uses_anonymous_args = 0
 274:Drivers/STM32L0xx_HAL_Driver/Src/stm32l0xx_hal_flash.c ****   HAL_StatusTypeDef status = HAL_OK;
 210              		.loc 1 274 1 is_stmt 0 view .LVU54
 211 0000 70B5     		push	{r4, r5, r6, lr}
 212              	.LCFI0:
 213              		.cfi_def_cfa_offset 16
 214              		.cfi_offset 4, -16
 215              		.cfi_offset 5, -12
 216              		.cfi_offset 6, -8
ARM GAS  /tmp/cc7HCqHO.s 			page 18


 217              		.cfi_offset 14, -4
 275:Drivers/STM32L0xx_HAL_Driver/Src/stm32l0xx_hal_flash.c ****   
 218              		.loc 1 275 3 is_stmt 1 view .LVU55
 219              	.LVL10:
 278:Drivers/STM32L0xx_HAL_Driver/Src/stm32l0xx_hal_flash.c **** 
 220              		.loc 1 278 3 view .LVU56
 278:Drivers/STM32L0xx_HAL_Driver/Src/stm32l0xx_hal_flash.c **** 
 221              		.loc 1 278 3 view .LVU57
 222 0002 0D4B     		ldr	r3, .L16
 223 0004 1B7C     		ldrb	r3, [r3, #16]
 224 0006 012B     		cmp	r3, #1
 225 0008 14D0     		beq	.L13
 278:Drivers/STM32L0xx_HAL_Driver/Src/stm32l0xx_hal_flash.c **** 
 226              		.loc 1 278 3 discriminator 2 view .LVU58
 227 000a 0B4B     		ldr	r3, .L16
 228 000c 0124     		movs	r4, #1
 229 000e 1C74     		strb	r4, [r3, #16]
 278:Drivers/STM32L0xx_HAL_Driver/Src/stm32l0xx_hal_flash.c **** 
 230              		.loc 1 278 3 discriminator 2 view .LVU59
 281:Drivers/STM32L0xx_HAL_Driver/Src/stm32l0xx_hal_flash.c ****   assert_param(IS_FLASH_PROGRAM_ADDRESS(Address));
 231              		.loc 1 281 3 discriminator 2 view .LVU60
 282:Drivers/STM32L0xx_HAL_Driver/Src/stm32l0xx_hal_flash.c **** 
 232              		.loc 1 282 3 discriminator 2 view .LVU61
 285:Drivers/STM32L0xx_HAL_Driver/Src/stm32l0xx_hal_flash.c ****   
 233              		.loc 1 285 3 discriminator 2 view .LVU62
 234 0010 0A4D     		ldr	r5, .L16+4
 235 0012 6E68     		ldr	r6, [r5, #4]
 236 0014 C024     		movs	r4, #192
 237 0016 A402     		lsls	r4, r4, #10
 238 0018 3443     		orrs	r4, r6
 239 001a 6C60     		str	r4, [r5, #4]
 287:Drivers/STM32L0xx_HAL_Driver/Src/stm32l0xx_hal_flash.c ****   pFlash.ProcedureOnGoing = FLASH_PROC_PROGRAM;
 240              		.loc 1 287 3 discriminator 2 view .LVU63
 287:Drivers/STM32L0xx_HAL_Driver/Src/stm32l0xx_hal_flash.c ****   pFlash.ProcedureOnGoing = FLASH_PROC_PROGRAM;
 241              		.loc 1 287 18 is_stmt 0 discriminator 2 view .LVU64
 242 001c 9960     		str	r1, [r3, #8]
 288:Drivers/STM32L0xx_HAL_Driver/Src/stm32l0xx_hal_flash.c ****   /* Clean the error context */
 243              		.loc 1 288 3 is_stmt 1 discriminator 2 view .LVU65
 288:Drivers/STM32L0xx_HAL_Driver/Src/stm32l0xx_hal_flash.c ****   /* Clean the error context */
 244              		.loc 1 288 27 is_stmt 0 discriminator 2 view .LVU66
 245 001e 0224     		movs	r4, #2
 246 0020 1C70     		strb	r4, [r3]
 290:Drivers/STM32L0xx_HAL_Driver/Src/stm32l0xx_hal_flash.c **** 
 247              		.loc 1 290 3 is_stmt 1 discriminator 2 view .LVU67
 290:Drivers/STM32L0xx_HAL_Driver/Src/stm32l0xx_hal_flash.c **** 
 248              		.loc 1 290 20 is_stmt 0 discriminator 2 view .LVU68
 249 0022 0024     		movs	r4, #0
 250 0024 5C61     		str	r4, [r3, #20]
 292:Drivers/STM32L0xx_HAL_Driver/Src/stm32l0xx_hal_flash.c ****   {
 251              		.loc 1 292 3 is_stmt 1 discriminator 2 view .LVU69
 292:Drivers/STM32L0xx_HAL_Driver/Src/stm32l0xx_hal_flash.c ****   {
 252              		.loc 1 292 5 is_stmt 0 discriminator 2 view .LVU70
 253 0026 0228     		cmp	r0, #2
 254 0028 01D0     		beq	.L15
 297:Drivers/STM32L0xx_HAL_Driver/Src/stm32l0xx_hal_flash.c **** }
 255              		.loc 1 297 10 view .LVU71
 256 002a 0020     		movs	r0, #0
ARM GAS  /tmp/cc7HCqHO.s 			page 19


 257              	.LVL11:
 258              	.L12:
 298:Drivers/STM32L0xx_HAL_Driver/Src/stm32l0xx_hal_flash.c **** 
 259              		.loc 1 298 1 view .LVU72
 260              		@ sp needed
 261 002c 70BD     		pop	{r4, r5, r6, pc}
 262              	.LVL12:
 263              	.L15:
 295:Drivers/STM32L0xx_HAL_Driver/Src/stm32l0xx_hal_flash.c ****   }
 264              		.loc 1 295 5 is_stmt 1 view .LVU73
 295:Drivers/STM32L0xx_HAL_Driver/Src/stm32l0xx_hal_flash.c ****   }
 265              		.loc 1 295 31 is_stmt 0 view .LVU74
 266 002e 0A60     		str	r2, [r1]
 297:Drivers/STM32L0xx_HAL_Driver/Src/stm32l0xx_hal_flash.c **** }
 267              		.loc 1 297 10 view .LVU75
 268 0030 0020     		movs	r0, #0
 269              	.LVL13:
 297:Drivers/STM32L0xx_HAL_Driver/Src/stm32l0xx_hal_flash.c **** }
 270              		.loc 1 297 10 view .LVU76
 271 0032 FBE7     		b	.L12
 272              	.LVL14:
 273              	.L13:
 278:Drivers/STM32L0xx_HAL_Driver/Src/stm32l0xx_hal_flash.c **** 
 274              		.loc 1 278 3 view .LVU77
 275 0034 0220     		movs	r0, #2
 276              	.LVL15:
 278:Drivers/STM32L0xx_HAL_Driver/Src/stm32l0xx_hal_flash.c **** 
 277              		.loc 1 278 3 view .LVU78
 278 0036 F9E7     		b	.L12
 279              	.L17:
 280              		.align	2
 281              	.L16:
 282 0038 00000000 		.word	.LANCHOR0
 283 003c 00200240 		.word	1073881088
 284              		.cfi_endproc
 285              	.LFE35:
 287              		.section	.text.HAL_FLASH_EndOfOperationCallback,"ax",%progbits
 288              		.align	1
 289              		.weak	HAL_FLASH_EndOfOperationCallback
 290              		.syntax unified
 291              		.code	16
 292              		.thumb_func
 294              	HAL_FLASH_EndOfOperationCallback:
 295              	.LVL16:
 296              	.LFB37:
 429:Drivers/STM32L0xx_HAL_Driver/Src/stm32l0xx_hal_flash.c ****   /* Prevent unused argument(s) compilation warning */
 297              		.loc 1 429 1 is_stmt 1 view -0
 298              		.cfi_startproc
 299              		@ args = 0, pretend = 0, frame = 0
 300              		@ frame_needed = 0, uses_anonymous_args = 0
 301              		@ link register save eliminated.
 431:Drivers/STM32L0xx_HAL_Driver/Src/stm32l0xx_hal_flash.c **** 
 302              		.loc 1 431 3 view .LVU80
 436:Drivers/STM32L0xx_HAL_Driver/Src/stm32l0xx_hal_flash.c **** 
 303              		.loc 1 436 1 is_stmt 0 view .LVU81
 304              		@ sp needed
 305 0000 7047     		bx	lr
ARM GAS  /tmp/cc7HCqHO.s 			page 20


 306              		.cfi_endproc
 307              	.LFE37:
 309              		.section	.text.HAL_FLASH_OperationErrorCallback,"ax",%progbits
 310              		.align	1
 311              		.weak	HAL_FLASH_OperationErrorCallback
 312              		.syntax unified
 313              		.code	16
 314              		.thumb_func
 316              	HAL_FLASH_OperationErrorCallback:
 317              	.LVL17:
 318              	.LFB38:
 446:Drivers/STM32L0xx_HAL_Driver/Src/stm32l0xx_hal_flash.c ****   /* Prevent unused argument(s) compilation warning */
 319              		.loc 1 446 1 is_stmt 1 view -0
 320              		.cfi_startproc
 321              		@ args = 0, pretend = 0, frame = 0
 322              		@ frame_needed = 0, uses_anonymous_args = 0
 323              		@ link register save eliminated.
 448:Drivers/STM32L0xx_HAL_Driver/Src/stm32l0xx_hal_flash.c **** 
 324              		.loc 1 448 3 view .LVU83
 453:Drivers/STM32L0xx_HAL_Driver/Src/stm32l0xx_hal_flash.c **** 
 325              		.loc 1 453 1 is_stmt 0 view .LVU84
 326              		@ sp needed
 327 0000 7047     		bx	lr
 328              		.cfi_endproc
 329              	.LFE38:
 331              		.section	.text.HAL_FLASH_IRQHandler,"ax",%progbits
 332              		.align	1
 333              		.global	HAL_FLASH_IRQHandler
 334              		.syntax unified
 335              		.code	16
 336              		.thumb_func
 338              	HAL_FLASH_IRQHandler:
 339              	.LFB36:
 305:Drivers/STM32L0xx_HAL_Driver/Src/stm32l0xx_hal_flash.c ****   uint32_t addresstmp = 0;
 340              		.loc 1 305 1 is_stmt 1 view -0
 341              		.cfi_startproc
 342              		@ args = 0, pretend = 0, frame = 0
 343              		@ frame_needed = 0, uses_anonymous_args = 0
 344 0000 10B5     		push	{r4, lr}
 345              	.LCFI1:
 346              		.cfi_def_cfa_offset 8
 347              		.cfi_offset 4, -8
 348              		.cfi_offset 14, -4
 306:Drivers/STM32L0xx_HAL_Driver/Src/stm32l0xx_hal_flash.c ****   
 349              		.loc 1 306 3 view .LVU86
 350              	.LVL18:
 321:Drivers/STM32L0xx_HAL_Driver/Src/stm32l0xx_hal_flash.c ****       __HAL_FLASH_GET_FLAG(FLASH_FLAG_PGAERR)     || 
 351              		.loc 1 321 3 view .LVU87
 321:Drivers/STM32L0xx_HAL_Driver/Src/stm32l0xx_hal_flash.c ****       __HAL_FLASH_GET_FLAG(FLASH_FLAG_PGAERR)     || 
 352              		.loc 1 321 7 is_stmt 0 view .LVU88
 353 0002 3E4B     		ldr	r3, .L30
 354 0004 9B69     		ldr	r3, [r3, #24]
 321:Drivers/STM32L0xx_HAL_Driver/Src/stm32l0xx_hal_flash.c ****       __HAL_FLASH_GET_FLAG(FLASH_FLAG_PGAERR)     || 
 355              		.loc 1 321 5 view .LVU89
 356 0006 DB05     		lsls	r3, r3, #23
 357 0008 17D4     		bmi	.L21
 322:Drivers/STM32L0xx_HAL_Driver/Src/stm32l0xx_hal_flash.c ****       __HAL_FLASH_GET_FLAG(FLASH_FLAG_SIZERR)     || 
ARM GAS  /tmp/cc7HCqHO.s 			page 21


 358              		.loc 1 322 7 discriminator 1 view .LVU90
 359 000a 3C4B     		ldr	r3, .L30
 360 000c 9B69     		ldr	r3, [r3, #24]
 321:Drivers/STM32L0xx_HAL_Driver/Src/stm32l0xx_hal_flash.c ****       __HAL_FLASH_GET_FLAG(FLASH_FLAG_PGAERR)     || 
 361              		.loc 1 321 51 discriminator 1 view .LVU91
 362 000e 9B05     		lsls	r3, r3, #22
 363 0010 13D4     		bmi	.L21
 323:Drivers/STM32L0xx_HAL_Driver/Src/stm32l0xx_hal_flash.c ****       __HAL_FLASH_GET_FLAG(FLASH_FLAG_OPTVERR)    || 
 364              		.loc 1 323 7 view .LVU92
 365 0012 3A4B     		ldr	r3, .L30
 366 0014 9B69     		ldr	r3, [r3, #24]
 322:Drivers/STM32L0xx_HAL_Driver/Src/stm32l0xx_hal_flash.c ****       __HAL_FLASH_GET_FLAG(FLASH_FLAG_SIZERR)     || 
 367              		.loc 1 322 51 view .LVU93
 368 0016 5B05     		lsls	r3, r3, #21
 369 0018 0FD4     		bmi	.L21
 324:Drivers/STM32L0xx_HAL_Driver/Src/stm32l0xx_hal_flash.c ****       __HAL_FLASH_GET_FLAG(FLASH_FLAG_RDERR)      || 
 370              		.loc 1 324 7 view .LVU94
 371 001a 384B     		ldr	r3, .L30
 372 001c 9B69     		ldr	r3, [r3, #24]
 323:Drivers/STM32L0xx_HAL_Driver/Src/stm32l0xx_hal_flash.c ****       __HAL_FLASH_GET_FLAG(FLASH_FLAG_OPTVERR)    || 
 373              		.loc 1 323 51 view .LVU95
 374 001e 1B05     		lsls	r3, r3, #20
 375 0020 0BD4     		bmi	.L21
 325:Drivers/STM32L0xx_HAL_Driver/Src/stm32l0xx_hal_flash.c ****       __HAL_FLASH_GET_FLAG(FLASH_FLAG_FWWERR)     || 
 376              		.loc 1 325 7 view .LVU96
 377 0022 364B     		ldr	r3, .L30
 378 0024 9B69     		ldr	r3, [r3, #24]
 324:Drivers/STM32L0xx_HAL_Driver/Src/stm32l0xx_hal_flash.c ****       __HAL_FLASH_GET_FLAG(FLASH_FLAG_RDERR)      || 
 379              		.loc 1 324 51 view .LVU97
 380 0026 9B04     		lsls	r3, r3, #18
 381 0028 07D4     		bmi	.L21
 326:Drivers/STM32L0xx_HAL_Driver/Src/stm32l0xx_hal_flash.c ****       __HAL_FLASH_GET_FLAG(FLASH_FLAG_NOTZEROERR) )
 382              		.loc 1 326 7 view .LVU98
 383 002a 344B     		ldr	r3, .L30
 384 002c 9B69     		ldr	r3, [r3, #24]
 325:Drivers/STM32L0xx_HAL_Driver/Src/stm32l0xx_hal_flash.c ****       __HAL_FLASH_GET_FLAG(FLASH_FLAG_FWWERR)     || 
 385              		.loc 1 325 51 view .LVU99
 386 002e 9B03     		lsls	r3, r3, #14
 387 0030 03D4     		bmi	.L21
 327:Drivers/STM32L0xx_HAL_Driver/Src/stm32l0xx_hal_flash.c ****   {
 388              		.loc 1 327 7 view .LVU100
 389 0032 324B     		ldr	r3, .L30
 390 0034 9B69     		ldr	r3, [r3, #24]
 326:Drivers/STM32L0xx_HAL_Driver/Src/stm32l0xx_hal_flash.c ****       __HAL_FLASH_GET_FLAG(FLASH_FLAG_NOTZEROERR) )
 391              		.loc 1 326 51 view .LVU101
 392 0036 DB03     		lsls	r3, r3, #15
 393 0038 0DD5     		bpl	.L22
 394              	.L21:
 329:Drivers/STM32L0xx_HAL_Driver/Src/stm32l0xx_hal_flash.c ****     {
 395              		.loc 1 329 5 is_stmt 1 view .LVU102
 329:Drivers/STM32L0xx_HAL_Driver/Src/stm32l0xx_hal_flash.c ****     {
 396              		.loc 1 329 14 is_stmt 0 view .LVU103
 397 003a 314B     		ldr	r3, .L30+4
 398 003c 1B78     		ldrb	r3, [r3]
 329:Drivers/STM32L0xx_HAL_Driver/Src/stm32l0xx_hal_flash.c ****     {
 399              		.loc 1 329 7 view .LVU104
 400 003e 012B     		cmp	r3, #1
ARM GAS  /tmp/cc7HCqHO.s 			page 22


 401 0040 2ED0     		beq	.L29
 338:Drivers/STM32L0xx_HAL_Driver/Src/stm32l0xx_hal_flash.c ****     }
 402              		.loc 1 338 7 is_stmt 1 view .LVU105
 338:Drivers/STM32L0xx_HAL_Driver/Src/stm32l0xx_hal_flash.c ****     }
 403              		.loc 1 338 18 is_stmt 0 view .LVU106
 404 0042 2F4B     		ldr	r3, .L30+4
 405 0044 9C68     		ldr	r4, [r3, #8]
 406              	.LVL19:
 407              	.L24:
 341:Drivers/STM32L0xx_HAL_Driver/Src/stm32l0xx_hal_flash.c ****     
 408              		.loc 1 341 5 is_stmt 1 view .LVU107
 409 0046 FFF7FEFF 		bl	FLASH_SetErrorCode
 410              	.LVL20:
 344:Drivers/STM32L0xx_HAL_Driver/Src/stm32l0xx_hal_flash.c **** 
 411              		.loc 1 344 5 view .LVU108
 412 004a 2000     		movs	r0, r4
 413 004c FFF7FEFF 		bl	HAL_FLASH_OperationErrorCallback
 414              	.LVL21:
 347:Drivers/STM32L0xx_HAL_Driver/Src/stm32l0xx_hal_flash.c ****   }
 415              		.loc 1 347 5 view .LVU109
 347:Drivers/STM32L0xx_HAL_Driver/Src/stm32l0xx_hal_flash.c ****   }
 416              		.loc 1 347 29 is_stmt 0 view .LVU110
 417 0050 2B4B     		ldr	r3, .L30+4
 418 0052 0022     		movs	r2, #0
 419 0054 1A70     		strb	r2, [r3]
 420              	.LVL22:
 421              	.L22:
 351:Drivers/STM32L0xx_HAL_Driver/Src/stm32l0xx_hal_flash.c ****   {
 422              		.loc 1 351 3 is_stmt 1 view .LVU111
 351:Drivers/STM32L0xx_HAL_Driver/Src/stm32l0xx_hal_flash.c ****   {
 423              		.loc 1 351 6 is_stmt 0 view .LVU112
 424 0056 294B     		ldr	r3, .L30
 425 0058 9B69     		ldr	r3, [r3, #24]
 351:Drivers/STM32L0xx_HAL_Driver/Src/stm32l0xx_hal_flash.c ****   {
 426              		.loc 1 351 5 view .LVU113
 427 005a 9B07     		lsls	r3, r3, #30
 428 005c 3DD5     		bpl	.L25
 354:Drivers/STM32L0xx_HAL_Driver/Src/stm32l0xx_hal_flash.c ****     
 429              		.loc 1 354 5 is_stmt 1 view .LVU114
 430 005e 274B     		ldr	r3, .L30
 431 0060 0222     		movs	r2, #2
 432 0062 9A61     		str	r2, [r3, #24]
 357:Drivers/STM32L0xx_HAL_Driver/Src/stm32l0xx_hal_flash.c ****     {
 433              		.loc 1 357 5 view .LVU115
 357:Drivers/STM32L0xx_HAL_Driver/Src/stm32l0xx_hal_flash.c ****     {
 434              		.loc 1 357 14 is_stmt 0 view .LVU116
 435 0064 264B     		ldr	r3, .L30+4
 436 0066 1B78     		ldrb	r3, [r3]
 357:Drivers/STM32L0xx_HAL_Driver/Src/stm32l0xx_hal_flash.c ****     {
 437              		.loc 1 357 7 view .LVU117
 438 0068 002B     		cmp	r3, #0
 439 006a 36D0     		beq	.L25
 359:Drivers/STM32L0xx_HAL_Driver/Src/stm32l0xx_hal_flash.c ****       {
 440              		.loc 1 359 7 is_stmt 1 view .LVU118
 359:Drivers/STM32L0xx_HAL_Driver/Src/stm32l0xx_hal_flash.c ****       {
 441              		.loc 1 359 16 is_stmt 0 view .LVU119
 442 006c 244B     		ldr	r3, .L30+4
ARM GAS  /tmp/cc7HCqHO.s 			page 23


 443 006e 1B78     		ldrb	r3, [r3]
 359:Drivers/STM32L0xx_HAL_Driver/Src/stm32l0xx_hal_flash.c ****       {
 444              		.loc 1 359 9 view .LVU120
 445 0070 012B     		cmp	r3, #1
 446 0072 24D1     		bne	.L26
 362:Drivers/STM32L0xx_HAL_Driver/Src/stm32l0xx_hal_flash.c **** 
 447              		.loc 1 362 9 is_stmt 1 view .LVU121
 362:Drivers/STM32L0xx_HAL_Driver/Src/stm32l0xx_hal_flash.c **** 
 448              		.loc 1 362 15 is_stmt 0 view .LVU122
 449 0074 224B     		ldr	r3, .L30+4
 450 0076 5A68     		ldr	r2, [r3, #4]
 362:Drivers/STM32L0xx_HAL_Driver/Src/stm32l0xx_hal_flash.c **** 
 451              		.loc 1 362 30 view .LVU123
 452 0078 013A     		subs	r2, r2, #1
 453 007a 5A60     		str	r2, [r3, #4]
 365:Drivers/STM32L0xx_HAL_Driver/Src/stm32l0xx_hal_flash.c ****         {
 454              		.loc 1 365 9 is_stmt 1 view .LVU124
 365:Drivers/STM32L0xx_HAL_Driver/Src/stm32l0xx_hal_flash.c ****         {
 455              		.loc 1 365 18 is_stmt 0 view .LVU125
 456 007c 5B68     		ldr	r3, [r3, #4]
 365:Drivers/STM32L0xx_HAL_Driver/Src/stm32l0xx_hal_flash.c ****         {
 457              		.loc 1 365 11 view .LVU126
 458 007e 002B     		cmp	r3, #0
 459 0080 14D0     		beq	.L27
 367:Drivers/STM32L0xx_HAL_Driver/Src/stm32l0xx_hal_flash.c ****           /*Indicate user which sector has been erased */
 460              		.loc 1 367 11 is_stmt 1 view .LVU127
 367:Drivers/STM32L0xx_HAL_Driver/Src/stm32l0xx_hal_flash.c ****           /*Indicate user which sector has been erased */
 461              		.loc 1 367 22 is_stmt 0 view .LVU128
 462 0082 1F4C     		ldr	r4, .L30+4
 463 0084 E068     		ldr	r0, [r4, #12]
 464              	.LVL23:
 369:Drivers/STM32L0xx_HAL_Driver/Src/stm32l0xx_hal_flash.c **** 
 465              		.loc 1 369 11 is_stmt 1 view .LVU129
 466 0086 FFF7FEFF 		bl	HAL_FLASH_EndOfOperationCallback
 467              	.LVL24:
 372:Drivers/STM32L0xx_HAL_Driver/Src/stm32l0xx_hal_flash.c ****           pFlash.Page = addresstmp;
 468              		.loc 1 372 11 view .LVU130
 372:Drivers/STM32L0xx_HAL_Driver/Src/stm32l0xx_hal_flash.c ****           pFlash.Page = addresstmp;
 469              		.loc 1 372 30 is_stmt 0 view .LVU131
 470 008a E068     		ldr	r0, [r4, #12]
 372:Drivers/STM32L0xx_HAL_Driver/Src/stm32l0xx_hal_flash.c ****           pFlash.Page = addresstmp;
 471              		.loc 1 372 22 view .LVU132
 472 008c 8030     		adds	r0, r0, #128
 473              	.LVL25:
 373:Drivers/STM32L0xx_HAL_Driver/Src/stm32l0xx_hal_flash.c **** 
 474              		.loc 1 373 11 is_stmt 1 view .LVU133
 373:Drivers/STM32L0xx_HAL_Driver/Src/stm32l0xx_hal_flash.c **** 
 475              		.loc 1 373 23 is_stmt 0 view .LVU134
 476 008e E060     		str	r0, [r4, #12]
 376:Drivers/STM32L0xx_HAL_Driver/Src/stm32l0xx_hal_flash.c **** 
 477              		.loc 1 376 11 is_stmt 1 view .LVU135
 478 0090 1A4A     		ldr	r2, .L30
 479 0092 5368     		ldr	r3, [r2, #4]
 480 0094 1B49     		ldr	r1, .L30+8
 481 0096 0B40     		ands	r3, r1
 482 0098 5360     		str	r3, [r2, #4]
 378:Drivers/STM32L0xx_HAL_Driver/Src/stm32l0xx_hal_flash.c ****         }
ARM GAS  /tmp/cc7HCqHO.s 			page 24


 483              		.loc 1 378 11 view .LVU136
 484 009a FFF7FEFF 		bl	FLASH_PageErase
 485              	.LVL26:
 378:Drivers/STM32L0xx_HAL_Driver/Src/stm32l0xx_hal_flash.c ****         }
 486              		.loc 1 378 11 is_stmt 0 view .LVU137
 487 009e 1CE0     		b	.L25
 488              	.LVL27:
 489              	.L29:
 332:Drivers/STM32L0xx_HAL_Driver/Src/stm32l0xx_hal_flash.c ****       pFlash.Page = 0xFFFFFFFFU;
 490              		.loc 1 332 7 is_stmt 1 view .LVU138
 332:Drivers/STM32L0xx_HAL_Driver/Src/stm32l0xx_hal_flash.c ****       pFlash.Page = 0xFFFFFFFFU;
 491              		.loc 1 332 18 is_stmt 0 view .LVU139
 492 00a0 174B     		ldr	r3, .L30+4
 493 00a2 DC68     		ldr	r4, [r3, #12]
 494              	.LVL28:
 333:Drivers/STM32L0xx_HAL_Driver/Src/stm32l0xx_hal_flash.c ****     }
 495              		.loc 1 333 7 is_stmt 1 view .LVU140
 333:Drivers/STM32L0xx_HAL_Driver/Src/stm32l0xx_hal_flash.c ****     }
 496              		.loc 1 333 19 is_stmt 0 view .LVU141
 497 00a4 0122     		movs	r2, #1
 498 00a6 5242     		rsbs	r2, r2, #0
 499 00a8 DA60     		str	r2, [r3, #12]
 500 00aa CCE7     		b	.L24
 501              	.LVL29:
 502              	.L27:
 384:Drivers/STM32L0xx_HAL_Driver/Src/stm32l0xx_hal_flash.c ****           pFlash.ProcedureOnGoing = FLASH_PROC_NONE;
 503              		.loc 1 384 11 is_stmt 1 view .LVU142
 384:Drivers/STM32L0xx_HAL_Driver/Src/stm32l0xx_hal_flash.c ****           pFlash.ProcedureOnGoing = FLASH_PROC_NONE;
 504              		.loc 1 384 23 is_stmt 0 view .LVU143
 505 00ac 144B     		ldr	r3, .L30+4
 506 00ae 0120     		movs	r0, #1
 507 00b0 4042     		rsbs	r0, r0, #0
 508 00b2 D860     		str	r0, [r3, #12]
 385:Drivers/STM32L0xx_HAL_Driver/Src/stm32l0xx_hal_flash.c ****           /* FLASH EOP interrupt user callback */
 509              		.loc 1 385 11 is_stmt 1 view .LVU144
 385:Drivers/STM32L0xx_HAL_Driver/Src/stm32l0xx_hal_flash.c ****           /* FLASH EOP interrupt user callback */
 510              		.loc 1 385 35 is_stmt 0 view .LVU145
 511 00b4 0022     		movs	r2, #0
 512 00b6 1A70     		strb	r2, [r3]
 387:Drivers/STM32L0xx_HAL_Driver/Src/stm32l0xx_hal_flash.c ****         }
 513              		.loc 1 387 11 is_stmt 1 view .LVU146
 514 00b8 FFF7FEFF 		bl	HAL_FLASH_EndOfOperationCallback
 515              	.LVL30:
 516 00bc 0DE0     		b	.L25
 517              	.LVL31:
 518              	.L26:
 393:Drivers/STM32L0xx_HAL_Driver/Src/stm32l0xx_hal_flash.c **** 
 519              		.loc 1 393 11 view .LVU147
 520 00be 0F4A     		ldr	r2, .L30
 521 00c0 5368     		ldr	r3, [r2, #4]
 522 00c2 0821     		movs	r1, #8
 523 00c4 8B43     		bics	r3, r1
 524 00c6 5360     		str	r3, [r2, #4]
 397:Drivers/STM32L0xx_HAL_Driver/Src/stm32l0xx_hal_flash.c ****         
 525              		.loc 1 397 11 view .LVU148
 526 00c8 0D4C     		ldr	r4, .L30+4
 527 00ca A068     		ldr	r0, [r4, #8]
ARM GAS  /tmp/cc7HCqHO.s 			page 25


 528 00cc FFF7FEFF 		bl	HAL_FLASH_EndOfOperationCallback
 529              	.LVL32:
 400:Drivers/STM32L0xx_HAL_Driver/Src/stm32l0xx_hal_flash.c ****           pFlash.ProcedureOnGoing = FLASH_PROC_NONE;
 530              		.loc 1 400 11 view .LVU149
 400:Drivers/STM32L0xx_HAL_Driver/Src/stm32l0xx_hal_flash.c ****           pFlash.ProcedureOnGoing = FLASH_PROC_NONE;
 531              		.loc 1 400 26 is_stmt 0 view .LVU150
 532 00d0 0123     		movs	r3, #1
 533 00d2 5B42     		rsbs	r3, r3, #0
 534 00d4 A360     		str	r3, [r4, #8]
 401:Drivers/STM32L0xx_HAL_Driver/Src/stm32l0xx_hal_flash.c ****       }
 535              		.loc 1 401 11 is_stmt 1 view .LVU151
 401:Drivers/STM32L0xx_HAL_Driver/Src/stm32l0xx_hal_flash.c ****       }
 536              		.loc 1 401 35 is_stmt 0 view .LVU152
 537 00d6 0023     		movs	r3, #0
 538 00d8 2370     		strb	r3, [r4]
 539              	.L25:
 407:Drivers/STM32L0xx_HAL_Driver/Src/stm32l0xx_hal_flash.c ****   {
 540              		.loc 1 407 3 is_stmt 1 view .LVU153
 407:Drivers/STM32L0xx_HAL_Driver/Src/stm32l0xx_hal_flash.c ****   {
 541              		.loc 1 407 12 is_stmt 0 view .LVU154
 542 00da 094B     		ldr	r3, .L30+4
 543 00dc 1B78     		ldrb	r3, [r3]
 407:Drivers/STM32L0xx_HAL_Driver/Src/stm32l0xx_hal_flash.c ****   {
 544              		.loc 1 407 5 view .LVU155
 545 00de 002B     		cmp	r3, #0
 546 00e0 0BD1     		bne	.L20
 410:Drivers/STM32L0xx_HAL_Driver/Src/stm32l0xx_hal_flash.c **** 
 547              		.loc 1 410 5 is_stmt 1 view .LVU156
 548 00e2 064B     		ldr	r3, .L30
 549 00e4 5A68     		ldr	r2, [r3, #4]
 550 00e6 0849     		ldr	r1, .L30+12
 551 00e8 0A40     		ands	r2, r1
 552 00ea 5A60     		str	r2, [r3, #4]
 413:Drivers/STM32L0xx_HAL_Driver/Src/stm32l0xx_hal_flash.c **** 
 553              		.loc 1 413 5 view .LVU157
 554 00ec 5A68     		ldr	r2, [r3, #4]
 555 00ee 0749     		ldr	r1, .L30+16
 556 00f0 0A40     		ands	r2, r1
 557 00f2 5A60     		str	r2, [r3, #4]
 416:Drivers/STM32L0xx_HAL_Driver/Src/stm32l0xx_hal_flash.c ****   }
 558              		.loc 1 416 5 view .LVU158
 416:Drivers/STM32L0xx_HAL_Driver/Src/stm32l0xx_hal_flash.c ****   }
 559              		.loc 1 416 5 view .LVU159
 560 00f4 024B     		ldr	r3, .L30+4
 561 00f6 0022     		movs	r2, #0
 562 00f8 1A74     		strb	r2, [r3, #16]
 416:Drivers/STM32L0xx_HAL_Driver/Src/stm32l0xx_hal_flash.c ****   }
 563              		.loc 1 416 5 view .LVU160
 564              	.L20:
 418:Drivers/STM32L0xx_HAL_Driver/Src/stm32l0xx_hal_flash.c **** 
 565              		.loc 1 418 1 is_stmt 0 view .LVU161
 566              		@ sp needed
 567 00fa 10BD     		pop	{r4, pc}
 568              	.L31:
 569              		.align	2
 570              	.L30:
 571 00fc 00200240 		.word	1073881088
ARM GAS  /tmp/cc7HCqHO.s 			page 26


 572 0100 00000000 		.word	.LANCHOR0
 573 0104 FFFDFFFF 		.word	-513
 574 0108 F7FDFFFF 		.word	-521
 575 010c FFFFFCFF 		.word	-196609
 576              		.cfi_endproc
 577              	.LFE36:
 579              		.section	.text.HAL_FLASH_Unlock,"ax",%progbits
 580              		.align	1
 581              		.global	HAL_FLASH_Unlock
 582              		.syntax unified
 583              		.code	16
 584              		.thumb_func
 586              	HAL_FLASH_Unlock:
 587              	.LFB39:
 479:Drivers/STM32L0xx_HAL_Driver/Src/stm32l0xx_hal_flash.c ****   uint32_t primask_bit;
 588              		.loc 1 479 1 is_stmt 1 view -0
 589              		.cfi_startproc
 590              		@ args = 0, pretend = 0, frame = 0
 591              		@ frame_needed = 0, uses_anonymous_args = 0
 592              		@ link register save eliminated.
 480:Drivers/STM32L0xx_HAL_Driver/Src/stm32l0xx_hal_flash.c **** 
 593              		.loc 1 480 3 view .LVU163
 483:Drivers/STM32L0xx_HAL_Driver/Src/stm32l0xx_hal_flash.c ****   {
 594              		.loc 1 483 3 view .LVU164
 483:Drivers/STM32L0xx_HAL_Driver/Src/stm32l0xx_hal_flash.c ****   {
 595              		.loc 1 483 6 is_stmt 0 view .LVU165
 596 0000 144B     		ldr	r3, .L38
 597 0002 5B68     		ldr	r3, [r3, #4]
 483:Drivers/STM32L0xx_HAL_Driver/Src/stm32l0xx_hal_flash.c ****   {
 598              		.loc 1 483 5 view .LVU166
 599 0004 DB07     		lsls	r3, r3, #31
 600 0006 0CD5     		bpl	.L33
 486:Drivers/STM32L0xx_HAL_Driver/Src/stm32l0xx_hal_flash.c ****     __disable_irq();
 601              		.loc 1 486 5 is_stmt 1 view .LVU167
 602              	.LBB20:
 603              	.LBI20:
 604              		.file 2 "Drivers/CMSIS/Include/cmsis_gcc.h"
   1:Drivers/CMSIS/Include/cmsis_gcc.h **** /**************************************************************************//**
   2:Drivers/CMSIS/Include/cmsis_gcc.h ****  * @file     cmsis_gcc.h
   3:Drivers/CMSIS/Include/cmsis_gcc.h ****  * @brief    CMSIS Cortex-M Core Function/Instruction Header File
   4:Drivers/CMSIS/Include/cmsis_gcc.h ****  * @version  V4.30
   5:Drivers/CMSIS/Include/cmsis_gcc.h ****  * @date     20. October 2015
   6:Drivers/CMSIS/Include/cmsis_gcc.h ****  ******************************************************************************/
   7:Drivers/CMSIS/Include/cmsis_gcc.h **** /* Copyright (c) 2009 - 2015 ARM LIMITED
   8:Drivers/CMSIS/Include/cmsis_gcc.h **** 
   9:Drivers/CMSIS/Include/cmsis_gcc.h ****    All rights reserved.
  10:Drivers/CMSIS/Include/cmsis_gcc.h ****    Redistribution and use in source and binary forms, with or without
  11:Drivers/CMSIS/Include/cmsis_gcc.h ****    modification, are permitted provided that the following conditions are met:
  12:Drivers/CMSIS/Include/cmsis_gcc.h ****    - Redistributions of source code must retain the above copyright
  13:Drivers/CMSIS/Include/cmsis_gcc.h ****      notice, this list of conditions and the following disclaimer.
  14:Drivers/CMSIS/Include/cmsis_gcc.h ****    - Redistributions in binary form must reproduce the above copyright
  15:Drivers/CMSIS/Include/cmsis_gcc.h ****      notice, this list of conditions and the following disclaimer in the
  16:Drivers/CMSIS/Include/cmsis_gcc.h ****      documentation and/or other materials provided with the distribution.
  17:Drivers/CMSIS/Include/cmsis_gcc.h ****    - Neither the name of ARM nor the names of its contributors may be used
  18:Drivers/CMSIS/Include/cmsis_gcc.h ****      to endorse or promote products derived from this software without
  19:Drivers/CMSIS/Include/cmsis_gcc.h ****      specific prior written permission.
  20:Drivers/CMSIS/Include/cmsis_gcc.h ****    *
ARM GAS  /tmp/cc7HCqHO.s 			page 27


  21:Drivers/CMSIS/Include/cmsis_gcc.h ****    THIS SOFTWARE IS PROVIDED BY THE COPYRIGHT HOLDERS AND CONTRIBUTORS "AS IS"
  22:Drivers/CMSIS/Include/cmsis_gcc.h ****    AND ANY EXPRESS OR IMPLIED WARRANTIES, INCLUDING, BUT NOT LIMITED TO, THE
  23:Drivers/CMSIS/Include/cmsis_gcc.h ****    IMPLIED WARRANTIES OF MERCHANTABILITY AND FITNESS FOR A PARTICULAR PURPOSE
  24:Drivers/CMSIS/Include/cmsis_gcc.h ****    ARE DISCLAIMED. IN NO EVENT SHALL COPYRIGHT HOLDERS AND CONTRIBUTORS BE
  25:Drivers/CMSIS/Include/cmsis_gcc.h ****    LIABLE FOR ANY DIRECT, INDIRECT, INCIDENTAL, SPECIAL, EXEMPLARY, OR
  26:Drivers/CMSIS/Include/cmsis_gcc.h ****    CONSEQUENTIAL DAMAGES (INCLUDING, BUT NOT LIMITED TO, PROCUREMENT OF
  27:Drivers/CMSIS/Include/cmsis_gcc.h ****    SUBSTITUTE GOODS OR SERVICES; LOSS OF USE, DATA, OR PROFITS; OR BUSINESS
  28:Drivers/CMSIS/Include/cmsis_gcc.h ****    INTERRUPTION) HOWEVER CAUSED AND ON ANY THEORY OF LIABILITY, WHETHER IN
  29:Drivers/CMSIS/Include/cmsis_gcc.h ****    CONTRACT, STRICT LIABILITY, OR TORT (INCLUDING NEGLIGENCE OR OTHERWISE)
  30:Drivers/CMSIS/Include/cmsis_gcc.h ****    ARISING IN ANY WAY OUT OF THE USE OF THIS SOFTWARE, EVEN IF ADVISED OF THE
  31:Drivers/CMSIS/Include/cmsis_gcc.h ****    POSSIBILITY OF SUCH DAMAGE.
  32:Drivers/CMSIS/Include/cmsis_gcc.h ****    ---------------------------------------------------------------------------*/
  33:Drivers/CMSIS/Include/cmsis_gcc.h **** 
  34:Drivers/CMSIS/Include/cmsis_gcc.h **** 
  35:Drivers/CMSIS/Include/cmsis_gcc.h **** #ifndef __CMSIS_GCC_H
  36:Drivers/CMSIS/Include/cmsis_gcc.h **** #define __CMSIS_GCC_H
  37:Drivers/CMSIS/Include/cmsis_gcc.h **** 
  38:Drivers/CMSIS/Include/cmsis_gcc.h **** /* ignore some GCC warnings */
  39:Drivers/CMSIS/Include/cmsis_gcc.h **** #if defined ( __GNUC__ )
  40:Drivers/CMSIS/Include/cmsis_gcc.h **** #pragma GCC diagnostic push
  41:Drivers/CMSIS/Include/cmsis_gcc.h **** #pragma GCC diagnostic ignored "-Wsign-conversion"
  42:Drivers/CMSIS/Include/cmsis_gcc.h **** #pragma GCC diagnostic ignored "-Wconversion"
  43:Drivers/CMSIS/Include/cmsis_gcc.h **** #pragma GCC diagnostic ignored "-Wunused-parameter"
  44:Drivers/CMSIS/Include/cmsis_gcc.h **** #endif
  45:Drivers/CMSIS/Include/cmsis_gcc.h **** 
  46:Drivers/CMSIS/Include/cmsis_gcc.h **** 
  47:Drivers/CMSIS/Include/cmsis_gcc.h **** /* ###########################  Core Function Access  ########################### */
  48:Drivers/CMSIS/Include/cmsis_gcc.h **** /** \ingroup  CMSIS_Core_FunctionInterface
  49:Drivers/CMSIS/Include/cmsis_gcc.h ****     \defgroup CMSIS_Core_RegAccFunctions CMSIS Core Register Access Functions
  50:Drivers/CMSIS/Include/cmsis_gcc.h ****   @{
  51:Drivers/CMSIS/Include/cmsis_gcc.h ****  */
  52:Drivers/CMSIS/Include/cmsis_gcc.h **** 
  53:Drivers/CMSIS/Include/cmsis_gcc.h **** /**
  54:Drivers/CMSIS/Include/cmsis_gcc.h ****   \brief   Enable IRQ Interrupts
  55:Drivers/CMSIS/Include/cmsis_gcc.h ****   \details Enables IRQ interrupts by clearing the I-bit in the CPSR.
  56:Drivers/CMSIS/Include/cmsis_gcc.h ****            Can only be executed in Privileged modes.
  57:Drivers/CMSIS/Include/cmsis_gcc.h ****  */
  58:Drivers/CMSIS/Include/cmsis_gcc.h **** __attribute__( ( always_inline ) ) __STATIC_INLINE void __enable_irq(void)
  59:Drivers/CMSIS/Include/cmsis_gcc.h **** {
  60:Drivers/CMSIS/Include/cmsis_gcc.h ****   __ASM volatile ("cpsie i" : : : "memory");
  61:Drivers/CMSIS/Include/cmsis_gcc.h **** }
  62:Drivers/CMSIS/Include/cmsis_gcc.h **** 
  63:Drivers/CMSIS/Include/cmsis_gcc.h **** 
  64:Drivers/CMSIS/Include/cmsis_gcc.h **** /**
  65:Drivers/CMSIS/Include/cmsis_gcc.h ****   \brief   Disable IRQ Interrupts
  66:Drivers/CMSIS/Include/cmsis_gcc.h ****   \details Disables IRQ interrupts by setting the I-bit in the CPSR.
  67:Drivers/CMSIS/Include/cmsis_gcc.h ****   Can only be executed in Privileged modes.
  68:Drivers/CMSIS/Include/cmsis_gcc.h ****  */
  69:Drivers/CMSIS/Include/cmsis_gcc.h **** __attribute__( ( always_inline ) ) __STATIC_INLINE void __disable_irq(void)
  70:Drivers/CMSIS/Include/cmsis_gcc.h **** {
  71:Drivers/CMSIS/Include/cmsis_gcc.h ****   __ASM volatile ("cpsid i" : : : "memory");
  72:Drivers/CMSIS/Include/cmsis_gcc.h **** }
  73:Drivers/CMSIS/Include/cmsis_gcc.h **** 
  74:Drivers/CMSIS/Include/cmsis_gcc.h **** 
  75:Drivers/CMSIS/Include/cmsis_gcc.h **** /**
  76:Drivers/CMSIS/Include/cmsis_gcc.h ****   \brief   Get Control Register
  77:Drivers/CMSIS/Include/cmsis_gcc.h ****   \details Returns the content of the Control Register.
ARM GAS  /tmp/cc7HCqHO.s 			page 28


  78:Drivers/CMSIS/Include/cmsis_gcc.h ****   \return               Control Register value
  79:Drivers/CMSIS/Include/cmsis_gcc.h ****  */
  80:Drivers/CMSIS/Include/cmsis_gcc.h **** __attribute__( ( always_inline ) ) __STATIC_INLINE uint32_t __get_CONTROL(void)
  81:Drivers/CMSIS/Include/cmsis_gcc.h **** {
  82:Drivers/CMSIS/Include/cmsis_gcc.h ****   uint32_t result;
  83:Drivers/CMSIS/Include/cmsis_gcc.h **** 
  84:Drivers/CMSIS/Include/cmsis_gcc.h ****   __ASM volatile ("MRS %0, control" : "=r" (result) );
  85:Drivers/CMSIS/Include/cmsis_gcc.h ****   return(result);
  86:Drivers/CMSIS/Include/cmsis_gcc.h **** }
  87:Drivers/CMSIS/Include/cmsis_gcc.h **** 
  88:Drivers/CMSIS/Include/cmsis_gcc.h **** 
  89:Drivers/CMSIS/Include/cmsis_gcc.h **** /**
  90:Drivers/CMSIS/Include/cmsis_gcc.h ****   \brief   Set Control Register
  91:Drivers/CMSIS/Include/cmsis_gcc.h ****   \details Writes the given value to the Control Register.
  92:Drivers/CMSIS/Include/cmsis_gcc.h ****   \param [in]    control  Control Register value to set
  93:Drivers/CMSIS/Include/cmsis_gcc.h ****  */
  94:Drivers/CMSIS/Include/cmsis_gcc.h **** __attribute__( ( always_inline ) ) __STATIC_INLINE void __set_CONTROL(uint32_t control)
  95:Drivers/CMSIS/Include/cmsis_gcc.h **** {
  96:Drivers/CMSIS/Include/cmsis_gcc.h ****   __ASM volatile ("MSR control, %0" : : "r" (control) : "memory");
  97:Drivers/CMSIS/Include/cmsis_gcc.h **** }
  98:Drivers/CMSIS/Include/cmsis_gcc.h **** 
  99:Drivers/CMSIS/Include/cmsis_gcc.h **** 
 100:Drivers/CMSIS/Include/cmsis_gcc.h **** /**
 101:Drivers/CMSIS/Include/cmsis_gcc.h ****   \brief   Get IPSR Register
 102:Drivers/CMSIS/Include/cmsis_gcc.h ****   \details Returns the content of the IPSR Register.
 103:Drivers/CMSIS/Include/cmsis_gcc.h ****   \return               IPSR Register value
 104:Drivers/CMSIS/Include/cmsis_gcc.h ****  */
 105:Drivers/CMSIS/Include/cmsis_gcc.h **** __attribute__( ( always_inline ) ) __STATIC_INLINE uint32_t __get_IPSR(void)
 106:Drivers/CMSIS/Include/cmsis_gcc.h **** {
 107:Drivers/CMSIS/Include/cmsis_gcc.h ****   uint32_t result;
 108:Drivers/CMSIS/Include/cmsis_gcc.h **** 
 109:Drivers/CMSIS/Include/cmsis_gcc.h ****   __ASM volatile ("MRS %0, ipsr" : "=r" (result) );
 110:Drivers/CMSIS/Include/cmsis_gcc.h ****   return(result);
 111:Drivers/CMSIS/Include/cmsis_gcc.h **** }
 112:Drivers/CMSIS/Include/cmsis_gcc.h **** 
 113:Drivers/CMSIS/Include/cmsis_gcc.h **** 
 114:Drivers/CMSIS/Include/cmsis_gcc.h **** /**
 115:Drivers/CMSIS/Include/cmsis_gcc.h ****   \brief   Get APSR Register
 116:Drivers/CMSIS/Include/cmsis_gcc.h ****   \details Returns the content of the APSR Register.
 117:Drivers/CMSIS/Include/cmsis_gcc.h ****   \return               APSR Register value
 118:Drivers/CMSIS/Include/cmsis_gcc.h ****  */
 119:Drivers/CMSIS/Include/cmsis_gcc.h **** __attribute__( ( always_inline ) ) __STATIC_INLINE uint32_t __get_APSR(void)
 120:Drivers/CMSIS/Include/cmsis_gcc.h **** {
 121:Drivers/CMSIS/Include/cmsis_gcc.h ****   uint32_t result;
 122:Drivers/CMSIS/Include/cmsis_gcc.h **** 
 123:Drivers/CMSIS/Include/cmsis_gcc.h ****   __ASM volatile ("MRS %0, apsr" : "=r" (result) );
 124:Drivers/CMSIS/Include/cmsis_gcc.h ****   return(result);
 125:Drivers/CMSIS/Include/cmsis_gcc.h **** }
 126:Drivers/CMSIS/Include/cmsis_gcc.h **** 
 127:Drivers/CMSIS/Include/cmsis_gcc.h **** 
 128:Drivers/CMSIS/Include/cmsis_gcc.h **** /**
 129:Drivers/CMSIS/Include/cmsis_gcc.h ****   \brief   Get xPSR Register
 130:Drivers/CMSIS/Include/cmsis_gcc.h ****   \details Returns the content of the xPSR Register.
 131:Drivers/CMSIS/Include/cmsis_gcc.h **** 
 132:Drivers/CMSIS/Include/cmsis_gcc.h ****     \return               xPSR Register value
 133:Drivers/CMSIS/Include/cmsis_gcc.h ****  */
 134:Drivers/CMSIS/Include/cmsis_gcc.h **** __attribute__( ( always_inline ) ) __STATIC_INLINE uint32_t __get_xPSR(void)
ARM GAS  /tmp/cc7HCqHO.s 			page 29


 135:Drivers/CMSIS/Include/cmsis_gcc.h **** {
 136:Drivers/CMSIS/Include/cmsis_gcc.h ****   uint32_t result;
 137:Drivers/CMSIS/Include/cmsis_gcc.h **** 
 138:Drivers/CMSIS/Include/cmsis_gcc.h ****   __ASM volatile ("MRS %0, xpsr" : "=r" (result) );
 139:Drivers/CMSIS/Include/cmsis_gcc.h ****   return(result);
 140:Drivers/CMSIS/Include/cmsis_gcc.h **** }
 141:Drivers/CMSIS/Include/cmsis_gcc.h **** 
 142:Drivers/CMSIS/Include/cmsis_gcc.h **** 
 143:Drivers/CMSIS/Include/cmsis_gcc.h **** /**
 144:Drivers/CMSIS/Include/cmsis_gcc.h ****   \brief   Get Process Stack Pointer
 145:Drivers/CMSIS/Include/cmsis_gcc.h ****   \details Returns the current value of the Process Stack Pointer (PSP).
 146:Drivers/CMSIS/Include/cmsis_gcc.h ****   \return               PSP Register value
 147:Drivers/CMSIS/Include/cmsis_gcc.h ****  */
 148:Drivers/CMSIS/Include/cmsis_gcc.h **** __attribute__( ( always_inline ) ) __STATIC_INLINE uint32_t __get_PSP(void)
 149:Drivers/CMSIS/Include/cmsis_gcc.h **** {
 150:Drivers/CMSIS/Include/cmsis_gcc.h ****   register uint32_t result;
 151:Drivers/CMSIS/Include/cmsis_gcc.h **** 
 152:Drivers/CMSIS/Include/cmsis_gcc.h ****   __ASM volatile ("MRS %0, psp\n"  : "=r" (result) );
 153:Drivers/CMSIS/Include/cmsis_gcc.h ****   return(result);
 154:Drivers/CMSIS/Include/cmsis_gcc.h **** }
 155:Drivers/CMSIS/Include/cmsis_gcc.h **** 
 156:Drivers/CMSIS/Include/cmsis_gcc.h **** 
 157:Drivers/CMSIS/Include/cmsis_gcc.h **** /**
 158:Drivers/CMSIS/Include/cmsis_gcc.h ****   \brief   Set Process Stack Pointer
 159:Drivers/CMSIS/Include/cmsis_gcc.h ****   \details Assigns the given value to the Process Stack Pointer (PSP).
 160:Drivers/CMSIS/Include/cmsis_gcc.h ****   \param [in]    topOfProcStack  Process Stack Pointer value to set
 161:Drivers/CMSIS/Include/cmsis_gcc.h ****  */
 162:Drivers/CMSIS/Include/cmsis_gcc.h **** __attribute__( ( always_inline ) ) __STATIC_INLINE void __set_PSP(uint32_t topOfProcStack)
 163:Drivers/CMSIS/Include/cmsis_gcc.h **** {
 164:Drivers/CMSIS/Include/cmsis_gcc.h ****   __ASM volatile ("MSR psp, %0\n" : : "r" (topOfProcStack) : "sp");
 165:Drivers/CMSIS/Include/cmsis_gcc.h **** }
 166:Drivers/CMSIS/Include/cmsis_gcc.h **** 
 167:Drivers/CMSIS/Include/cmsis_gcc.h **** 
 168:Drivers/CMSIS/Include/cmsis_gcc.h **** /**
 169:Drivers/CMSIS/Include/cmsis_gcc.h ****   \brief   Get Main Stack Pointer
 170:Drivers/CMSIS/Include/cmsis_gcc.h ****   \details Returns the current value of the Main Stack Pointer (MSP).
 171:Drivers/CMSIS/Include/cmsis_gcc.h ****   \return               MSP Register value
 172:Drivers/CMSIS/Include/cmsis_gcc.h ****  */
 173:Drivers/CMSIS/Include/cmsis_gcc.h **** __attribute__( ( always_inline ) ) __STATIC_INLINE uint32_t __get_MSP(void)
 174:Drivers/CMSIS/Include/cmsis_gcc.h **** {
 175:Drivers/CMSIS/Include/cmsis_gcc.h ****   register uint32_t result;
 176:Drivers/CMSIS/Include/cmsis_gcc.h **** 
 177:Drivers/CMSIS/Include/cmsis_gcc.h ****   __ASM volatile ("MRS %0, msp\n" : "=r" (result) );
 178:Drivers/CMSIS/Include/cmsis_gcc.h ****   return(result);
 179:Drivers/CMSIS/Include/cmsis_gcc.h **** }
 180:Drivers/CMSIS/Include/cmsis_gcc.h **** 
 181:Drivers/CMSIS/Include/cmsis_gcc.h **** 
 182:Drivers/CMSIS/Include/cmsis_gcc.h **** /**
 183:Drivers/CMSIS/Include/cmsis_gcc.h ****   \brief   Set Main Stack Pointer
 184:Drivers/CMSIS/Include/cmsis_gcc.h ****   \details Assigns the given value to the Main Stack Pointer (MSP).
 185:Drivers/CMSIS/Include/cmsis_gcc.h **** 
 186:Drivers/CMSIS/Include/cmsis_gcc.h ****     \param [in]    topOfMainStack  Main Stack Pointer value to set
 187:Drivers/CMSIS/Include/cmsis_gcc.h ****  */
 188:Drivers/CMSIS/Include/cmsis_gcc.h **** __attribute__( ( always_inline ) ) __STATIC_INLINE void __set_MSP(uint32_t topOfMainStack)
 189:Drivers/CMSIS/Include/cmsis_gcc.h **** {
 190:Drivers/CMSIS/Include/cmsis_gcc.h ****   __ASM volatile ("MSR msp, %0\n" : : "r" (topOfMainStack) : "sp");
 191:Drivers/CMSIS/Include/cmsis_gcc.h **** }
ARM GAS  /tmp/cc7HCqHO.s 			page 30


 192:Drivers/CMSIS/Include/cmsis_gcc.h **** 
 193:Drivers/CMSIS/Include/cmsis_gcc.h **** 
 194:Drivers/CMSIS/Include/cmsis_gcc.h **** /**
 195:Drivers/CMSIS/Include/cmsis_gcc.h ****   \brief   Get Priority Mask
 196:Drivers/CMSIS/Include/cmsis_gcc.h ****   \details Returns the current state of the priority mask bit from the Priority Mask Register.
 197:Drivers/CMSIS/Include/cmsis_gcc.h ****   \return               Priority Mask value
 198:Drivers/CMSIS/Include/cmsis_gcc.h ****  */
 199:Drivers/CMSIS/Include/cmsis_gcc.h **** __attribute__( ( always_inline ) ) __STATIC_INLINE uint32_t __get_PRIMASK(void)
 605              		.loc 2 199 61 view .LVU168
 606              	.LBB21:
 200:Drivers/CMSIS/Include/cmsis_gcc.h **** {
 201:Drivers/CMSIS/Include/cmsis_gcc.h ****   uint32_t result;
 607              		.loc 2 201 3 view .LVU169
 202:Drivers/CMSIS/Include/cmsis_gcc.h **** 
 203:Drivers/CMSIS/Include/cmsis_gcc.h ****   __ASM volatile ("MRS %0, primask" : "=r" (result) );
 608              		.loc 2 203 3 view .LVU170
 609              		.syntax divided
 610              	@ 203 "Drivers/CMSIS/Include/cmsis_gcc.h" 1
 611 0008 EFF31082 		MRS r2, primask
 612              	@ 0 "" 2
 613              	.LVL33:
 204:Drivers/CMSIS/Include/cmsis_gcc.h ****   return(result);
 614              		.loc 2 204 3 view .LVU171
 615              		.loc 2 204 3 is_stmt 0 view .LVU172
 616              		.thumb
 617              		.syntax unified
 618              	.LBE21:
 619              	.LBE20:
 487:Drivers/STM32L0xx_HAL_Driver/Src/stm32l0xx_hal_flash.c **** 
 620              		.loc 1 487 5 is_stmt 1 view .LVU173
 621              	.LBB22:
 622              	.LBI22:
  69:Drivers/CMSIS/Include/cmsis_gcc.h **** {
 623              		.loc 2 69 57 view .LVU174
 624              	.LBB23:
  71:Drivers/CMSIS/Include/cmsis_gcc.h **** }
 625              		.loc 2 71 3 view .LVU175
 626              		.syntax divided
 627              	@ 71 "Drivers/CMSIS/Include/cmsis_gcc.h" 1
 628 000c 72B6     		cpsid i
 629              	@ 0 "" 2
 630              		.thumb
 631              		.syntax unified
 632              	.LBE23:
 633              	.LBE22:
 489:Drivers/STM32L0xx_HAL_Driver/Src/stm32l0xx_hal_flash.c ****     WRITE_REG(FLASH->PEKEYR, FLASH_PEKEY2);
 634              		.loc 1 489 5 view .LVU176
 635 000e 114B     		ldr	r3, .L38
 636 0010 1149     		ldr	r1, .L38+4
 637 0012 D960     		str	r1, [r3, #12]
 490:Drivers/STM32L0xx_HAL_Driver/Src/stm32l0xx_hal_flash.c **** 
 638              		.loc 1 490 5 view .LVU177
 639 0014 1149     		ldr	r1, .L38+8
 640 0016 D960     		str	r1, [r3, #12]
 493:Drivers/STM32L0xx_HAL_Driver/Src/stm32l0xx_hal_flash.c **** 
 641              		.loc 1 493 5 view .LVU178
 642              	.LVL34:
ARM GAS  /tmp/cc7HCqHO.s 			page 31


 643              	.LBB24:
 644              	.LBI24:
 205:Drivers/CMSIS/Include/cmsis_gcc.h **** }
 206:Drivers/CMSIS/Include/cmsis_gcc.h **** 
 207:Drivers/CMSIS/Include/cmsis_gcc.h **** 
 208:Drivers/CMSIS/Include/cmsis_gcc.h **** /**
 209:Drivers/CMSIS/Include/cmsis_gcc.h ****   \brief   Set Priority Mask
 210:Drivers/CMSIS/Include/cmsis_gcc.h ****   \details Assigns the given value to the Priority Mask Register.
 211:Drivers/CMSIS/Include/cmsis_gcc.h ****   \param [in]    priMask  Priority Mask
 212:Drivers/CMSIS/Include/cmsis_gcc.h ****  */
 213:Drivers/CMSIS/Include/cmsis_gcc.h **** __attribute__( ( always_inline ) ) __STATIC_INLINE void __set_PRIMASK(uint32_t priMask)
 645              		.loc 2 213 57 view .LVU179
 646              	.LBB25:
 214:Drivers/CMSIS/Include/cmsis_gcc.h **** {
 215:Drivers/CMSIS/Include/cmsis_gcc.h ****   __ASM volatile ("MSR primask, %0" : : "r" (priMask) : "memory");
 647              		.loc 2 215 3 view .LVU180
 648              		.syntax divided
 649              	@ 215 "Drivers/CMSIS/Include/cmsis_gcc.h" 1
 650 0018 82F31088 		MSR primask, r2
 651              	@ 0 "" 2
 652              	.LVL35:
 653              		.loc 2 215 3 is_stmt 0 view .LVU181
 654              		.thumb
 655              		.syntax unified
 656              	.LBE25:
 657              	.LBE24:
 495:Drivers/STM32L0xx_HAL_Driver/Src/stm32l0xx_hal_flash.c ****     {
 658              		.loc 1 495 5 is_stmt 1 view .LVU182
 495:Drivers/STM32L0xx_HAL_Driver/Src/stm32l0xx_hal_flash.c ****     {
 659              		.loc 1 495 8 is_stmt 0 view .LVU183
 660 001c 5B68     		ldr	r3, [r3, #4]
 495:Drivers/STM32L0xx_HAL_Driver/Src/stm32l0xx_hal_flash.c ****     {
 661              		.loc 1 495 7 view .LVU184
 662 001e DB07     		lsls	r3, r3, #31
 663 0020 12D4     		bmi	.L35
 664              	.LVL36:
 665              	.L33:
 501:Drivers/STM32L0xx_HAL_Driver/Src/stm32l0xx_hal_flash.c ****   {
 666              		.loc 1 501 3 is_stmt 1 view .LVU185
 501:Drivers/STM32L0xx_HAL_Driver/Src/stm32l0xx_hal_flash.c ****   {
 667              		.loc 1 501 7 is_stmt 0 view .LVU186
 668 0022 0C4B     		ldr	r3, .L38
 669 0024 5B68     		ldr	r3, [r3, #4]
 501:Drivers/STM32L0xx_HAL_Driver/Src/stm32l0xx_hal_flash.c ****   {
 670              		.loc 1 501 6 view .LVU187
 671 0026 9B07     		lsls	r3, r3, #30
 672 0028 10D5     		bpl	.L36
 504:Drivers/STM32L0xx_HAL_Driver/Src/stm32l0xx_hal_flash.c ****     __disable_irq();
 673              		.loc 1 504 5 is_stmt 1 view .LVU188
 674              	.LBB26:
 675              	.LBI26:
 199:Drivers/CMSIS/Include/cmsis_gcc.h **** {
 676              		.loc 2 199 61 view .LVU189
 677              	.LBB27:
 201:Drivers/CMSIS/Include/cmsis_gcc.h **** 
 678              		.loc 2 201 3 view .LVU190
 203:Drivers/CMSIS/Include/cmsis_gcc.h ****   return(result);
ARM GAS  /tmp/cc7HCqHO.s 			page 32


 679              		.loc 2 203 3 view .LVU191
 680              		.syntax divided
 681              	@ 203 "Drivers/CMSIS/Include/cmsis_gcc.h" 1
 682 002a EFF31082 		MRS r2, primask
 683              	@ 0 "" 2
 684              	.LVL37:
 204:Drivers/CMSIS/Include/cmsis_gcc.h **** }
 685              		.loc 2 204 3 view .LVU192
 204:Drivers/CMSIS/Include/cmsis_gcc.h **** }
 686              		.loc 2 204 3 is_stmt 0 view .LVU193
 687              		.thumb
 688              		.syntax unified
 689              	.LBE27:
 690              	.LBE26:
 505:Drivers/STM32L0xx_HAL_Driver/Src/stm32l0xx_hal_flash.c **** 
 691              		.loc 1 505 5 is_stmt 1 view .LVU194
 692              	.LBB28:
 693              	.LBI28:
  69:Drivers/CMSIS/Include/cmsis_gcc.h **** {
 694              		.loc 2 69 57 view .LVU195
 695              	.LBB29:
  71:Drivers/CMSIS/Include/cmsis_gcc.h **** }
 696              		.loc 2 71 3 view .LVU196
 697              		.syntax divided
 698              	@ 71 "Drivers/CMSIS/Include/cmsis_gcc.h" 1
 699 002e 72B6     		cpsid i
 700              	@ 0 "" 2
 701              		.thumb
 702              		.syntax unified
 703              	.LBE29:
 704              	.LBE28:
 508:Drivers/STM32L0xx_HAL_Driver/Src/stm32l0xx_hal_flash.c ****     WRITE_REG(FLASH->PRGKEYR, FLASH_PRGKEY2);  
 705              		.loc 1 508 5 view .LVU197
 706 0030 084B     		ldr	r3, .L38
 707 0032 0B49     		ldr	r1, .L38+12
 708 0034 1961     		str	r1, [r3, #16]
 509:Drivers/STM32L0xx_HAL_Driver/Src/stm32l0xx_hal_flash.c **** 
 709              		.loc 1 509 5 view .LVU198
 710 0036 0B49     		ldr	r1, .L38+16
 711 0038 1961     		str	r1, [r3, #16]
 512:Drivers/STM32L0xx_HAL_Driver/Src/stm32l0xx_hal_flash.c **** 
 712              		.loc 1 512 5 view .LVU199
 713              	.LVL38:
 714              	.LBB30:
 715              	.LBI30:
 213:Drivers/CMSIS/Include/cmsis_gcc.h **** {
 716              		.loc 2 213 57 view .LVU200
 717              	.LBB31:
 718              		.loc 2 215 3 view .LVU201
 719              		.syntax divided
 720              	@ 215 "Drivers/CMSIS/Include/cmsis_gcc.h" 1
 721 003a 82F31088 		MSR primask, r2
 722              	@ 0 "" 2
 723              	.LVL39:
 724              		.loc 2 215 3 is_stmt 0 view .LVU202
 725              		.thumb
 726              		.syntax unified
ARM GAS  /tmp/cc7HCqHO.s 			page 33


 727              	.LBE31:
 728              	.LBE30:
 514:Drivers/STM32L0xx_HAL_Driver/Src/stm32l0xx_hal_flash.c ****     {
 729              		.loc 1 514 5 is_stmt 1 view .LVU203
 514:Drivers/STM32L0xx_HAL_Driver/Src/stm32l0xx_hal_flash.c ****     {
 730              		.loc 1 514 9 is_stmt 0 view .LVU204
 731 003e 5B68     		ldr	r3, [r3, #4]
 514:Drivers/STM32L0xx_HAL_Driver/Src/stm32l0xx_hal_flash.c ****     {
 732              		.loc 1 514 8 view .LVU205
 733 0040 9B07     		lsls	r3, r3, #30
 734 0042 05D4     		bmi	.L37
 520:Drivers/STM32L0xx_HAL_Driver/Src/stm32l0xx_hal_flash.c **** }
 735              		.loc 1 520 10 view .LVU206
 736 0044 0020     		movs	r0, #0
 737 0046 02E0     		b	.L34
 738              	.L35:
 497:Drivers/STM32L0xx_HAL_Driver/Src/stm32l0xx_hal_flash.c ****     }
 739              		.loc 1 497 14 view .LVU207
 740 0048 0120     		movs	r0, #1
 741 004a 00E0     		b	.L34
 742              	.LVL40:
 743              	.L36:
 520:Drivers/STM32L0xx_HAL_Driver/Src/stm32l0xx_hal_flash.c **** }
 744              		.loc 1 520 10 view .LVU208
 745 004c 0020     		movs	r0, #0
 746              	.L34:
 521:Drivers/STM32L0xx_HAL_Driver/Src/stm32l0xx_hal_flash.c **** 
 747              		.loc 1 521 1 view .LVU209
 748              		@ sp needed
 749 004e 7047     		bx	lr
 750              	.LVL41:
 751              	.L37:
 516:Drivers/STM32L0xx_HAL_Driver/Src/stm32l0xx_hal_flash.c ****     }
 752              		.loc 1 516 14 view .LVU210
 753 0050 0120     		movs	r0, #1
 754 0052 FCE7     		b	.L34
 755              	.L39:
 756              		.align	2
 757              	.L38:
 758 0054 00200240 		.word	1073881088
 759 0058 EFCDAB89 		.word	-1985229329
 760 005c 05040302 		.word	33752069
 761 0060 BFAE9D8C 		.word	-1935823169
 762 0064 16151413 		.word	320083222
 763              		.cfi_endproc
 764              	.LFE39:
 766              		.section	.text.HAL_FLASH_Lock,"ax",%progbits
 767              		.align	1
 768              		.global	HAL_FLASH_Lock
 769              		.syntax unified
 770              		.code	16
 771              		.thumb_func
 773              	HAL_FLASH_Lock:
 774              	.LFB40:
 528:Drivers/STM32L0xx_HAL_Driver/Src/stm32l0xx_hal_flash.c ****   /* Set the PRGLOCK Bit to lock the FLASH Registers access */
 775              		.loc 1 528 1 is_stmt 1 view -0
 776              		.cfi_startproc
ARM GAS  /tmp/cc7HCqHO.s 			page 34


 777              		@ args = 0, pretend = 0, frame = 0
 778              		@ frame_needed = 0, uses_anonymous_args = 0
 779              		@ link register save eliminated.
 530:Drivers/STM32L0xx_HAL_Driver/Src/stm32l0xx_hal_flash.c ****   
 780              		.loc 1 530 3 view .LVU212
 781 0000 054B     		ldr	r3, .L41
 782 0002 5A68     		ldr	r2, [r3, #4]
 783 0004 0221     		movs	r1, #2
 784 0006 0A43     		orrs	r2, r1
 785 0008 5A60     		str	r2, [r3, #4]
 533:Drivers/STM32L0xx_HAL_Driver/Src/stm32l0xx_hal_flash.c **** 
 786              		.loc 1 533 3 view .LVU213
 787 000a 5A68     		ldr	r2, [r3, #4]
 788 000c 0139     		subs	r1, r1, #1
 789 000e 0A43     		orrs	r2, r1
 790 0010 5A60     		str	r2, [r3, #4]
 535:Drivers/STM32L0xx_HAL_Driver/Src/stm32l0xx_hal_flash.c **** }
 791              		.loc 1 535 3 view .LVU214
 536:Drivers/STM32L0xx_HAL_Driver/Src/stm32l0xx_hal_flash.c **** 
 792              		.loc 1 536 1 is_stmt 0 view .LVU215
 793 0012 0020     		movs	r0, #0
 794              		@ sp needed
 795 0014 7047     		bx	lr
 796              	.L42:
 797 0016 C046     		.align	2
 798              	.L41:
 799 0018 00200240 		.word	1073881088
 800              		.cfi_endproc
 801              	.LFE40:
 803              		.section	.text.HAL_FLASH_OB_Unlock,"ax",%progbits
 804              		.align	1
 805              		.global	HAL_FLASH_OB_Unlock
 806              		.syntax unified
 807              		.code	16
 808              		.thumb_func
 810              	HAL_FLASH_OB_Unlock:
 811              	.LFB41:
 543:Drivers/STM32L0xx_HAL_Driver/Src/stm32l0xx_hal_flash.c ****   uint32_t primask_bit;
 812              		.loc 1 543 1 is_stmt 1 view -0
 813              		.cfi_startproc
 814              		@ args = 0, pretend = 0, frame = 0
 815              		@ frame_needed = 0, uses_anonymous_args = 0
 816              		@ link register save eliminated.
 544:Drivers/STM32L0xx_HAL_Driver/Src/stm32l0xx_hal_flash.c **** 
 817              		.loc 1 544 3 view .LVU217
 546:Drivers/STM32L0xx_HAL_Driver/Src/stm32l0xx_hal_flash.c ****   {
 818              		.loc 1 546 3 view .LVU218
 546:Drivers/STM32L0xx_HAL_Driver/Src/stm32l0xx_hal_flash.c ****   {
 819              		.loc 1 546 6 is_stmt 0 view .LVU219
 820 0000 0D4B     		ldr	r3, .L47
 821 0002 5B68     		ldr	r3, [r3, #4]
 546:Drivers/STM32L0xx_HAL_Driver/Src/stm32l0xx_hal_flash.c ****   {
 822              		.loc 1 546 5 view .LVU220
 823 0004 5B07     		lsls	r3, r3, #29
 824 0006 14D5     		bpl	.L46
 549:Drivers/STM32L0xx_HAL_Driver/Src/stm32l0xx_hal_flash.c ****     __disable_irq();
 825              		.loc 1 549 5 is_stmt 1 view .LVU221
ARM GAS  /tmp/cc7HCqHO.s 			page 35


 826              	.LBB32:
 827              	.LBI32:
 199:Drivers/CMSIS/Include/cmsis_gcc.h **** {
 828              		.loc 2 199 61 view .LVU222
 829              	.LBB33:
 201:Drivers/CMSIS/Include/cmsis_gcc.h **** 
 830              		.loc 2 201 3 view .LVU223
 203:Drivers/CMSIS/Include/cmsis_gcc.h ****   return(result);
 831              		.loc 2 203 3 view .LVU224
 832              		.syntax divided
 833              	@ 203 "Drivers/CMSIS/Include/cmsis_gcc.h" 1
 834 0008 EFF31082 		MRS r2, primask
 835              	@ 0 "" 2
 836              	.LVL42:
 204:Drivers/CMSIS/Include/cmsis_gcc.h **** }
 837              		.loc 2 204 3 view .LVU225
 204:Drivers/CMSIS/Include/cmsis_gcc.h **** }
 838              		.loc 2 204 3 is_stmt 0 view .LVU226
 839              		.thumb
 840              		.syntax unified
 841              	.LBE33:
 842              	.LBE32:
 550:Drivers/STM32L0xx_HAL_Driver/Src/stm32l0xx_hal_flash.c **** 
 843              		.loc 1 550 5 is_stmt 1 view .LVU227
 844              	.LBB34:
 845              	.LBI34:
  69:Drivers/CMSIS/Include/cmsis_gcc.h **** {
 846              		.loc 2 69 57 view .LVU228
 847              	.LBB35:
  71:Drivers/CMSIS/Include/cmsis_gcc.h **** }
 848              		.loc 2 71 3 view .LVU229
 849              		.syntax divided
 850              	@ 71 "Drivers/CMSIS/Include/cmsis_gcc.h" 1
 851 000c 72B6     		cpsid i
 852              	@ 0 "" 2
 853              		.thumb
 854              		.syntax unified
 855              	.LBE35:
 856              	.LBE34:
 553:Drivers/STM32L0xx_HAL_Driver/Src/stm32l0xx_hal_flash.c ****     {  
 857              		.loc 1 553 5 view .LVU230
 553:Drivers/STM32L0xx_HAL_Driver/Src/stm32l0xx_hal_flash.c ****     {  
 858              		.loc 1 553 8 is_stmt 0 view .LVU231
 859 000e 0A4B     		ldr	r3, .L47
 860 0010 5B68     		ldr	r3, [r3, #4]
 553:Drivers/STM32L0xx_HAL_Driver/Src/stm32l0xx_hal_flash.c ****     {  
 861              		.loc 1 553 7 view .LVU232
 862 0012 DB07     		lsls	r3, r3, #31
 863 0014 04D5     		bpl	.L45
 556:Drivers/STM32L0xx_HAL_Driver/Src/stm32l0xx_hal_flash.c ****       WRITE_REG(FLASH->PEKEYR, FLASH_PEKEY2);
 864              		.loc 1 556 7 is_stmt 1 view .LVU233
 865 0016 084B     		ldr	r3, .L47
 866 0018 0849     		ldr	r1, .L47+4
 867 001a D960     		str	r1, [r3, #12]
 557:Drivers/STM32L0xx_HAL_Driver/Src/stm32l0xx_hal_flash.c ****     }
 868              		.loc 1 557 7 view .LVU234
 869 001c 0849     		ldr	r1, .L47+8
ARM GAS  /tmp/cc7HCqHO.s 			page 36


 870 001e D960     		str	r1, [r3, #12]
 871              	.L45:
 561:Drivers/STM32L0xx_HAL_Driver/Src/stm32l0xx_hal_flash.c ****     WRITE_REG(FLASH->OPTKEYR, FLASH_OPTKEY2);
 872              		.loc 1 561 5 view .LVU235
 873 0020 054B     		ldr	r3, .L47
 874 0022 0849     		ldr	r1, .L47+12
 875 0024 5961     		str	r1, [r3, #20]
 562:Drivers/STM32L0xx_HAL_Driver/Src/stm32l0xx_hal_flash.c **** 
 876              		.loc 1 562 5 view .LVU236
 877 0026 0849     		ldr	r1, .L47+16
 878 0028 5961     		str	r1, [r3, #20]
 565:Drivers/STM32L0xx_HAL_Driver/Src/stm32l0xx_hal_flash.c ****   }
 879              		.loc 1 565 5 view .LVU237
 880              	.LVL43:
 881              	.LBB36:
 882              	.LBI36:
 213:Drivers/CMSIS/Include/cmsis_gcc.h **** {
 883              		.loc 2 213 57 view .LVU238
 884              	.LBB37:
 885              		.loc 2 215 3 view .LVU239
 886              		.syntax divided
 887              	@ 215 "Drivers/CMSIS/Include/cmsis_gcc.h" 1
 888 002a 82F31088 		MSR primask, r2
 889              	@ 0 "" 2
 890              	.LVL44:
 891              		.loc 2 215 3 is_stmt 0 view .LVU240
 892              		.thumb
 893              		.syntax unified
 894              	.LBE37:
 895              	.LBE36:
 572:Drivers/STM32L0xx_HAL_Driver/Src/stm32l0xx_hal_flash.c **** }
 896              		.loc 1 572 3 is_stmt 1 view .LVU241
 572:Drivers/STM32L0xx_HAL_Driver/Src/stm32l0xx_hal_flash.c **** }
 897              		.loc 1 572 10 is_stmt 0 view .LVU242
 898 002e 0020     		movs	r0, #0
 899              	.LVL45:
 900              	.L44:
 573:Drivers/STM32L0xx_HAL_Driver/Src/stm32l0xx_hal_flash.c **** 
 901              		.loc 1 573 1 view .LVU243
 902              		@ sp needed
 903 0030 7047     		bx	lr
 904              	.L46:
 569:Drivers/STM32L0xx_HAL_Driver/Src/stm32l0xx_hal_flash.c ****   }  
 905              		.loc 1 569 12 view .LVU244
 906 0032 0120     		movs	r0, #1
 907 0034 FCE7     		b	.L44
 908              	.L48:
 909 0036 C046     		.align	2
 910              	.L47:
 911 0038 00200240 		.word	1073881088
 912 003c EFCDAB89 		.word	-1985229329
 913 0040 05040302 		.word	33752069
 914 0044 C8D9EAFB 		.word	-68494904
 915 0048 27262524 		.word	606414375
 916              		.cfi_endproc
 917              	.LFE41:
 919              		.section	.text.HAL_FLASH_OB_Lock,"ax",%progbits
ARM GAS  /tmp/cc7HCqHO.s 			page 37


 920              		.align	1
 921              		.global	HAL_FLASH_OB_Lock
 922              		.syntax unified
 923              		.code	16
 924              		.thumb_func
 926              	HAL_FLASH_OB_Lock:
 927              	.LFB42:
 580:Drivers/STM32L0xx_HAL_Driver/Src/stm32l0xx_hal_flash.c ****   /* Set the OPTLOCK Bit to lock the option bytes block access */
 928              		.loc 1 580 1 is_stmt 1 view -0
 929              		.cfi_startproc
 930              		@ args = 0, pretend = 0, frame = 0
 931              		@ frame_needed = 0, uses_anonymous_args = 0
 932              		@ link register save eliminated.
 582:Drivers/STM32L0xx_HAL_Driver/Src/stm32l0xx_hal_flash.c ****   
 933              		.loc 1 582 3 view .LVU246
 934 0000 034A     		ldr	r2, .L50
 935 0002 5368     		ldr	r3, [r2, #4]
 936 0004 0421     		movs	r1, #4
 937 0006 0B43     		orrs	r3, r1
 938 0008 5360     		str	r3, [r2, #4]
 584:Drivers/STM32L0xx_HAL_Driver/Src/stm32l0xx_hal_flash.c **** }
 939              		.loc 1 584 3 view .LVU247
 585:Drivers/STM32L0xx_HAL_Driver/Src/stm32l0xx_hal_flash.c ****   
 940              		.loc 1 585 1 is_stmt 0 view .LVU248
 941 000a 0020     		movs	r0, #0
 942              		@ sp needed
 943 000c 7047     		bx	lr
 944              	.L51:
 945 000e C046     		.align	2
 946              	.L50:
 947 0010 00200240 		.word	1073881088
 948              		.cfi_endproc
 949              	.LFE42:
 951              		.section	.text.HAL_FLASH_GetError,"ax",%progbits
 952              		.align	1
 953              		.global	HAL_FLASH_GetError
 954              		.syntax unified
 955              		.code	16
 956              		.thumb_func
 958              	HAL_FLASH_GetError:
 959              	.LFB44:
 625:Drivers/STM32L0xx_HAL_Driver/Src/stm32l0xx_hal_flash.c ****    return pFlash.ErrorCode;
 960              		.loc 1 625 1 is_stmt 1 view -0
 961              		.cfi_startproc
 962              		@ args = 0, pretend = 0, frame = 0
 963              		@ frame_needed = 0, uses_anonymous_args = 0
 964              		@ link register save eliminated.
 626:Drivers/STM32L0xx_HAL_Driver/Src/stm32l0xx_hal_flash.c **** }
 965              		.loc 1 626 4 view .LVU250
 626:Drivers/STM32L0xx_HAL_Driver/Src/stm32l0xx_hal_flash.c **** }
 966              		.loc 1 626 17 is_stmt 0 view .LVU251
 967 0000 014B     		ldr	r3, .L53
 968 0002 5869     		ldr	r0, [r3, #20]
 627:Drivers/STM32L0xx_HAL_Driver/Src/stm32l0xx_hal_flash.c **** 
 969              		.loc 1 627 1 view .LVU252
 970              		@ sp needed
 971 0004 7047     		bx	lr
ARM GAS  /tmp/cc7HCqHO.s 			page 38


 972              	.L54:
 973 0006 C046     		.align	2
 974              	.L53:
 975 0008 00000000 		.word	.LANCHOR0
 976              		.cfi_endproc
 977              	.LFE44:
 979              		.section	.text.FLASH_WaitForLastOperation,"ax",%progbits
 980              		.align	1
 981              		.global	FLASH_WaitForLastOperation
 982              		.syntax unified
 983              		.code	16
 984              		.thumb_func
 986              	FLASH_WaitForLastOperation:
 987              	.LVL46:
 988              	.LFB45:
 647:Drivers/STM32L0xx_HAL_Driver/Src/stm32l0xx_hal_flash.c ****   /* Wait for the FLASH operation to complete by polling on BUSY flag to be reset.
 989              		.loc 1 647 1 is_stmt 1 view -0
 990              		.cfi_startproc
 991              		@ args = 0, pretend = 0, frame = 0
 992              		@ frame_needed = 0, uses_anonymous_args = 0
 647:Drivers/STM32L0xx_HAL_Driver/Src/stm32l0xx_hal_flash.c ****   /* Wait for the FLASH operation to complete by polling on BUSY flag to be reset.
 993              		.loc 1 647 1 is_stmt 0 view .LVU254
 994 0000 70B5     		push	{r4, r5, r6, lr}
 995              	.LCFI2:
 996              		.cfi_def_cfa_offset 16
 997              		.cfi_offset 4, -16
 998              		.cfi_offset 5, -12
 999              		.cfi_offset 6, -8
 1000              		.cfi_offset 14, -4
 1001 0002 0400     		movs	r4, r0
 652:Drivers/STM32L0xx_HAL_Driver/Src/stm32l0xx_hal_flash.c ****      
 1002              		.loc 1 652 3 is_stmt 1 view .LVU255
 652:Drivers/STM32L0xx_HAL_Driver/Src/stm32l0xx_hal_flash.c ****      
 1003              		.loc 1 652 24 is_stmt 0 view .LVU256
 1004 0004 FFF7FEFF 		bl	HAL_GetTick
 1005              	.LVL47:
 652:Drivers/STM32L0xx_HAL_Driver/Src/stm32l0xx_hal_flash.c ****      
 1006              		.loc 1 652 24 view .LVU257
 1007 0008 0500     		movs	r5, r0
 1008              	.LVL48:
 654:Drivers/STM32L0xx_HAL_Driver/Src/stm32l0xx_hal_flash.c ****   { 
 1009              		.loc 1 654 3 is_stmt 1 view .LVU258
 1010              	.L57:
 654:Drivers/STM32L0xx_HAL_Driver/Src/stm32l0xx_hal_flash.c ****   { 
 1011              		.loc 1 654 8 view .LVU259
 654:Drivers/STM32L0xx_HAL_Driver/Src/stm32l0xx_hal_flash.c ****   { 
 1012              		.loc 1 654 9 is_stmt 0 view .LVU260
 1013 000a 1C4B     		ldr	r3, .L65
 1014 000c 9B69     		ldr	r3, [r3, #24]
 654:Drivers/STM32L0xx_HAL_Driver/Src/stm32l0xx_hal_flash.c ****   { 
 1015              		.loc 1 654 8 view .LVU261
 1016 000e DB07     		lsls	r3, r3, #31
 1017 0010 0AD5     		bpl	.L64
 656:Drivers/STM32L0xx_HAL_Driver/Src/stm32l0xx_hal_flash.c ****     {
 1018              		.loc 1 656 5 is_stmt 1 view .LVU262
 656:Drivers/STM32L0xx_HAL_Driver/Src/stm32l0xx_hal_flash.c ****     {
 1019              		.loc 1 656 8 is_stmt 0 view .LVU263
ARM GAS  /tmp/cc7HCqHO.s 			page 39


 1020 0012 631C     		adds	r3, r4, #1
 1021 0014 F9D0     		beq	.L57
 658:Drivers/STM32L0xx_HAL_Driver/Src/stm32l0xx_hal_flash.c ****       {
 1022              		.loc 1 658 7 is_stmt 1 view .LVU264
 658:Drivers/STM32L0xx_HAL_Driver/Src/stm32l0xx_hal_flash.c ****       {
 1023              		.loc 1 658 9 is_stmt 0 view .LVU265
 1024 0016 002C     		cmp	r4, #0
 1025 0018 04D0     		beq	.L58
 658:Drivers/STM32L0xx_HAL_Driver/Src/stm32l0xx_hal_flash.c ****       {
 1026              		.loc 1 658 31 discriminator 1 view .LVU266
 1027 001a FFF7FEFF 		bl	HAL_GetTick
 1028              	.LVL49:
 658:Drivers/STM32L0xx_HAL_Driver/Src/stm32l0xx_hal_flash.c ****       {
 1029              		.loc 1 658 44 discriminator 1 view .LVU267
 1030 001e 401B     		subs	r0, r0, r5
 658:Drivers/STM32L0xx_HAL_Driver/Src/stm32l0xx_hal_flash.c ****       {
 1031              		.loc 1 658 26 discriminator 1 view .LVU268
 1032 0020 A042     		cmp	r0, r4
 1033 0022 F2D9     		bls	.L57
 1034              	.L58:
 660:Drivers/STM32L0xx_HAL_Driver/Src/stm32l0xx_hal_flash.c ****       }
 1035              		.loc 1 660 9 is_stmt 1 view .LVU269
 660:Drivers/STM32L0xx_HAL_Driver/Src/stm32l0xx_hal_flash.c ****       }
 1036              		.loc 1 660 16 is_stmt 0 view .LVU270
 1037 0024 0320     		movs	r0, #3
 1038 0026 27E0     		b	.L59
 1039              	.L64:
 666:Drivers/STM32L0xx_HAL_Driver/Src/stm32l0xx_hal_flash.c ****   {
 1040              		.loc 1 666 3 is_stmt 1 view .LVU271
 666:Drivers/STM32L0xx_HAL_Driver/Src/stm32l0xx_hal_flash.c ****   {
 1041              		.loc 1 666 7 is_stmt 0 view .LVU272
 1042 0028 144B     		ldr	r3, .L65
 1043 002a 9B69     		ldr	r3, [r3, #24]
 666:Drivers/STM32L0xx_HAL_Driver/Src/stm32l0xx_hal_flash.c ****   {
 1044              		.loc 1 666 6 view .LVU273
 1045 002c 9B07     		lsls	r3, r3, #30
 1046 002e 02D5     		bpl	.L61
 669:Drivers/STM32L0xx_HAL_Driver/Src/stm32l0xx_hal_flash.c ****   }
 1047              		.loc 1 669 5 is_stmt 1 view .LVU274
 1048 0030 124B     		ldr	r3, .L65
 1049 0032 0222     		movs	r2, #2
 1050 0034 9A61     		str	r2, [r3, #24]
 1051              	.L61:
 672:Drivers/STM32L0xx_HAL_Driver/Src/stm32l0xx_hal_flash.c ****       __HAL_FLASH_GET_FLAG(FLASH_FLAG_PGAERR)     || 
 1052              		.loc 1 672 3 view .LVU275
 672:Drivers/STM32L0xx_HAL_Driver/Src/stm32l0xx_hal_flash.c ****       __HAL_FLASH_GET_FLAG(FLASH_FLAG_PGAERR)     || 
 1053              		.loc 1 672 7 is_stmt 0 view .LVU276
 1054 0036 114B     		ldr	r3, .L65
 1055 0038 9B69     		ldr	r3, [r3, #24]
 672:Drivers/STM32L0xx_HAL_Driver/Src/stm32l0xx_hal_flash.c ****       __HAL_FLASH_GET_FLAG(FLASH_FLAG_PGAERR)     || 
 1056              		.loc 1 672 5 view .LVU277
 1057 003a DB05     		lsls	r3, r3, #23
 1058 003c 19D4     		bmi	.L62
 673:Drivers/STM32L0xx_HAL_Driver/Src/stm32l0xx_hal_flash.c ****       __HAL_FLASH_GET_FLAG(FLASH_FLAG_SIZERR)     || 
 1059              		.loc 1 673 7 discriminator 1 view .LVU278
 1060 003e 0F4B     		ldr	r3, .L65
 1061 0040 9B69     		ldr	r3, [r3, #24]
ARM GAS  /tmp/cc7HCqHO.s 			page 40


 672:Drivers/STM32L0xx_HAL_Driver/Src/stm32l0xx_hal_flash.c ****       __HAL_FLASH_GET_FLAG(FLASH_FLAG_PGAERR)     || 
 1062              		.loc 1 672 51 discriminator 1 view .LVU279
 1063 0042 9B05     		lsls	r3, r3, #22
 1064 0044 15D4     		bmi	.L62
 674:Drivers/STM32L0xx_HAL_Driver/Src/stm32l0xx_hal_flash.c ****       __HAL_FLASH_GET_FLAG(FLASH_FLAG_OPTVERR)    || 
 1065              		.loc 1 674 7 view .LVU280
 1066 0046 0D4B     		ldr	r3, .L65
 1067 0048 9B69     		ldr	r3, [r3, #24]
 673:Drivers/STM32L0xx_HAL_Driver/Src/stm32l0xx_hal_flash.c ****       __HAL_FLASH_GET_FLAG(FLASH_FLAG_SIZERR)     || 
 1068              		.loc 1 673 51 view .LVU281
 1069 004a 5B05     		lsls	r3, r3, #21
 1070 004c 11D4     		bmi	.L62
 675:Drivers/STM32L0xx_HAL_Driver/Src/stm32l0xx_hal_flash.c ****       __HAL_FLASH_GET_FLAG(FLASH_FLAG_RDERR)      || 
 1071              		.loc 1 675 7 view .LVU282
 1072 004e 0B4B     		ldr	r3, .L65
 1073 0050 9B69     		ldr	r3, [r3, #24]
 674:Drivers/STM32L0xx_HAL_Driver/Src/stm32l0xx_hal_flash.c ****       __HAL_FLASH_GET_FLAG(FLASH_FLAG_OPTVERR)    || 
 1074              		.loc 1 674 51 view .LVU283
 1075 0052 1B05     		lsls	r3, r3, #20
 1076 0054 0DD4     		bmi	.L62
 676:Drivers/STM32L0xx_HAL_Driver/Src/stm32l0xx_hal_flash.c ****       __HAL_FLASH_GET_FLAG(FLASH_FLAG_FWWERR)     || 
 1077              		.loc 1 676 7 view .LVU284
 1078 0056 094B     		ldr	r3, .L65
 1079 0058 9B69     		ldr	r3, [r3, #24]
 675:Drivers/STM32L0xx_HAL_Driver/Src/stm32l0xx_hal_flash.c ****       __HAL_FLASH_GET_FLAG(FLASH_FLAG_RDERR)      || 
 1080              		.loc 1 675 51 view .LVU285
 1081 005a 9B04     		lsls	r3, r3, #18
 1082 005c 09D4     		bmi	.L62
 677:Drivers/STM32L0xx_HAL_Driver/Src/stm32l0xx_hal_flash.c ****       __HAL_FLASH_GET_FLAG(FLASH_FLAG_NOTZEROERR) )
 1083              		.loc 1 677 7 view .LVU286
 1084 005e 074B     		ldr	r3, .L65
 1085 0060 9B69     		ldr	r3, [r3, #24]
 676:Drivers/STM32L0xx_HAL_Driver/Src/stm32l0xx_hal_flash.c ****       __HAL_FLASH_GET_FLAG(FLASH_FLAG_FWWERR)     || 
 1086              		.loc 1 676 51 view .LVU287
 1087 0062 9B03     		lsls	r3, r3, #14
 1088 0064 05D4     		bmi	.L62
 678:Drivers/STM32L0xx_HAL_Driver/Src/stm32l0xx_hal_flash.c ****   {
 1089              		.loc 1 678 7 view .LVU288
 1090 0066 054B     		ldr	r3, .L65
 1091 0068 9B69     		ldr	r3, [r3, #24]
 677:Drivers/STM32L0xx_HAL_Driver/Src/stm32l0xx_hal_flash.c ****       __HAL_FLASH_GET_FLAG(FLASH_FLAG_NOTZEROERR) )
 1092              		.loc 1 677 51 view .LVU289
 1093 006a DB03     		lsls	r3, r3, #15
 1094 006c 01D4     		bmi	.L62
 695:Drivers/STM32L0xx_HAL_Driver/Src/stm32l0xx_hal_flash.c **** }
 1095              		.loc 1 695 10 view .LVU290
 1096 006e 0020     		movs	r0, #0
 1097 0070 02E0     		b	.L59
 1098              	.L62:
 690:Drivers/STM32L0xx_HAL_Driver/Src/stm32l0xx_hal_flash.c ****     return HAL_ERROR;
 1099              		.loc 1 690 5 is_stmt 1 view .LVU291
 1100 0072 FFF7FEFF 		bl	FLASH_SetErrorCode
 1101              	.LVL50:
 691:Drivers/STM32L0xx_HAL_Driver/Src/stm32l0xx_hal_flash.c ****   }
 1102              		.loc 1 691 5 view .LVU292
 691:Drivers/STM32L0xx_HAL_Driver/Src/stm32l0xx_hal_flash.c ****   }
 1103              		.loc 1 691 12 is_stmt 0 view .LVU293
ARM GAS  /tmp/cc7HCqHO.s 			page 41


 1104 0076 0120     		movs	r0, #1
 1105              	.L59:
 696:Drivers/STM32L0xx_HAL_Driver/Src/stm32l0xx_hal_flash.c **** 
 1106              		.loc 1 696 1 view .LVU294
 1107              		@ sp needed
 1108              	.LVL51:
 1109              	.LVL52:
 696:Drivers/STM32L0xx_HAL_Driver/Src/stm32l0xx_hal_flash.c **** 
 1110              		.loc 1 696 1 view .LVU295
 1111 0078 70BD     		pop	{r4, r5, r6, pc}
 1112              	.L66:
 1113 007a C046     		.align	2
 1114              	.L65:
 1115 007c 00200240 		.word	1073881088
 1116              		.cfi_endproc
 1117              	.LFE45:
 1119              		.section	.text.HAL_FLASH_Program,"ax",%progbits
 1120              		.align	1
 1121              		.global	HAL_FLASH_Program
 1122              		.syntax unified
 1123              		.code	16
 1124              		.thumb_func
 1126              	HAL_FLASH_Program:
 1127              	.LVL53:
 1128              	.LFB34:
 232:Drivers/STM32L0xx_HAL_Driver/Src/stm32l0xx_hal_flash.c ****   HAL_StatusTypeDef status = HAL_ERROR;
 1129              		.loc 1 232 1 is_stmt 1 view -0
 1130              		.cfi_startproc
 1131              		@ args = 0, pretend = 0, frame = 0
 1132              		@ frame_needed = 0, uses_anonymous_args = 0
 232:Drivers/STM32L0xx_HAL_Driver/Src/stm32l0xx_hal_flash.c ****   HAL_StatusTypeDef status = HAL_ERROR;
 1133              		.loc 1 232 1 is_stmt 0 view .LVU297
 1134 0000 70B5     		push	{r4, r5, r6, lr}
 1135              	.LCFI3:
 1136              		.cfi_def_cfa_offset 16
 1137              		.cfi_offset 4, -16
 1138              		.cfi_offset 5, -12
 1139              		.cfi_offset 6, -8
 1140              		.cfi_offset 14, -4
 1141 0002 0D00     		movs	r5, r1
 1142 0004 1400     		movs	r4, r2
 233:Drivers/STM32L0xx_HAL_Driver/Src/stm32l0xx_hal_flash.c ****   
 1143              		.loc 1 233 3 is_stmt 1 view .LVU298
 1144              	.LVL54:
 236:Drivers/STM32L0xx_HAL_Driver/Src/stm32l0xx_hal_flash.c **** 
 1145              		.loc 1 236 3 view .LVU299
 236:Drivers/STM32L0xx_HAL_Driver/Src/stm32l0xx_hal_flash.c **** 
 1146              		.loc 1 236 3 view .LVU300
 1147 0006 0D4B     		ldr	r3, .L72
 1148 0008 1B7C     		ldrb	r3, [r3, #16]
 1149 000a 012B     		cmp	r3, #1
 1150 000c 13D0     		beq	.L70
 236:Drivers/STM32L0xx_HAL_Driver/Src/stm32l0xx_hal_flash.c **** 
 1151              		.loc 1 236 3 discriminator 2 view .LVU301
 1152 000e 0B4B     		ldr	r3, .L72
 1153 0010 0122     		movs	r2, #1
 1154              	.LVL55:
ARM GAS  /tmp/cc7HCqHO.s 			page 42


 236:Drivers/STM32L0xx_HAL_Driver/Src/stm32l0xx_hal_flash.c **** 
 1155              		.loc 1 236 3 is_stmt 0 discriminator 2 view .LVU302
 1156 0012 1A74     		strb	r2, [r3, #16]
 236:Drivers/STM32L0xx_HAL_Driver/Src/stm32l0xx_hal_flash.c **** 
 1157              		.loc 1 236 3 is_stmt 1 discriminator 2 view .LVU303
 239:Drivers/STM32L0xx_HAL_Driver/Src/stm32l0xx_hal_flash.c ****   assert_param(IS_FLASH_PROGRAM_ADDRESS(Address));
 1158              		.loc 1 239 3 discriminator 2 view .LVU304
 240:Drivers/STM32L0xx_HAL_Driver/Src/stm32l0xx_hal_flash.c **** 
 1159              		.loc 1 240 3 discriminator 2 view .LVU305
 243:Drivers/STM32L0xx_HAL_Driver/Src/stm32l0xx_hal_flash.c ****   
 1160              		.loc 1 243 3 discriminator 2 view .LVU306
 243:Drivers/STM32L0xx_HAL_Driver/Src/stm32l0xx_hal_flash.c ****   
 1161              		.loc 1 243 12 is_stmt 0 discriminator 2 view .LVU307
 1162 0014 0A48     		ldr	r0, .L72+4
 1163              	.LVL56:
 243:Drivers/STM32L0xx_HAL_Driver/Src/stm32l0xx_hal_flash.c ****   
 1164              		.loc 1 243 12 discriminator 2 view .LVU308
 1165 0016 FFF7FEFF 		bl	FLASH_WaitForLastOperation
 1166              	.LVL57:
 245:Drivers/STM32L0xx_HAL_Driver/Src/stm32l0xx_hal_flash.c ****   {
 1167              		.loc 1 245 3 is_stmt 1 discriminator 2 view .LVU309
 245:Drivers/STM32L0xx_HAL_Driver/Src/stm32l0xx_hal_flash.c ****   {
 1168              		.loc 1 245 5 is_stmt 0 discriminator 2 view .LVU310
 1169 001a 0028     		cmp	r0, #0
 1170 001c 03D0     		beq	.L71
 1171              	.LVL58:
 1172              	.L69:
 258:Drivers/STM32L0xx_HAL_Driver/Src/stm32l0xx_hal_flash.c **** 
 1173              		.loc 1 258 3 is_stmt 1 view .LVU311
 258:Drivers/STM32L0xx_HAL_Driver/Src/stm32l0xx_hal_flash.c **** 
 1174              		.loc 1 258 3 view .LVU312
 1175 001e 074B     		ldr	r3, .L72
 1176 0020 0022     		movs	r2, #0
 1177 0022 1A74     		strb	r2, [r3, #16]
 258:Drivers/STM32L0xx_HAL_Driver/Src/stm32l0xx_hal_flash.c **** 
 1178              		.loc 1 258 3 view .LVU313
 260:Drivers/STM32L0xx_HAL_Driver/Src/stm32l0xx_hal_flash.c **** }
 1179              		.loc 1 260 3 view .LVU314
 1180              	.LVL59:
 1181              	.L68:
 261:Drivers/STM32L0xx_HAL_Driver/Src/stm32l0xx_hal_flash.c **** 
 1182              		.loc 1 261 1 is_stmt 0 view .LVU315
 1183              		@ sp needed
 1184              	.LVL60:
 1185              	.LVL61:
 261:Drivers/STM32L0xx_HAL_Driver/Src/stm32l0xx_hal_flash.c **** 
 1186              		.loc 1 261 1 view .LVU316
 1187 0024 70BD     		pop	{r4, r5, r6, pc}
 1188              	.LVL62:
 1189              	.L71:
 248:Drivers/STM32L0xx_HAL_Driver/Src/stm32l0xx_hal_flash.c **** 
 1190              		.loc 1 248 5 is_stmt 1 view .LVU317
 248:Drivers/STM32L0xx_HAL_Driver/Src/stm32l0xx_hal_flash.c **** 
 1191              		.loc 1 248 22 is_stmt 0 view .LVU318
 1192 0026 054B     		ldr	r3, .L72
 1193 0028 0022     		movs	r2, #0
 1194 002a 5A61     		str	r2, [r3, #20]
ARM GAS  /tmp/cc7HCqHO.s 			page 43


 251:Drivers/STM32L0xx_HAL_Driver/Src/stm32l0xx_hal_flash.c **** 
 1195              		.loc 1 251 5 is_stmt 1 view .LVU319
 251:Drivers/STM32L0xx_HAL_Driver/Src/stm32l0xx_hal_flash.c **** 
 1196              		.loc 1 251 31 is_stmt 0 view .LVU320
 1197 002c 2C60     		str	r4, [r5]
 254:Drivers/STM32L0xx_HAL_Driver/Src/stm32l0xx_hal_flash.c ****   }
 1198              		.loc 1 254 5 is_stmt 1 view .LVU321
 254:Drivers/STM32L0xx_HAL_Driver/Src/stm32l0xx_hal_flash.c ****   }
 1199              		.loc 1 254 14 is_stmt 0 view .LVU322
 1200 002e 0448     		ldr	r0, .L72+4
 1201              	.LVL63:
 254:Drivers/STM32L0xx_HAL_Driver/Src/stm32l0xx_hal_flash.c ****   }
 1202              		.loc 1 254 14 view .LVU323
 1203 0030 FFF7FEFF 		bl	FLASH_WaitForLastOperation
 1204              	.LVL64:
 254:Drivers/STM32L0xx_HAL_Driver/Src/stm32l0xx_hal_flash.c ****   }
 1205              		.loc 1 254 14 view .LVU324
 1206 0034 F3E7     		b	.L69
 1207              	.LVL65:
 1208              	.L70:
 236:Drivers/STM32L0xx_HAL_Driver/Src/stm32l0xx_hal_flash.c **** 
 1209              		.loc 1 236 3 view .LVU325
 1210 0036 0220     		movs	r0, #2
 1211              	.LVL66:
 236:Drivers/STM32L0xx_HAL_Driver/Src/stm32l0xx_hal_flash.c **** 
 1212              		.loc 1 236 3 view .LVU326
 1213 0038 F4E7     		b	.L68
 1214              	.L73:
 1215 003a C046     		.align	2
 1216              	.L72:
 1217 003c 00000000 		.word	.LANCHOR0
 1218 0040 50C30000 		.word	50000
 1219              		.cfi_endproc
 1220              	.LFE34:
 1222              		.section	.text.HAL_FLASH_OB_Launch,"ax",%progbits
 1223              		.align	1
 1224              		.global	HAL_FLASH_OB_Launch
 1225              		.syntax unified
 1226              		.code	16
 1227              		.thumb_func
 1229              	HAL_FLASH_OB_Launch:
 1230              	.LFB43:
 593:Drivers/STM32L0xx_HAL_Driver/Src/stm32l0xx_hal_flash.c ****   /* Set the OBL_Launch bit to launch the option byte loading */
 1231              		.loc 1 593 1 is_stmt 1 view -0
 1232              		.cfi_startproc
 1233              		@ args = 0, pretend = 0, frame = 0
 1234              		@ frame_needed = 0, uses_anonymous_args = 0
 1235 0000 10B5     		push	{r4, lr}
 1236              	.LCFI4:
 1237              		.cfi_def_cfa_offset 8
 1238              		.cfi_offset 4, -8
 1239              		.cfi_offset 14, -4
 595:Drivers/STM32L0xx_HAL_Driver/Src/stm32l0xx_hal_flash.c ****   
 1240              		.loc 1 595 3 view .LVU328
 1241 0002 054A     		ldr	r2, .L75
 1242 0004 5168     		ldr	r1, [r2, #4]
 1243 0006 8023     		movs	r3, #128
ARM GAS  /tmp/cc7HCqHO.s 			page 44


 1244 0008 DB02     		lsls	r3, r3, #11
 1245 000a 0B43     		orrs	r3, r1
 1246 000c 5360     		str	r3, [r2, #4]
 598:Drivers/STM32L0xx_HAL_Driver/Src/stm32l0xx_hal_flash.c **** }
 1247              		.loc 1 598 3 view .LVU329
 598:Drivers/STM32L0xx_HAL_Driver/Src/stm32l0xx_hal_flash.c **** }
 1248              		.loc 1 598 10 is_stmt 0 view .LVU330
 1249 000e 0348     		ldr	r0, .L75+4
 1250 0010 FFF7FEFF 		bl	FLASH_WaitForLastOperation
 1251              	.LVL67:
 599:Drivers/STM32L0xx_HAL_Driver/Src/stm32l0xx_hal_flash.c **** 
 1252              		.loc 1 599 1 view .LVU331
 1253              		@ sp needed
 1254 0014 10BD     		pop	{r4, pc}
 1255              	.L76:
 1256 0016 C046     		.align	2
 1257              	.L75:
 1258 0018 00200240 		.word	1073881088
 1259 001c 50C30000 		.word	50000
 1260              		.cfi_endproc
 1261              	.LFE43:
 1263              		.global	pFlash
 1264              		.section	.bss.pFlash,"aw",%nobits
 1265              		.align	2
 1266              		.set	.LANCHOR0,. + 0
 1269              	pFlash:
 1270 0000 00000000 		.space	24
 1270      00000000 
 1270      00000000 
 1270      00000000 
 1270      00000000 
 1271              		.text
 1272              	.Letext0:
 1273              		.file 3 "/home/thomas/programme/gcc-arm-none-eabi-10.3-2021.10/arm-none-eabi/include/machine/_defa
 1274              		.file 4 "/home/thomas/programme/gcc-arm-none-eabi-10.3-2021.10/arm-none-eabi/include/sys/_stdint.h
 1275              		.file 5 "Drivers/CMSIS/Device/ST/STM32L0xx/Include/stm32l052xx.h"
 1276              		.file 6 "Drivers/STM32L0xx_HAL_Driver/Inc/stm32l0xx_hal_def.h"
 1277              		.file 7 "Drivers/STM32L0xx_HAL_Driver/Inc/stm32l0xx_hal_flash.h"
 1278              		.file 8 "Drivers/STM32L0xx_HAL_Driver/Inc/stm32l0xx_hal.h"
ARM GAS  /tmp/cc7HCqHO.s 			page 45

