ARM GAS  /tmp/cc1ege1D.s 			page 1


   1              		.cpu cortex-m0plus
   2              		.arch armv6s-m
   3              		.fpu softvfp
   4              		.eabi_attribute 20, 1
   5              		.eabi_attribute 21, 1
   6              		.eabi_attribute 23, 3
   7              		.eabi_attribute 24, 1
   8              		.eabi_attribute 25, 1
   9              		.eabi_attribute 26, 1
  10              		.eabi_attribute 30, 1
  11              		.eabi_attribute 34, 0
  12              		.eabi_attribute 18, 4
  13              		.file	"stm32l0xx_hal_pwr.c"
  14              		.text
  15              	.Ltext0:
  16              		.cfi_sections	.debug_frame
  17              		.section	.text.HAL_PWR_DeInit,"ax",%progbits
  18              		.align	1
  19              		.global	HAL_PWR_DeInit
  20              		.syntax unified
  21              		.code	16
  22              		.thumb_func
  24              	HAL_PWR_DeInit:
  25              	.LFB34:
  26              		.file 1 "Drivers/STM32L0xx_HAL_Driver/Src/stm32l0xx_hal_pwr.c"
   1:Drivers/STM32L0xx_HAL_Driver/Src/stm32l0xx_hal_pwr.c **** /**
   2:Drivers/STM32L0xx_HAL_Driver/Src/stm32l0xx_hal_pwr.c ****   ******************************************************************************
   3:Drivers/STM32L0xx_HAL_Driver/Src/stm32l0xx_hal_pwr.c ****   * @file    stm32l0xx_hal_pwr.c
   4:Drivers/STM32L0xx_HAL_Driver/Src/stm32l0xx_hal_pwr.c ****   * @author  MCD Application Team
   5:Drivers/STM32L0xx_HAL_Driver/Src/stm32l0xx_hal_pwr.c ****   * @brief   PWR HAL module driver.
   6:Drivers/STM32L0xx_HAL_Driver/Src/stm32l0xx_hal_pwr.c ****   *
   7:Drivers/STM32L0xx_HAL_Driver/Src/stm32l0xx_hal_pwr.c ****   *          This file provides firmware functions to manage the following
   8:Drivers/STM32L0xx_HAL_Driver/Src/stm32l0xx_hal_pwr.c ****   *          functionalities of the Power Controller (PWR) peripheral:
   9:Drivers/STM32L0xx_HAL_Driver/Src/stm32l0xx_hal_pwr.c ****   *           + Initialization/de-initialization functions
  10:Drivers/STM32L0xx_HAL_Driver/Src/stm32l0xx_hal_pwr.c ****   *           + Peripheral Control functions 
  11:Drivers/STM32L0xx_HAL_Driver/Src/stm32l0xx_hal_pwr.c ****   *
  12:Drivers/STM32L0xx_HAL_Driver/Src/stm32l0xx_hal_pwr.c ****   ******************************************************************************
  13:Drivers/STM32L0xx_HAL_Driver/Src/stm32l0xx_hal_pwr.c ****   * @attention
  14:Drivers/STM32L0xx_HAL_Driver/Src/stm32l0xx_hal_pwr.c ****   *
  15:Drivers/STM32L0xx_HAL_Driver/Src/stm32l0xx_hal_pwr.c ****   * <h2><center>&copy; Copyright(c) 2016 STMicroelectronics.
  16:Drivers/STM32L0xx_HAL_Driver/Src/stm32l0xx_hal_pwr.c ****   * All rights reserved.</center></h2>
  17:Drivers/STM32L0xx_HAL_Driver/Src/stm32l0xx_hal_pwr.c ****   *
  18:Drivers/STM32L0xx_HAL_Driver/Src/stm32l0xx_hal_pwr.c ****   * This software component is licensed by ST under BSD 3-Clause license,
  19:Drivers/STM32L0xx_HAL_Driver/Src/stm32l0xx_hal_pwr.c ****   * the "License"; You may not use this file except in compliance with the
  20:Drivers/STM32L0xx_HAL_Driver/Src/stm32l0xx_hal_pwr.c ****   * License. You may obtain a copy of the License at:
  21:Drivers/STM32L0xx_HAL_Driver/Src/stm32l0xx_hal_pwr.c ****   *                        opensource.org/licenses/BSD-3-Clause
  22:Drivers/STM32L0xx_HAL_Driver/Src/stm32l0xx_hal_pwr.c ****   *
  23:Drivers/STM32L0xx_HAL_Driver/Src/stm32l0xx_hal_pwr.c ****   ******************************************************************************
  24:Drivers/STM32L0xx_HAL_Driver/Src/stm32l0xx_hal_pwr.c ****   */
  25:Drivers/STM32L0xx_HAL_Driver/Src/stm32l0xx_hal_pwr.c **** 
  26:Drivers/STM32L0xx_HAL_Driver/Src/stm32l0xx_hal_pwr.c **** /* Includes ------------------------------------------------------------------*/
  27:Drivers/STM32L0xx_HAL_Driver/Src/stm32l0xx_hal_pwr.c **** #include "stm32l0xx_hal.h"
  28:Drivers/STM32L0xx_HAL_Driver/Src/stm32l0xx_hal_pwr.c **** 
  29:Drivers/STM32L0xx_HAL_Driver/Src/stm32l0xx_hal_pwr.c **** #ifdef HAL_PWR_MODULE_ENABLED
  30:Drivers/STM32L0xx_HAL_Driver/Src/stm32l0xx_hal_pwr.c **** /** @addtogroup STM32L0xx_HAL_Driver
  31:Drivers/STM32L0xx_HAL_Driver/Src/stm32l0xx_hal_pwr.c ****   * @{
  32:Drivers/STM32L0xx_HAL_Driver/Src/stm32l0xx_hal_pwr.c ****   */
ARM GAS  /tmp/cc1ege1D.s 			page 2


  33:Drivers/STM32L0xx_HAL_Driver/Src/stm32l0xx_hal_pwr.c **** 
  34:Drivers/STM32L0xx_HAL_Driver/Src/stm32l0xx_hal_pwr.c **** /** @addtogroup PWR
  35:Drivers/STM32L0xx_HAL_Driver/Src/stm32l0xx_hal_pwr.c ****   * @{
  36:Drivers/STM32L0xx_HAL_Driver/Src/stm32l0xx_hal_pwr.c ****   */
  37:Drivers/STM32L0xx_HAL_Driver/Src/stm32l0xx_hal_pwr.c **** 
  38:Drivers/STM32L0xx_HAL_Driver/Src/stm32l0xx_hal_pwr.c **** /** @addtogroup PWR_Private
  39:Drivers/STM32L0xx_HAL_Driver/Src/stm32l0xx_hal_pwr.c ****   * @{
  40:Drivers/STM32L0xx_HAL_Driver/Src/stm32l0xx_hal_pwr.c ****   */
  41:Drivers/STM32L0xx_HAL_Driver/Src/stm32l0xx_hal_pwr.c ****   
  42:Drivers/STM32L0xx_HAL_Driver/Src/stm32l0xx_hal_pwr.c **** #if defined(PWR_PVD_SUPPORT)
  43:Drivers/STM32L0xx_HAL_Driver/Src/stm32l0xx_hal_pwr.c **** /** @defgroup PWR_PVD_Mode_Mask PWR PVD Mode Mask
  44:Drivers/STM32L0xx_HAL_Driver/Src/stm32l0xx_hal_pwr.c ****   * @{
  45:Drivers/STM32L0xx_HAL_Driver/Src/stm32l0xx_hal_pwr.c ****   */ 
  46:Drivers/STM32L0xx_HAL_Driver/Src/stm32l0xx_hal_pwr.c **** #define PVD_MODE_IT               ((uint32_t)0x00010000U)
  47:Drivers/STM32L0xx_HAL_Driver/Src/stm32l0xx_hal_pwr.c **** #define PVD_MODE_EVT              ((uint32_t)0x00020000U)
  48:Drivers/STM32L0xx_HAL_Driver/Src/stm32l0xx_hal_pwr.c **** #define PVD_RISING_EDGE           ((uint32_t)0x00000001U)
  49:Drivers/STM32L0xx_HAL_Driver/Src/stm32l0xx_hal_pwr.c **** #define PVD_FALLING_EDGE          ((uint32_t)0x00000002U)
  50:Drivers/STM32L0xx_HAL_Driver/Src/stm32l0xx_hal_pwr.c **** /**
  51:Drivers/STM32L0xx_HAL_Driver/Src/stm32l0xx_hal_pwr.c ****   * @}
  52:Drivers/STM32L0xx_HAL_Driver/Src/stm32l0xx_hal_pwr.c ****   */
  53:Drivers/STM32L0xx_HAL_Driver/Src/stm32l0xx_hal_pwr.c **** #endif
  54:Drivers/STM32L0xx_HAL_Driver/Src/stm32l0xx_hal_pwr.c **** 
  55:Drivers/STM32L0xx_HAL_Driver/Src/stm32l0xx_hal_pwr.c **** /**
  56:Drivers/STM32L0xx_HAL_Driver/Src/stm32l0xx_hal_pwr.c ****   * @}
  57:Drivers/STM32L0xx_HAL_Driver/Src/stm32l0xx_hal_pwr.c ****   */  
  58:Drivers/STM32L0xx_HAL_Driver/Src/stm32l0xx_hal_pwr.c ****   
  59:Drivers/STM32L0xx_HAL_Driver/Src/stm32l0xx_hal_pwr.c **** 
  60:Drivers/STM32L0xx_HAL_Driver/Src/stm32l0xx_hal_pwr.c **** /** @addtogroup PWR_Exported_Functions
  61:Drivers/STM32L0xx_HAL_Driver/Src/stm32l0xx_hal_pwr.c ****   * @{
  62:Drivers/STM32L0xx_HAL_Driver/Src/stm32l0xx_hal_pwr.c ****   */
  63:Drivers/STM32L0xx_HAL_Driver/Src/stm32l0xx_hal_pwr.c **** 
  64:Drivers/STM32L0xx_HAL_Driver/Src/stm32l0xx_hal_pwr.c **** /** @addtogroup PWR_Exported_Functions_Group1
  65:Drivers/STM32L0xx_HAL_Driver/Src/stm32l0xx_hal_pwr.c ****   * @brief      Initialization and de-initialization functions
  66:Drivers/STM32L0xx_HAL_Driver/Src/stm32l0xx_hal_pwr.c ****   *
  67:Drivers/STM32L0xx_HAL_Driver/Src/stm32l0xx_hal_pwr.c **** @verbatim
  68:Drivers/STM32L0xx_HAL_Driver/Src/stm32l0xx_hal_pwr.c ****  ===============================================================================
  69:Drivers/STM32L0xx_HAL_Driver/Src/stm32l0xx_hal_pwr.c ****               ##### Initialization and de-initialization functions #####
  70:Drivers/STM32L0xx_HAL_Driver/Src/stm32l0xx_hal_pwr.c ****  ===============================================================================
  71:Drivers/STM32L0xx_HAL_Driver/Src/stm32l0xx_hal_pwr.c **** 
  72:Drivers/STM32L0xx_HAL_Driver/Src/stm32l0xx_hal_pwr.c **** @endverbatim
  73:Drivers/STM32L0xx_HAL_Driver/Src/stm32l0xx_hal_pwr.c ****   * @{
  74:Drivers/STM32L0xx_HAL_Driver/Src/stm32l0xx_hal_pwr.c ****   */
  75:Drivers/STM32L0xx_HAL_Driver/Src/stm32l0xx_hal_pwr.c **** 
  76:Drivers/STM32L0xx_HAL_Driver/Src/stm32l0xx_hal_pwr.c **** /**
  77:Drivers/STM32L0xx_HAL_Driver/Src/stm32l0xx_hal_pwr.c ****   * @brief Deinitializes the HAL PWR peripheral registers to their default reset values.
  78:Drivers/STM32L0xx_HAL_Driver/Src/stm32l0xx_hal_pwr.c ****   * @retval None
  79:Drivers/STM32L0xx_HAL_Driver/Src/stm32l0xx_hal_pwr.c ****   */
  80:Drivers/STM32L0xx_HAL_Driver/Src/stm32l0xx_hal_pwr.c **** void HAL_PWR_DeInit(void)
  81:Drivers/STM32L0xx_HAL_Driver/Src/stm32l0xx_hal_pwr.c **** {
  27              		.loc 1 81 1 view -0
  28              		.cfi_startproc
  29              		@ args = 0, pretend = 0, frame = 0
  30              		@ frame_needed = 0, uses_anonymous_args = 0
  31              		@ link register save eliminated.
  82:Drivers/STM32L0xx_HAL_Driver/Src/stm32l0xx_hal_pwr.c ****   __HAL_RCC_PWR_FORCE_RESET();
  32              		.loc 1 82 3 view .LVU1
  33 0000 054B     		ldr	r3, .L2
ARM GAS  /tmp/cc1ege1D.s 			page 3


  34 0002 996A     		ldr	r1, [r3, #40]
  35 0004 8022     		movs	r2, #128
  36 0006 5205     		lsls	r2, r2, #21
  37 0008 0A43     		orrs	r2, r1
  38 000a 9A62     		str	r2, [r3, #40]
  83:Drivers/STM32L0xx_HAL_Driver/Src/stm32l0xx_hal_pwr.c ****   __HAL_RCC_PWR_RELEASE_RESET();
  39              		.loc 1 83 3 view .LVU2
  40 000c 9A6A     		ldr	r2, [r3, #40]
  41 000e 0349     		ldr	r1, .L2+4
  42 0010 0A40     		ands	r2, r1
  43 0012 9A62     		str	r2, [r3, #40]
  84:Drivers/STM32L0xx_HAL_Driver/Src/stm32l0xx_hal_pwr.c **** }
  44              		.loc 1 84 1 is_stmt 0 view .LVU3
  45              		@ sp needed
  46 0014 7047     		bx	lr
  47              	.L3:
  48 0016 C046     		.align	2
  49              	.L2:
  50 0018 00100240 		.word	1073876992
  51 001c FFFFFFEF 		.word	-268435457
  52              		.cfi_endproc
  53              	.LFE34:
  55              		.section	.text.HAL_PWR_EnableBkUpAccess,"ax",%progbits
  56              		.align	1
  57              		.global	HAL_PWR_EnableBkUpAccess
  58              		.syntax unified
  59              		.code	16
  60              		.thumb_func
  62              	HAL_PWR_EnableBkUpAccess:
  63              	.LFB35:
  85:Drivers/STM32L0xx_HAL_Driver/Src/stm32l0xx_hal_pwr.c **** 
  86:Drivers/STM32L0xx_HAL_Driver/Src/stm32l0xx_hal_pwr.c **** /**
  87:Drivers/STM32L0xx_HAL_Driver/Src/stm32l0xx_hal_pwr.c ****   * @}
  88:Drivers/STM32L0xx_HAL_Driver/Src/stm32l0xx_hal_pwr.c ****   */
  89:Drivers/STM32L0xx_HAL_Driver/Src/stm32l0xx_hal_pwr.c **** 
  90:Drivers/STM32L0xx_HAL_Driver/Src/stm32l0xx_hal_pwr.c **** /** @addtogroup PWR_Exported_Functions_Group2
  91:Drivers/STM32L0xx_HAL_Driver/Src/stm32l0xx_hal_pwr.c ****   * @brief      Low Power modes configuration functions
  92:Drivers/STM32L0xx_HAL_Driver/Src/stm32l0xx_hal_pwr.c ****   *
  93:Drivers/STM32L0xx_HAL_Driver/Src/stm32l0xx_hal_pwr.c **** @verbatim
  94:Drivers/STM32L0xx_HAL_Driver/Src/stm32l0xx_hal_pwr.c **** 
  95:Drivers/STM32L0xx_HAL_Driver/Src/stm32l0xx_hal_pwr.c ****  ===============================================================================
  96:Drivers/STM32L0xx_HAL_Driver/Src/stm32l0xx_hal_pwr.c ****                  ##### Peripheral Control functions #####
  97:Drivers/STM32L0xx_HAL_Driver/Src/stm32l0xx_hal_pwr.c ****  ===============================================================================
  98:Drivers/STM32L0xx_HAL_Driver/Src/stm32l0xx_hal_pwr.c ****      
  99:Drivers/STM32L0xx_HAL_Driver/Src/stm32l0xx_hal_pwr.c ****     *** Backup domain ***
 100:Drivers/STM32L0xx_HAL_Driver/Src/stm32l0xx_hal_pwr.c ****     =========================
 101:Drivers/STM32L0xx_HAL_Driver/Src/stm32l0xx_hal_pwr.c ****     [..]
 102:Drivers/STM32L0xx_HAL_Driver/Src/stm32l0xx_hal_pwr.c ****       After reset, the backup domain (RTC registers, RTC backup data
 103:Drivers/STM32L0xx_HAL_Driver/Src/stm32l0xx_hal_pwr.c ****       registers) is protected against possible unwanted
 104:Drivers/STM32L0xx_HAL_Driver/Src/stm32l0xx_hal_pwr.c ****       write accesses.
 105:Drivers/STM32L0xx_HAL_Driver/Src/stm32l0xx_hal_pwr.c ****       To enable access to the RTC Domain and RTC registers, proceed as follows:
 106:Drivers/STM32L0xx_HAL_Driver/Src/stm32l0xx_hal_pwr.c ****         (+) Enable the Power Controller (PWR) APB1 interface clock using the
 107:Drivers/STM32L0xx_HAL_Driver/Src/stm32l0xx_hal_pwr.c ****             __HAL_RCC_PWR_CLK_ENABLE() macro.
 108:Drivers/STM32L0xx_HAL_Driver/Src/stm32l0xx_hal_pwr.c ****         (+) Enable access to RTC domain using the HAL_PWR_EnableBkUpAccess() function.
 109:Drivers/STM32L0xx_HAL_Driver/Src/stm32l0xx_hal_pwr.c **** 
 110:Drivers/STM32L0xx_HAL_Driver/Src/stm32l0xx_hal_pwr.c ****     *** PVD configuration ***
 111:Drivers/STM32L0xx_HAL_Driver/Src/stm32l0xx_hal_pwr.c ****     =========================
ARM GAS  /tmp/cc1ege1D.s 			page 4


 112:Drivers/STM32L0xx_HAL_Driver/Src/stm32l0xx_hal_pwr.c ****     [..]
 113:Drivers/STM32L0xx_HAL_Driver/Src/stm32l0xx_hal_pwr.c ****       (+) The PVD is used to monitor the VDD power supply by comparing it to a
 114:Drivers/STM32L0xx_HAL_Driver/Src/stm32l0xx_hal_pwr.c ****           threshold selected by the PVD Level (PLS[2:0] bits in the PWR_CR).
 115:Drivers/STM32L0xx_HAL_Driver/Src/stm32l0xx_hal_pwr.c ****       (+) The PVD can use an external input analog voltage (PVD_IN) which is compared 
 116:Drivers/STM32L0xx_HAL_Driver/Src/stm32l0xx_hal_pwr.c ****       internally to VREFINT. The PVD_IN (PB7) has to be configured in Analog mode 
 117:Drivers/STM32L0xx_HAL_Driver/Src/stm32l0xx_hal_pwr.c ****       when PWR_PVDLevel_7 is selected (PLS[2:0] = 111).
 118:Drivers/STM32L0xx_HAL_Driver/Src/stm32l0xx_hal_pwr.c **** 
 119:Drivers/STM32L0xx_HAL_Driver/Src/stm32l0xx_hal_pwr.c ****       (+) A PVDO flag is available to indicate if VDD/VDDA is higher or lower
 120:Drivers/STM32L0xx_HAL_Driver/Src/stm32l0xx_hal_pwr.c ****           than the PVD threshold. This event is internally connected to the EXTI
 121:Drivers/STM32L0xx_HAL_Driver/Src/stm32l0xx_hal_pwr.c ****           line16 and can generate an interrupt if enabled. This is done through
 122:Drivers/STM32L0xx_HAL_Driver/Src/stm32l0xx_hal_pwr.c ****           __HAL_PWR_PVD_EXTI_ENABLE_IT() macro.
 123:Drivers/STM32L0xx_HAL_Driver/Src/stm32l0xx_hal_pwr.c ****       (+) The PVD is stopped in Standby mode.
 124:Drivers/STM32L0xx_HAL_Driver/Src/stm32l0xx_hal_pwr.c ****       (+) The PVD feature is not supported on L0 Value line.
 125:Drivers/STM32L0xx_HAL_Driver/Src/stm32l0xx_hal_pwr.c **** 
 126:Drivers/STM32L0xx_HAL_Driver/Src/stm32l0xx_hal_pwr.c ****     *** WakeUp pin configuration ***
 127:Drivers/STM32L0xx_HAL_Driver/Src/stm32l0xx_hal_pwr.c ****     ================================
 128:Drivers/STM32L0xx_HAL_Driver/Src/stm32l0xx_hal_pwr.c ****     [..]
 129:Drivers/STM32L0xx_HAL_Driver/Src/stm32l0xx_hal_pwr.c ****       (+) WakeUp pin is used to wake up the system from Standby mode. This pin is
 130:Drivers/STM32L0xx_HAL_Driver/Src/stm32l0xx_hal_pwr.c ****           forced in input pull-down configuration and is active on rising edges.
 131:Drivers/STM32L0xx_HAL_Driver/Src/stm32l0xx_hal_pwr.c ****       (+) There are two WakeUp pins:
 132:Drivers/STM32L0xx_HAL_Driver/Src/stm32l0xx_hal_pwr.c ****           WakeUp Pin 1 on PA.00.
 133:Drivers/STM32L0xx_HAL_Driver/Src/stm32l0xx_hal_pwr.c ****           WakeUp Pin 2 on PC.13.
 134:Drivers/STM32L0xx_HAL_Driver/Src/stm32l0xx_hal_pwr.c ****           WakeUp Pin 3 on PE.06 .
 135:Drivers/STM32L0xx_HAL_Driver/Src/stm32l0xx_hal_pwr.c ****           
 136:Drivers/STM32L0xx_HAL_Driver/Src/stm32l0xx_hal_pwr.c **** 
 137:Drivers/STM32L0xx_HAL_Driver/Src/stm32l0xx_hal_pwr.c ****     [..]
 138:Drivers/STM32L0xx_HAL_Driver/Src/stm32l0xx_hal_pwr.c ****     *** Main and Backup Regulators configuration ***
 139:Drivers/STM32L0xx_HAL_Driver/Src/stm32l0xx_hal_pwr.c ****     ================================================
 140:Drivers/STM32L0xx_HAL_Driver/Src/stm32l0xx_hal_pwr.c **** 
 141:Drivers/STM32L0xx_HAL_Driver/Src/stm32l0xx_hal_pwr.c ****       (+) The main internal regulator can be configured to have a tradeoff between
 142:Drivers/STM32L0xx_HAL_Driver/Src/stm32l0xx_hal_pwr.c ****           performance and power consumption when the device does not operate at
 143:Drivers/STM32L0xx_HAL_Driver/Src/stm32l0xx_hal_pwr.c ****           the maximum frequency. This is done through __HAL_PWR_VOLTAGESCALING_CONFIG()
 144:Drivers/STM32L0xx_HAL_Driver/Src/stm32l0xx_hal_pwr.c ****           macro which configures the two VOS bits in PWR_CR register:
 145:Drivers/STM32L0xx_HAL_Driver/Src/stm32l0xx_hal_pwr.c ****         (++) PWR_REGULATOR_VOLTAGE_SCALE1 (VOS bits = 01), the regulator voltage output Scale 1 mod
 146:Drivers/STM32L0xx_HAL_Driver/Src/stm32l0xx_hal_pwr.c ****              the System frequency can go up to 32 MHz.
 147:Drivers/STM32L0xx_HAL_Driver/Src/stm32l0xx_hal_pwr.c ****         (++) PWR_REGULATOR_VOLTAGE_SCALE2 (VOS bits = 10), the regulator voltage output Scale 2 mod
 148:Drivers/STM32L0xx_HAL_Driver/Src/stm32l0xx_hal_pwr.c ****              the System frequency can go up to 16 MHz.
 149:Drivers/STM32L0xx_HAL_Driver/Src/stm32l0xx_hal_pwr.c ****         (++) PWR_REGULATOR_VOLTAGE_SCALE3 (VOS bits = 11), the regulator voltage output Scale 3 mod
 150:Drivers/STM32L0xx_HAL_Driver/Src/stm32l0xx_hal_pwr.c ****              the System frequency can go up to 4.2 MHz.
 151:Drivers/STM32L0xx_HAL_Driver/Src/stm32l0xx_hal_pwr.c ****               
 152:Drivers/STM32L0xx_HAL_Driver/Src/stm32l0xx_hal_pwr.c ****         Refer to the datasheets for more details.
 153:Drivers/STM32L0xx_HAL_Driver/Src/stm32l0xx_hal_pwr.c **** 
 154:Drivers/STM32L0xx_HAL_Driver/Src/stm32l0xx_hal_pwr.c ****     *** Low Power modes configuration ***
 155:Drivers/STM32L0xx_HAL_Driver/Src/stm32l0xx_hal_pwr.c ****     =====================================
 156:Drivers/STM32L0xx_HAL_Driver/Src/stm32l0xx_hal_pwr.c ****      [..]
 157:Drivers/STM32L0xx_HAL_Driver/Src/stm32l0xx_hal_pwr.c ****       The device features 5 low-power modes:
 158:Drivers/STM32L0xx_HAL_Driver/Src/stm32l0xx_hal_pwr.c ****       (+) Low power run mode: regulator in low power mode, limited clock frequency, 
 159:Drivers/STM32L0xx_HAL_Driver/Src/stm32l0xx_hal_pwr.c ****         limited number of peripherals running.
 160:Drivers/STM32L0xx_HAL_Driver/Src/stm32l0xx_hal_pwr.c ****       (+) Sleep mode: Cortex-M0+ core stopped, peripherals kept running.
 161:Drivers/STM32L0xx_HAL_Driver/Src/stm32l0xx_hal_pwr.c ****       (+) Low power sleep mode: Cortex-M0+ core stopped, limited clock frequency, 
 162:Drivers/STM32L0xx_HAL_Driver/Src/stm32l0xx_hal_pwr.c ****          limited number of peripherals running, regulator in low power mode.
 163:Drivers/STM32L0xx_HAL_Driver/Src/stm32l0xx_hal_pwr.c ****       (+) Stop mode: All clocks are stopped, regulator running, regulator in low power mode.
 164:Drivers/STM32L0xx_HAL_Driver/Src/stm32l0xx_hal_pwr.c ****       (+) Standby mode: VCORE domain powered off
 165:Drivers/STM32L0xx_HAL_Driver/Src/stm32l0xx_hal_pwr.c ****   
 166:Drivers/STM32L0xx_HAL_Driver/Src/stm32l0xx_hal_pwr.c ****    *** Low power run mode ***
 167:Drivers/STM32L0xx_HAL_Driver/Src/stm32l0xx_hal_pwr.c ****    =========================
 168:Drivers/STM32L0xx_HAL_Driver/Src/stm32l0xx_hal_pwr.c ****     [..]
ARM GAS  /tmp/cc1ege1D.s 			page 5


 169:Drivers/STM32L0xx_HAL_Driver/Src/stm32l0xx_hal_pwr.c ****        To further reduce the consumption when the system is in Run mode, the regulator can be
 170:Drivers/STM32L0xx_HAL_Driver/Src/stm32l0xx_hal_pwr.c ****         configured in low power mode. In this mode, the system frequency should not exceed
 171:Drivers/STM32L0xx_HAL_Driver/Src/stm32l0xx_hal_pwr.c ****         MSI frequency range1.
 172:Drivers/STM32L0xx_HAL_Driver/Src/stm32l0xx_hal_pwr.c ****         In Low power run mode, all I/O pins keep the same state as in Run mode.
 173:Drivers/STM32L0xx_HAL_Driver/Src/stm32l0xx_hal_pwr.c ****   
 174:Drivers/STM32L0xx_HAL_Driver/Src/stm32l0xx_hal_pwr.c ****       (+) Entry:
 175:Drivers/STM32L0xx_HAL_Driver/Src/stm32l0xx_hal_pwr.c ****         (++) VCORE in range2
 176:Drivers/STM32L0xx_HAL_Driver/Src/stm32l0xx_hal_pwr.c ****         (++) Decrease the system frequency not to exceed the frequency of MSI frequency range1.
 177:Drivers/STM32L0xx_HAL_Driver/Src/stm32l0xx_hal_pwr.c ****         (++) The regulator is forced in low power mode using the HAL_PWREx_EnableLowPowerRunMode()
 178:Drivers/STM32L0xx_HAL_Driver/Src/stm32l0xx_hal_pwr.c ****              function.
 179:Drivers/STM32L0xx_HAL_Driver/Src/stm32l0xx_hal_pwr.c ****       (+) Exit:
 180:Drivers/STM32L0xx_HAL_Driver/Src/stm32l0xx_hal_pwr.c ****         (++) The regulator is forced in Main regulator mode using the HAL_PWREx_DisableLowPowerRunM
 181:Drivers/STM32L0xx_HAL_Driver/Src/stm32l0xx_hal_pwr.c ****               function.
 182:Drivers/STM32L0xx_HAL_Driver/Src/stm32l0xx_hal_pwr.c ****         (++) Increase the system frequency if needed.
 183:Drivers/STM32L0xx_HAL_Driver/Src/stm32l0xx_hal_pwr.c ****   
 184:Drivers/STM32L0xx_HAL_Driver/Src/stm32l0xx_hal_pwr.c ****    *** Sleep mode ***
 185:Drivers/STM32L0xx_HAL_Driver/Src/stm32l0xx_hal_pwr.c ****    ==================
 186:Drivers/STM32L0xx_HAL_Driver/Src/stm32l0xx_hal_pwr.c ****     [..]
 187:Drivers/STM32L0xx_HAL_Driver/Src/stm32l0xx_hal_pwr.c ****       (+) Entry:
 188:Drivers/STM32L0xx_HAL_Driver/Src/stm32l0xx_hal_pwr.c ****           The Sleep mode is entered by using the HAL_PWR_EnterSLEEPMode(PWR_MAINREGULATOR_ON, PWR_S
 189:Drivers/STM32L0xx_HAL_Driver/Src/stm32l0xx_hal_pwr.c ****               functions with
 190:Drivers/STM32L0xx_HAL_Driver/Src/stm32l0xx_hal_pwr.c ****           (++) PWR_SLEEPENTRY_WFI: enter SLEEP mode with WFI instruction
 191:Drivers/STM32L0xx_HAL_Driver/Src/stm32l0xx_hal_pwr.c ****           (++) PWR_SLEEPENTRY_WFE: enter SLEEP mode with WFE instruction
 192:Drivers/STM32L0xx_HAL_Driver/Src/stm32l0xx_hal_pwr.c ****      
 193:Drivers/STM32L0xx_HAL_Driver/Src/stm32l0xx_hal_pwr.c ****       (+) Exit:
 194:Drivers/STM32L0xx_HAL_Driver/Src/stm32l0xx_hal_pwr.c ****         (++) Any peripheral interrupt acknowledged by the nested vectored interrupt
 195:Drivers/STM32L0xx_HAL_Driver/Src/stm32l0xx_hal_pwr.c ****               controller (NVIC) can wake up the device from Sleep mode. If the WFE instruction was 
 196:Drivers/STM32L0xx_HAL_Driver/Src/stm32l0xx_hal_pwr.c ****               the MCU exits Sleep mode as soon as an event occurs. 
 197:Drivers/STM32L0xx_HAL_Driver/Src/stm32l0xx_hal_pwr.c **** 
 198:Drivers/STM32L0xx_HAL_Driver/Src/stm32l0xx_hal_pwr.c ****    *** Low power sleep mode ***
 199:Drivers/STM32L0xx_HAL_Driver/Src/stm32l0xx_hal_pwr.c ****    ============================
 200:Drivers/STM32L0xx_HAL_Driver/Src/stm32l0xx_hal_pwr.c ****     [..]
 201:Drivers/STM32L0xx_HAL_Driver/Src/stm32l0xx_hal_pwr.c ****       (+) Entry:
 202:Drivers/STM32L0xx_HAL_Driver/Src/stm32l0xx_hal_pwr.c ****           The Low power sleep mode is entered by using the HAL_PWR_EnterSLEEPMode(PWR_LOWPOWERREGUL
 203:Drivers/STM32L0xx_HAL_Driver/Src/stm32l0xx_hal_pwr.c ****               functions with
 204:Drivers/STM32L0xx_HAL_Driver/Src/stm32l0xx_hal_pwr.c ****           (++) PWR_SLEEPENTRY_WFI: enter SLEEP mode with WFI instruction
 205:Drivers/STM32L0xx_HAL_Driver/Src/stm32l0xx_hal_pwr.c ****           (++) PWR_SLEEPENTRY_WFE: enter SLEEP mode with WFE instruction
 206:Drivers/STM32L0xx_HAL_Driver/Src/stm32l0xx_hal_pwr.c ****        (+) The Flash memory can be switched off by using the control bits (SLEEP_PD in the FLASH_AC
 207:Drivers/STM32L0xx_HAL_Driver/Src/stm32l0xx_hal_pwr.c ****              This reduces power consumption but increases the wake-up time.
 208:Drivers/STM32L0xx_HAL_Driver/Src/stm32l0xx_hal_pwr.c ****          
 209:Drivers/STM32L0xx_HAL_Driver/Src/stm32l0xx_hal_pwr.c ****       (+) Exit:
 210:Drivers/STM32L0xx_HAL_Driver/Src/stm32l0xx_hal_pwr.c ****         (++) If the WFI instruction was used to enter Low power sleep mode, any peripheral interrup
 211:Drivers/STM32L0xx_HAL_Driver/Src/stm32l0xx_hal_pwr.c ****               acknowledged by the nested vectored interrupt controller (NVIC) can wake up the devic
 212:Drivers/STM32L0xx_HAL_Driver/Src/stm32l0xx_hal_pwr.c ****               from Low power sleep mode. If the WFE instruction was used to enter Low power sleep m
 213:Drivers/STM32L0xx_HAL_Driver/Src/stm32l0xx_hal_pwr.c ****               the MCU exits Sleep mode as soon as an event occurs. 
 214:Drivers/STM32L0xx_HAL_Driver/Src/stm32l0xx_hal_pwr.c ****                 
 215:Drivers/STM32L0xx_HAL_Driver/Src/stm32l0xx_hal_pwr.c ****    *** Stop mode ***
 216:Drivers/STM32L0xx_HAL_Driver/Src/stm32l0xx_hal_pwr.c ****    =================
 217:Drivers/STM32L0xx_HAL_Driver/Src/stm32l0xx_hal_pwr.c ****     [..]
 218:Drivers/STM32L0xx_HAL_Driver/Src/stm32l0xx_hal_pwr.c ****       The Stop mode is based on the Cortex-M0+ deepsleep mode combined with peripheral
 219:Drivers/STM32L0xx_HAL_Driver/Src/stm32l0xx_hal_pwr.c ****       clock gating. The voltage regulator can be configured either in normal or low-power mode.
 220:Drivers/STM32L0xx_HAL_Driver/Src/stm32l0xx_hal_pwr.c ****       In Stop mode, all clocks in the VCORE domain are stopped, the PLL, the MSI, the HSI and
 221:Drivers/STM32L0xx_HAL_Driver/Src/stm32l0xx_hal_pwr.c ****       the HSE RC oscillators are disabled. Internal SRAM and register contents are preserved.
 222:Drivers/STM32L0xx_HAL_Driver/Src/stm32l0xx_hal_pwr.c ****       To get the lowest consumption in Stop mode, the internal Flash memory also enters low
 223:Drivers/STM32L0xx_HAL_Driver/Src/stm32l0xx_hal_pwr.c ****       power mode. When the Flash memory is in power-down mode, an additional startup delay is
 224:Drivers/STM32L0xx_HAL_Driver/Src/stm32l0xx_hal_pwr.c ****       incurred when waking up from Stop mode.
 225:Drivers/STM32L0xx_HAL_Driver/Src/stm32l0xx_hal_pwr.c ****       To minimize the consumption In Stop mode, VREFINT, the BOR, PVD, and temperature
ARM GAS  /tmp/cc1ege1D.s 			page 6


 226:Drivers/STM32L0xx_HAL_Driver/Src/stm32l0xx_hal_pwr.c ****       sensor can be switched off before entering Stop mode. They can be switched on again by
 227:Drivers/STM32L0xx_HAL_Driver/Src/stm32l0xx_hal_pwr.c ****       software after exiting Stop mode using the ULP bit in the PWR_CR register.
 228:Drivers/STM32L0xx_HAL_Driver/Src/stm32l0xx_hal_pwr.c ****       In Stop mode, all I/O pins keep the same state as in Run mode.
 229:Drivers/STM32L0xx_HAL_Driver/Src/stm32l0xx_hal_pwr.c **** 
 230:Drivers/STM32L0xx_HAL_Driver/Src/stm32l0xx_hal_pwr.c ****       (+) Entry:
 231:Drivers/STM32L0xx_HAL_Driver/Src/stm32l0xx_hal_pwr.c ****            The Stop mode is entered using the HAL_PWR_EnterSTOPMode
 232:Drivers/STM32L0xx_HAL_Driver/Src/stm32l0xx_hal_pwr.c ****              function with:
 233:Drivers/STM32L0xx_HAL_Driver/Src/stm32l0xx_hal_pwr.c ****           (++) Main regulator ON.
 234:Drivers/STM32L0xx_HAL_Driver/Src/stm32l0xx_hal_pwr.c ****           (++) Low Power regulator ON.
 235:Drivers/STM32L0xx_HAL_Driver/Src/stm32l0xx_hal_pwr.c ****           (++) PWR_SLEEPENTRY_WFI: enter SLEEP mode with WFI instruction
 236:Drivers/STM32L0xx_HAL_Driver/Src/stm32l0xx_hal_pwr.c ****           (++) PWR_SLEEPENTRY_WFE: enter SLEEP mode with WFE instruction
 237:Drivers/STM32L0xx_HAL_Driver/Src/stm32l0xx_hal_pwr.c ****       (+) Exit:
 238:Drivers/STM32L0xx_HAL_Driver/Src/stm32l0xx_hal_pwr.c ****         (++) By issuing an interrupt or a wakeup event, the MSI or HSI16 RC
 239:Drivers/STM32L0xx_HAL_Driver/Src/stm32l0xx_hal_pwr.c ****              oscillator is selected as system clock depending the bit STOPWUCK in the RCC_CFGR
 240:Drivers/STM32L0xx_HAL_Driver/Src/stm32l0xx_hal_pwr.c ****              register
 241:Drivers/STM32L0xx_HAL_Driver/Src/stm32l0xx_hal_pwr.c **** 
 242:Drivers/STM32L0xx_HAL_Driver/Src/stm32l0xx_hal_pwr.c ****    *** Standby mode ***
 243:Drivers/STM32L0xx_HAL_Driver/Src/stm32l0xx_hal_pwr.c ****    ====================
 244:Drivers/STM32L0xx_HAL_Driver/Src/stm32l0xx_hal_pwr.c ****      [..]
 245:Drivers/STM32L0xx_HAL_Driver/Src/stm32l0xx_hal_pwr.c ****       The Standby mode allows to achieve the lowest power consumption. It is based on the
 246:Drivers/STM32L0xx_HAL_Driver/Src/stm32l0xx_hal_pwr.c ****       Cortex-M0+ deepsleep mode, with the voltage regulator disabled. The VCORE domain is
 247:Drivers/STM32L0xx_HAL_Driver/Src/stm32l0xx_hal_pwr.c ****       consequently powered off. The PLL, the MSI, the HSI oscillator and the HSE oscillator are
 248:Drivers/STM32L0xx_HAL_Driver/Src/stm32l0xx_hal_pwr.c ****       also switched off. SRAM and register contents are lost except for the RTC registers, RTC
 249:Drivers/STM32L0xx_HAL_Driver/Src/stm32l0xx_hal_pwr.c ****       backup registers and Standby circuitry.
 250:Drivers/STM32L0xx_HAL_Driver/Src/stm32l0xx_hal_pwr.c ****       
 251:Drivers/STM32L0xx_HAL_Driver/Src/stm32l0xx_hal_pwr.c ****       To minimize the consumption In Standby mode, VREFINT, the BOR, PVD, and temperature
 252:Drivers/STM32L0xx_HAL_Driver/Src/stm32l0xx_hal_pwr.c ****        sensor can be switched off before entering the Standby mode. They can be switched 
 253:Drivers/STM32L0xx_HAL_Driver/Src/stm32l0xx_hal_pwr.c ****        on again by software after exiting the Standby mode.
 254:Drivers/STM32L0xx_HAL_Driver/Src/stm32l0xx_hal_pwr.c ****        function.
 255:Drivers/STM32L0xx_HAL_Driver/Src/stm32l0xx_hal_pwr.c ****       
 256:Drivers/STM32L0xx_HAL_Driver/Src/stm32l0xx_hal_pwr.c ****       (+) Entry:
 257:Drivers/STM32L0xx_HAL_Driver/Src/stm32l0xx_hal_pwr.c ****         (++) The Standby mode is entered using the HAL_PWR_EnterSTANDBYMode() function.
 258:Drivers/STM32L0xx_HAL_Driver/Src/stm32l0xx_hal_pwr.c ****       (+) Exit:
 259:Drivers/STM32L0xx_HAL_Driver/Src/stm32l0xx_hal_pwr.c ****         (++) WKUP pin rising edge, RTC alarm (Alarm A and Alarm B), RTC wakeup,
 260:Drivers/STM32L0xx_HAL_Driver/Src/stm32l0xx_hal_pwr.c ****              tamper event, time-stamp event, external reset in NRST pin, IWDG reset.
 261:Drivers/STM32L0xx_HAL_Driver/Src/stm32l0xx_hal_pwr.c **** 
 262:Drivers/STM32L0xx_HAL_Driver/Src/stm32l0xx_hal_pwr.c ****    *** Auto-wakeup (AWU) from low-power mode ***
 263:Drivers/STM32L0xx_HAL_Driver/Src/stm32l0xx_hal_pwr.c ****    =============================================
 264:Drivers/STM32L0xx_HAL_Driver/Src/stm32l0xx_hal_pwr.c ****     [..]
 265:Drivers/STM32L0xx_HAL_Driver/Src/stm32l0xx_hal_pwr.c ****       The MCU can be woken up from low-power mode by an RTC Alarm event, an RTC 
 266:Drivers/STM32L0xx_HAL_Driver/Src/stm32l0xx_hal_pwr.c ****       Wakeup event, a tamper event, a time-stamp event, or a comparator event, 
 267:Drivers/STM32L0xx_HAL_Driver/Src/stm32l0xx_hal_pwr.c ****       without depending on an external interrupt (Auto-wakeup mode).
 268:Drivers/STM32L0xx_HAL_Driver/Src/stm32l0xx_hal_pwr.c **** 
 269:Drivers/STM32L0xx_HAL_Driver/Src/stm32l0xx_hal_pwr.c ****     (+) RTC auto-wakeup (AWU) from the Stop mode
 270:Drivers/STM32L0xx_HAL_Driver/Src/stm32l0xx_hal_pwr.c ****         (++) To wake up from the Stop mode with an RTC alarm event, it is necessary to:
 271:Drivers/STM32L0xx_HAL_Driver/Src/stm32l0xx_hal_pwr.c ****              (+++) Configure the EXTI Line 17 to be sensitive to rising edges (Interrupt 
 272:Drivers/STM32L0xx_HAL_Driver/Src/stm32l0xx_hal_pwr.c ****                    or Event modes) using the EXTI_Init() function.
 273:Drivers/STM32L0xx_HAL_Driver/Src/stm32l0xx_hal_pwr.c ****              (+++) Enable the RTC Alarm Interrupt using the RTC_ITConfig() function
 274:Drivers/STM32L0xx_HAL_Driver/Src/stm32l0xx_hal_pwr.c ****              (+++) Configure the RTC to generate the RTC alarm using the RTC_SetAlarm() 
 275:Drivers/STM32L0xx_HAL_Driver/Src/stm32l0xx_hal_pwr.c ****                    and RTC_AlarmCmd() functions.
 276:Drivers/STM32L0xx_HAL_Driver/Src/stm32l0xx_hal_pwr.c ****         (++) To wake up from the Stop mode with an RTC Tamper or time stamp event, it 
 277:Drivers/STM32L0xx_HAL_Driver/Src/stm32l0xx_hal_pwr.c ****              is necessary to:
 278:Drivers/STM32L0xx_HAL_Driver/Src/stm32l0xx_hal_pwr.c ****              (+++) Configure the EXTI Line 19 to be sensitive to rising edges (Interrupt 
 279:Drivers/STM32L0xx_HAL_Driver/Src/stm32l0xx_hal_pwr.c ****                    or Event modes) using the EXTI_Init() function.
 280:Drivers/STM32L0xx_HAL_Driver/Src/stm32l0xx_hal_pwr.c ****              (+++) Enable the RTC Tamper or time stamp Interrupt using the RTC_ITConfig() 
 281:Drivers/STM32L0xx_HAL_Driver/Src/stm32l0xx_hal_pwr.c ****                    function.
 282:Drivers/STM32L0xx_HAL_Driver/Src/stm32l0xx_hal_pwr.c ****              (+++) Configure the RTC to detect the tamper or time stamp event using the
ARM GAS  /tmp/cc1ege1D.s 			page 7


 283:Drivers/STM32L0xx_HAL_Driver/Src/stm32l0xx_hal_pwr.c ****                    RTC_TimeStampConfig(), RTC_TamperTriggerConfig() and RTC_TamperCmd()
 284:Drivers/STM32L0xx_HAL_Driver/Src/stm32l0xx_hal_pwr.c ****                    functions.
 285:Drivers/STM32L0xx_HAL_Driver/Src/stm32l0xx_hal_pwr.c ****         (++) To wake up from the Stop mode with an RTC WakeUp event, it is necessary to:
 286:Drivers/STM32L0xx_HAL_Driver/Src/stm32l0xx_hal_pwr.c ****              (+++) Configure the EXTI Line 20 to be sensitive to rising edges (Interrupt 
 287:Drivers/STM32L0xx_HAL_Driver/Src/stm32l0xx_hal_pwr.c ****                    or Event modes) using the EXTI_Init() function.
 288:Drivers/STM32L0xx_HAL_Driver/Src/stm32l0xx_hal_pwr.c ****              (+++) Enable the RTC WakeUp Interrupt using the RTC_ITConfig() function.
 289:Drivers/STM32L0xx_HAL_Driver/Src/stm32l0xx_hal_pwr.c ****              (+++) Configure the RTC to generate the RTC WakeUp event using the RTC_WakeUpClockConf
 290:Drivers/STM32L0xx_HAL_Driver/Src/stm32l0xx_hal_pwr.c ****                    RTC_SetWakeUpCounter() and RTC_WakeUpCmd() functions.
 291:Drivers/STM32L0xx_HAL_Driver/Src/stm32l0xx_hal_pwr.c **** 
 292:Drivers/STM32L0xx_HAL_Driver/Src/stm32l0xx_hal_pwr.c ****     (+) RTC auto-wakeup (AWU) from the Standby mode
 293:Drivers/STM32L0xx_HAL_Driver/Src/stm32l0xx_hal_pwr.c ****         (++) To wake up from the Standby mode with an RTC alarm event, it is necessary to:
 294:Drivers/STM32L0xx_HAL_Driver/Src/stm32l0xx_hal_pwr.c ****              (+++) Enable the RTC Alarm Interrupt using the RTC_ITConfig() function.
 295:Drivers/STM32L0xx_HAL_Driver/Src/stm32l0xx_hal_pwr.c ****              (+++) Configure the RTC to generate the RTC alarm using the RTC_SetAlarm() 
 296:Drivers/STM32L0xx_HAL_Driver/Src/stm32l0xx_hal_pwr.c ****                    and RTC_AlarmCmd() functions.
 297:Drivers/STM32L0xx_HAL_Driver/Src/stm32l0xx_hal_pwr.c ****         (++) To wake up from the Standby mode with an RTC Tamper or time stamp event, it 
 298:Drivers/STM32L0xx_HAL_Driver/Src/stm32l0xx_hal_pwr.c ****              is necessary to:
 299:Drivers/STM32L0xx_HAL_Driver/Src/stm32l0xx_hal_pwr.c ****              (+++) Enable the RTC Tamper or time stamp Interrupt using the RTC_ITConfig() 
 300:Drivers/STM32L0xx_HAL_Driver/Src/stm32l0xx_hal_pwr.c ****                    function.
 301:Drivers/STM32L0xx_HAL_Driver/Src/stm32l0xx_hal_pwr.c ****              (+++) Configure the RTC to detect the tamper or time stamp event using the
 302:Drivers/STM32L0xx_HAL_Driver/Src/stm32l0xx_hal_pwr.c ****                    RTC_TimeStampConfig(), RTC_TamperTriggerConfig() and RTC_TamperCmd()
 303:Drivers/STM32L0xx_HAL_Driver/Src/stm32l0xx_hal_pwr.c ****                    functions.
 304:Drivers/STM32L0xx_HAL_Driver/Src/stm32l0xx_hal_pwr.c ****         (++) To wake up from the Standby mode with an RTC WakeUp event, it is necessary to:
 305:Drivers/STM32L0xx_HAL_Driver/Src/stm32l0xx_hal_pwr.c ****              (+++) Enable the RTC WakeUp Interrupt using the RTC_ITConfig() function
 306:Drivers/STM32L0xx_HAL_Driver/Src/stm32l0xx_hal_pwr.c ****              (+++) Configure the RTC to generate the RTC WakeUp event using the RTC_WakeUpClockConf
 307:Drivers/STM32L0xx_HAL_Driver/Src/stm32l0xx_hal_pwr.c ****                    RTC_SetWakeUpCounter() and RTC_WakeUpCmd() functions.
 308:Drivers/STM32L0xx_HAL_Driver/Src/stm32l0xx_hal_pwr.c **** 
 309:Drivers/STM32L0xx_HAL_Driver/Src/stm32l0xx_hal_pwr.c ****     (+) Comparator auto-wakeup (AWU) from the Stop mode
 310:Drivers/STM32L0xx_HAL_Driver/Src/stm32l0xx_hal_pwr.c ****         (++) To wake up from the Stop mode with an comparator 1 or comparator 2 wakeup
 311:Drivers/STM32L0xx_HAL_Driver/Src/stm32l0xx_hal_pwr.c ****              event, it is necessary to:
 312:Drivers/STM32L0xx_HAL_Driver/Src/stm32l0xx_hal_pwr.c ****              (+++) Configure the EXTI Line 21 for comparator 1 or EXTI Line 22 for comparator 2 
 313:Drivers/STM32L0xx_HAL_Driver/Src/stm32l0xx_hal_pwr.c ****                    to be sensitive to to the selected edges (falling, rising or falling 
 314:Drivers/STM32L0xx_HAL_Driver/Src/stm32l0xx_hal_pwr.c ****                    and rising) (Interrupt or Event modes) using the EXTI_Init() function.
 315:Drivers/STM32L0xx_HAL_Driver/Src/stm32l0xx_hal_pwr.c ****              (+++) Configure the comparator to generate the event.      
 316:Drivers/STM32L0xx_HAL_Driver/Src/stm32l0xx_hal_pwr.c **** @endverbatim
 317:Drivers/STM32L0xx_HAL_Driver/Src/stm32l0xx_hal_pwr.c ****   * @{
 318:Drivers/STM32L0xx_HAL_Driver/Src/stm32l0xx_hal_pwr.c ****   */
 319:Drivers/STM32L0xx_HAL_Driver/Src/stm32l0xx_hal_pwr.c **** 
 320:Drivers/STM32L0xx_HAL_Driver/Src/stm32l0xx_hal_pwr.c **** /**
 321:Drivers/STM32L0xx_HAL_Driver/Src/stm32l0xx_hal_pwr.c ****   * @brief Enables access to the backup domain (RTC registers, RTC
 322:Drivers/STM32L0xx_HAL_Driver/Src/stm32l0xx_hal_pwr.c ****   *         backup data registers ).
 323:Drivers/STM32L0xx_HAL_Driver/Src/stm32l0xx_hal_pwr.c ****   * @note   If the HSE divided by 2, 4, 8 or 16 is used as the RTC clock, the
 324:Drivers/STM32L0xx_HAL_Driver/Src/stm32l0xx_hal_pwr.c ****   *         Backup Domain Access should be kept enabled.
 325:Drivers/STM32L0xx_HAL_Driver/Src/stm32l0xx_hal_pwr.c ****   * @retval None
 326:Drivers/STM32L0xx_HAL_Driver/Src/stm32l0xx_hal_pwr.c ****   */
 327:Drivers/STM32L0xx_HAL_Driver/Src/stm32l0xx_hal_pwr.c **** void HAL_PWR_EnableBkUpAccess(void)
 328:Drivers/STM32L0xx_HAL_Driver/Src/stm32l0xx_hal_pwr.c **** {
  64              		.loc 1 328 1 is_stmt 1 view -0
  65              		.cfi_startproc
  66              		@ args = 0, pretend = 0, frame = 0
  67              		@ frame_needed = 0, uses_anonymous_args = 0
  68              		@ link register save eliminated.
 329:Drivers/STM32L0xx_HAL_Driver/Src/stm32l0xx_hal_pwr.c ****   /* Enable access to RTC and backup registers */
 330:Drivers/STM32L0xx_HAL_Driver/Src/stm32l0xx_hal_pwr.c ****   SET_BIT(PWR->CR, PWR_CR_DBP);
  69              		.loc 1 330 3 view .LVU5
  70 0000 034A     		ldr	r2, .L5
  71 0002 1168     		ldr	r1, [r2]
  72 0004 8023     		movs	r3, #128
ARM GAS  /tmp/cc1ege1D.s 			page 8


  73 0006 5B00     		lsls	r3, r3, #1
  74 0008 0B43     		orrs	r3, r1
  75 000a 1360     		str	r3, [r2]
 331:Drivers/STM32L0xx_HAL_Driver/Src/stm32l0xx_hal_pwr.c **** }
  76              		.loc 1 331 1 is_stmt 0 view .LVU6
  77              		@ sp needed
  78 000c 7047     		bx	lr
  79              	.L6:
  80 000e C046     		.align	2
  81              	.L5:
  82 0010 00700040 		.word	1073770496
  83              		.cfi_endproc
  84              	.LFE35:
  86              		.section	.text.HAL_PWR_DisableBkUpAccess,"ax",%progbits
  87              		.align	1
  88              		.global	HAL_PWR_DisableBkUpAccess
  89              		.syntax unified
  90              		.code	16
  91              		.thumb_func
  93              	HAL_PWR_DisableBkUpAccess:
  94              	.LFB36:
 332:Drivers/STM32L0xx_HAL_Driver/Src/stm32l0xx_hal_pwr.c **** 
 333:Drivers/STM32L0xx_HAL_Driver/Src/stm32l0xx_hal_pwr.c **** /**
 334:Drivers/STM32L0xx_HAL_Driver/Src/stm32l0xx_hal_pwr.c ****   * @brief  Disables access to the backup domain 
 335:Drivers/STM32L0xx_HAL_Driver/Src/stm32l0xx_hal_pwr.c ****   * @note   Applies to RTC registers, RTC backup data registers.
 336:Drivers/STM32L0xx_HAL_Driver/Src/stm32l0xx_hal_pwr.c ****   * @note   If the HSE divided by 2, 4, 8 or 16 is used as the RTC clock, the
 337:Drivers/STM32L0xx_HAL_Driver/Src/stm32l0xx_hal_pwr.c ****   *         Backup Domain Access should be kept enabled.
 338:Drivers/STM32L0xx_HAL_Driver/Src/stm32l0xx_hal_pwr.c ****   * @retval None
 339:Drivers/STM32L0xx_HAL_Driver/Src/stm32l0xx_hal_pwr.c ****   */
 340:Drivers/STM32L0xx_HAL_Driver/Src/stm32l0xx_hal_pwr.c **** void HAL_PWR_DisableBkUpAccess(void)
 341:Drivers/STM32L0xx_HAL_Driver/Src/stm32l0xx_hal_pwr.c **** {
  95              		.loc 1 341 1 is_stmt 1 view -0
  96              		.cfi_startproc
  97              		@ args = 0, pretend = 0, frame = 0
  98              		@ frame_needed = 0, uses_anonymous_args = 0
  99              		@ link register save eliminated.
 342:Drivers/STM32L0xx_HAL_Driver/Src/stm32l0xx_hal_pwr.c ****   /* Disable access to RTC and backup registers */
 343:Drivers/STM32L0xx_HAL_Driver/Src/stm32l0xx_hal_pwr.c ****   CLEAR_BIT(PWR->CR, PWR_CR_DBP);
 100              		.loc 1 343 3 view .LVU8
 101 0000 024A     		ldr	r2, .L8
 102 0002 1368     		ldr	r3, [r2]
 103 0004 0249     		ldr	r1, .L8+4
 104 0006 0B40     		ands	r3, r1
 105 0008 1360     		str	r3, [r2]
 344:Drivers/STM32L0xx_HAL_Driver/Src/stm32l0xx_hal_pwr.c **** }
 106              		.loc 1 344 1 is_stmt 0 view .LVU9
 107              		@ sp needed
 108 000a 7047     		bx	lr
 109              	.L9:
 110              		.align	2
 111              	.L8:
 112 000c 00700040 		.word	1073770496
 113 0010 FFFEFFFF 		.word	-257
 114              		.cfi_endproc
 115              	.LFE36:
 117              		.section	.text.HAL_PWR_ConfigPVD,"ax",%progbits
 118              		.align	1
ARM GAS  /tmp/cc1ege1D.s 			page 9


 119              		.global	HAL_PWR_ConfigPVD
 120              		.syntax unified
 121              		.code	16
 122              		.thumb_func
 124              	HAL_PWR_ConfigPVD:
 125              	.LVL0:
 126              	.LFB37:
 345:Drivers/STM32L0xx_HAL_Driver/Src/stm32l0xx_hal_pwr.c **** 
 346:Drivers/STM32L0xx_HAL_Driver/Src/stm32l0xx_hal_pwr.c **** #if defined(PWR_PVD_SUPPORT)
 347:Drivers/STM32L0xx_HAL_Driver/Src/stm32l0xx_hal_pwr.c **** /**
 348:Drivers/STM32L0xx_HAL_Driver/Src/stm32l0xx_hal_pwr.c ****   * @brief  Configures the voltage threshold detected by the Power Voltage Detector(PVD).
 349:Drivers/STM32L0xx_HAL_Driver/Src/stm32l0xx_hal_pwr.c ****   * @param  sConfigPVD pointer to an PWR_PVDTypeDef structure that contains the configuration
 350:Drivers/STM32L0xx_HAL_Driver/Src/stm32l0xx_hal_pwr.c ****   *         information for the PVD.
 351:Drivers/STM32L0xx_HAL_Driver/Src/stm32l0xx_hal_pwr.c ****   * @note   Refer to the electrical characteristics of your device datasheet for
 352:Drivers/STM32L0xx_HAL_Driver/Src/stm32l0xx_hal_pwr.c ****   *         more details about the voltage threshold corresponding to each
 353:Drivers/STM32L0xx_HAL_Driver/Src/stm32l0xx_hal_pwr.c ****   *         detection level.
 354:Drivers/STM32L0xx_HAL_Driver/Src/stm32l0xx_hal_pwr.c ****   * @retval None
 355:Drivers/STM32L0xx_HAL_Driver/Src/stm32l0xx_hal_pwr.c ****   */
 356:Drivers/STM32L0xx_HAL_Driver/Src/stm32l0xx_hal_pwr.c **** void HAL_PWR_ConfigPVD(PWR_PVDTypeDef *sConfigPVD)
 357:Drivers/STM32L0xx_HAL_Driver/Src/stm32l0xx_hal_pwr.c **** {
 127              		.loc 1 357 1 is_stmt 1 view -0
 128              		.cfi_startproc
 129              		@ args = 0, pretend = 0, frame = 0
 130              		@ frame_needed = 0, uses_anonymous_args = 0
 131              		@ link register save eliminated.
 358:Drivers/STM32L0xx_HAL_Driver/Src/stm32l0xx_hal_pwr.c ****   /* Check the parameters */
 359:Drivers/STM32L0xx_HAL_Driver/Src/stm32l0xx_hal_pwr.c ****   assert_param(IS_PWR_PVD_LEVEL(sConfigPVD->PVDLevel));
 132              		.loc 1 359 3 view .LVU11
 360:Drivers/STM32L0xx_HAL_Driver/Src/stm32l0xx_hal_pwr.c ****   assert_param(IS_PWR_PVD_MODE(sConfigPVD->Mode));
 133              		.loc 1 360 3 view .LVU12
 361:Drivers/STM32L0xx_HAL_Driver/Src/stm32l0xx_hal_pwr.c **** 
 362:Drivers/STM32L0xx_HAL_Driver/Src/stm32l0xx_hal_pwr.c ****   /* Set PLS[7:5] bits according to PVDLevel value */
 363:Drivers/STM32L0xx_HAL_Driver/Src/stm32l0xx_hal_pwr.c ****   MODIFY_REG(PWR->CR, PWR_CR_PLS, sConfigPVD->PVDLevel);
 134              		.loc 1 363 3 view .LVU13
 135 0000 1C4A     		ldr	r2, .L15
 136 0002 1368     		ldr	r3, [r2]
 137 0004 E021     		movs	r1, #224
 138 0006 8B43     		bics	r3, r1
 139 0008 0168     		ldr	r1, [r0]
 140 000a 0B43     		orrs	r3, r1
 141 000c 1360     		str	r3, [r2]
 364:Drivers/STM32L0xx_HAL_Driver/Src/stm32l0xx_hal_pwr.c ****   
 365:Drivers/STM32L0xx_HAL_Driver/Src/stm32l0xx_hal_pwr.c ****   /* Clear any previous config. Keep it clear if no event or IT mode is selected */
 366:Drivers/STM32L0xx_HAL_Driver/Src/stm32l0xx_hal_pwr.c ****   __HAL_PWR_PVD_EXTI_DISABLE_EVENT();
 142              		.loc 1 366 3 view .LVU14
 143 000e 1A4B     		ldr	r3, .L15+4
 144 0010 5968     		ldr	r1, [r3, #4]
 145 0012 1A4A     		ldr	r2, .L15+8
 146 0014 1140     		ands	r1, r2
 147 0016 5960     		str	r1, [r3, #4]
 367:Drivers/STM32L0xx_HAL_Driver/Src/stm32l0xx_hal_pwr.c ****   __HAL_PWR_PVD_EXTI_DISABLE_IT();
 148              		.loc 1 367 3 view .LVU15
 149 0018 1968     		ldr	r1, [r3]
 150 001a 1140     		ands	r1, r2
 151 001c 1960     		str	r1, [r3]
 368:Drivers/STM32L0xx_HAL_Driver/Src/stm32l0xx_hal_pwr.c ****   __HAL_PWR_PVD_EXTI_DISABLE_FALLING_EDGE(); 
 152              		.loc 1 368 3 view .LVU16
ARM GAS  /tmp/cc1ege1D.s 			page 10


 153 001e D968     		ldr	r1, [r3, #12]
 154 0020 1140     		ands	r1, r2
 155 0022 D960     		str	r1, [r3, #12]
 369:Drivers/STM32L0xx_HAL_Driver/Src/stm32l0xx_hal_pwr.c ****   __HAL_PWR_PVD_EXTI_DISABLE_RISING_EDGE();
 156              		.loc 1 369 3 view .LVU17
 157 0024 9968     		ldr	r1, [r3, #8]
 158 0026 0A40     		ands	r2, r1
 159 0028 9A60     		str	r2, [r3, #8]
 370:Drivers/STM32L0xx_HAL_Driver/Src/stm32l0xx_hal_pwr.c **** 
 371:Drivers/STM32L0xx_HAL_Driver/Src/stm32l0xx_hal_pwr.c ****   /* Configure interrupt mode */
 372:Drivers/STM32L0xx_HAL_Driver/Src/stm32l0xx_hal_pwr.c ****   if((sConfigPVD->Mode & PVD_MODE_IT) == PVD_MODE_IT)
 160              		.loc 1 372 3 view .LVU18
 161              		.loc 1 372 5 is_stmt 0 view .LVU19
 162 002a 4368     		ldr	r3, [r0, #4]
 163 002c DB03     		lsls	r3, r3, #15
 164 002e 05D5     		bpl	.L11
 373:Drivers/STM32L0xx_HAL_Driver/Src/stm32l0xx_hal_pwr.c ****   {
 374:Drivers/STM32L0xx_HAL_Driver/Src/stm32l0xx_hal_pwr.c ****     __HAL_PWR_PVD_EXTI_ENABLE_IT();
 165              		.loc 1 374 5 is_stmt 1 view .LVU20
 166 0030 114A     		ldr	r2, .L15+4
 167 0032 1168     		ldr	r1, [r2]
 168 0034 8023     		movs	r3, #128
 169 0036 5B02     		lsls	r3, r3, #9
 170 0038 0B43     		orrs	r3, r1
 171 003a 1360     		str	r3, [r2]
 172              	.L11:
 375:Drivers/STM32L0xx_HAL_Driver/Src/stm32l0xx_hal_pwr.c ****   }
 376:Drivers/STM32L0xx_HAL_Driver/Src/stm32l0xx_hal_pwr.c ****   
 377:Drivers/STM32L0xx_HAL_Driver/Src/stm32l0xx_hal_pwr.c ****   /* Configure event mode */
 378:Drivers/STM32L0xx_HAL_Driver/Src/stm32l0xx_hal_pwr.c ****   if((sConfigPVD->Mode & PVD_MODE_EVT) == PVD_MODE_EVT)
 173              		.loc 1 378 3 view .LVU21
 174              		.loc 1 378 5 is_stmt 0 view .LVU22
 175 003c 4368     		ldr	r3, [r0, #4]
 176 003e 9B03     		lsls	r3, r3, #14
 177 0040 05D5     		bpl	.L12
 379:Drivers/STM32L0xx_HAL_Driver/Src/stm32l0xx_hal_pwr.c ****   {
 380:Drivers/STM32L0xx_HAL_Driver/Src/stm32l0xx_hal_pwr.c ****     __HAL_PWR_PVD_EXTI_ENABLE_EVENT();
 178              		.loc 1 380 5 is_stmt 1 view .LVU23
 179 0042 0D4A     		ldr	r2, .L15+4
 180 0044 5168     		ldr	r1, [r2, #4]
 181 0046 8023     		movs	r3, #128
 182 0048 5B02     		lsls	r3, r3, #9
 183 004a 0B43     		orrs	r3, r1
 184 004c 5360     		str	r3, [r2, #4]
 185              	.L12:
 381:Drivers/STM32L0xx_HAL_Driver/Src/stm32l0xx_hal_pwr.c ****   }
 382:Drivers/STM32L0xx_HAL_Driver/Src/stm32l0xx_hal_pwr.c ****   
 383:Drivers/STM32L0xx_HAL_Driver/Src/stm32l0xx_hal_pwr.c ****   /* Configure the edge */
 384:Drivers/STM32L0xx_HAL_Driver/Src/stm32l0xx_hal_pwr.c ****   if((sConfigPVD->Mode & PVD_RISING_EDGE) == PVD_RISING_EDGE)
 186              		.loc 1 384 3 view .LVU24
 187              		.loc 1 384 5 is_stmt 0 view .LVU25
 188 004e 4368     		ldr	r3, [r0, #4]
 189 0050 DB07     		lsls	r3, r3, #31
 190 0052 05D5     		bpl	.L13
 385:Drivers/STM32L0xx_HAL_Driver/Src/stm32l0xx_hal_pwr.c ****   {
 386:Drivers/STM32L0xx_HAL_Driver/Src/stm32l0xx_hal_pwr.c ****     __HAL_PWR_PVD_EXTI_ENABLE_RISING_EDGE();
 191              		.loc 1 386 5 is_stmt 1 view .LVU26
ARM GAS  /tmp/cc1ege1D.s 			page 11


 192 0054 084A     		ldr	r2, .L15+4
 193 0056 9168     		ldr	r1, [r2, #8]
 194 0058 8023     		movs	r3, #128
 195 005a 5B02     		lsls	r3, r3, #9
 196 005c 0B43     		orrs	r3, r1
 197 005e 9360     		str	r3, [r2, #8]
 198              	.L13:
 387:Drivers/STM32L0xx_HAL_Driver/Src/stm32l0xx_hal_pwr.c ****   }
 388:Drivers/STM32L0xx_HAL_Driver/Src/stm32l0xx_hal_pwr.c ****   
 389:Drivers/STM32L0xx_HAL_Driver/Src/stm32l0xx_hal_pwr.c ****   if((sConfigPVD->Mode & PVD_FALLING_EDGE) == PVD_FALLING_EDGE)
 199              		.loc 1 389 3 view .LVU27
 200              		.loc 1 389 17 is_stmt 0 view .LVU28
 201 0060 4368     		ldr	r3, [r0, #4]
 202              		.loc 1 389 5 view .LVU29
 203 0062 9B07     		lsls	r3, r3, #30
 204 0064 05D5     		bpl	.L10
 390:Drivers/STM32L0xx_HAL_Driver/Src/stm32l0xx_hal_pwr.c ****   {
 391:Drivers/STM32L0xx_HAL_Driver/Src/stm32l0xx_hal_pwr.c ****     __HAL_PWR_PVD_EXTI_ENABLE_FALLING_EDGE();
 205              		.loc 1 391 5 is_stmt 1 view .LVU30
 206 0066 044A     		ldr	r2, .L15+4
 207 0068 D168     		ldr	r1, [r2, #12]
 208 006a 8023     		movs	r3, #128
 209 006c 5B02     		lsls	r3, r3, #9
 210 006e 0B43     		orrs	r3, r1
 211 0070 D360     		str	r3, [r2, #12]
 212              	.L10:
 392:Drivers/STM32L0xx_HAL_Driver/Src/stm32l0xx_hal_pwr.c ****   }
 393:Drivers/STM32L0xx_HAL_Driver/Src/stm32l0xx_hal_pwr.c **** }
 213              		.loc 1 393 1 is_stmt 0 view .LVU31
 214              		@ sp needed
 215 0072 7047     		bx	lr
 216              	.L16:
 217              		.align	2
 218              	.L15:
 219 0074 00700040 		.word	1073770496
 220 0078 00040140 		.word	1073808384
 221 007c FFFFFEFF 		.word	-65537
 222              		.cfi_endproc
 223              	.LFE37:
 225              		.section	.text.HAL_PWR_EnablePVD,"ax",%progbits
 226              		.align	1
 227              		.global	HAL_PWR_EnablePVD
 228              		.syntax unified
 229              		.code	16
 230              		.thumb_func
 232              	HAL_PWR_EnablePVD:
 233              	.LFB38:
 394:Drivers/STM32L0xx_HAL_Driver/Src/stm32l0xx_hal_pwr.c **** 
 395:Drivers/STM32L0xx_HAL_Driver/Src/stm32l0xx_hal_pwr.c **** /**
 396:Drivers/STM32L0xx_HAL_Driver/Src/stm32l0xx_hal_pwr.c ****   * @brief Enables the Power Voltage Detector(PVD).
 397:Drivers/STM32L0xx_HAL_Driver/Src/stm32l0xx_hal_pwr.c ****   * @retval None
 398:Drivers/STM32L0xx_HAL_Driver/Src/stm32l0xx_hal_pwr.c ****   */
 399:Drivers/STM32L0xx_HAL_Driver/Src/stm32l0xx_hal_pwr.c **** void HAL_PWR_EnablePVD(void)
 400:Drivers/STM32L0xx_HAL_Driver/Src/stm32l0xx_hal_pwr.c **** {
 234              		.loc 1 400 1 is_stmt 1 view -0
 235              		.cfi_startproc
 236              		@ args = 0, pretend = 0, frame = 0
ARM GAS  /tmp/cc1ege1D.s 			page 12


 237              		@ frame_needed = 0, uses_anonymous_args = 0
 238              		@ link register save eliminated.
 401:Drivers/STM32L0xx_HAL_Driver/Src/stm32l0xx_hal_pwr.c ****   /* Enable the power voltage detector */
 402:Drivers/STM32L0xx_HAL_Driver/Src/stm32l0xx_hal_pwr.c ****   SET_BIT(PWR->CR, PWR_CR_PVDE);
 239              		.loc 1 402 3 view .LVU33
 240 0000 024A     		ldr	r2, .L18
 241 0002 1368     		ldr	r3, [r2]
 242 0004 1021     		movs	r1, #16
 243 0006 0B43     		orrs	r3, r1
 244 0008 1360     		str	r3, [r2]
 403:Drivers/STM32L0xx_HAL_Driver/Src/stm32l0xx_hal_pwr.c **** }
 245              		.loc 1 403 1 is_stmt 0 view .LVU34
 246              		@ sp needed
 247 000a 7047     		bx	lr
 248              	.L19:
 249              		.align	2
 250              	.L18:
 251 000c 00700040 		.word	1073770496
 252              		.cfi_endproc
 253              	.LFE38:
 255              		.section	.text.HAL_PWR_DisablePVD,"ax",%progbits
 256              		.align	1
 257              		.global	HAL_PWR_DisablePVD
 258              		.syntax unified
 259              		.code	16
 260              		.thumb_func
 262              	HAL_PWR_DisablePVD:
 263              	.LFB39:
 404:Drivers/STM32L0xx_HAL_Driver/Src/stm32l0xx_hal_pwr.c **** 
 405:Drivers/STM32L0xx_HAL_Driver/Src/stm32l0xx_hal_pwr.c **** /**
 406:Drivers/STM32L0xx_HAL_Driver/Src/stm32l0xx_hal_pwr.c ****   * @brief Disables the Power Voltage Detector(PVD).
 407:Drivers/STM32L0xx_HAL_Driver/Src/stm32l0xx_hal_pwr.c ****   * @retval None
 408:Drivers/STM32L0xx_HAL_Driver/Src/stm32l0xx_hal_pwr.c ****   */
 409:Drivers/STM32L0xx_HAL_Driver/Src/stm32l0xx_hal_pwr.c **** void HAL_PWR_DisablePVD(void)
 410:Drivers/STM32L0xx_HAL_Driver/Src/stm32l0xx_hal_pwr.c **** {
 264              		.loc 1 410 1 is_stmt 1 view -0
 265              		.cfi_startproc
 266              		@ args = 0, pretend = 0, frame = 0
 267              		@ frame_needed = 0, uses_anonymous_args = 0
 268              		@ link register save eliminated.
 411:Drivers/STM32L0xx_HAL_Driver/Src/stm32l0xx_hal_pwr.c ****   /* Disable the power voltage detector */
 412:Drivers/STM32L0xx_HAL_Driver/Src/stm32l0xx_hal_pwr.c ****   CLEAR_BIT(PWR->CR, PWR_CR_PVDE);
 269              		.loc 1 412 3 view .LVU36
 270 0000 024A     		ldr	r2, .L21
 271 0002 1368     		ldr	r3, [r2]
 272 0004 1021     		movs	r1, #16
 273 0006 8B43     		bics	r3, r1
 274 0008 1360     		str	r3, [r2]
 413:Drivers/STM32L0xx_HAL_Driver/Src/stm32l0xx_hal_pwr.c **** }
 275              		.loc 1 413 1 is_stmt 0 view .LVU37
 276              		@ sp needed
 277 000a 7047     		bx	lr
 278              	.L22:
 279              		.align	2
 280              	.L21:
 281 000c 00700040 		.word	1073770496
 282              		.cfi_endproc
ARM GAS  /tmp/cc1ege1D.s 			page 13


 283              	.LFE39:
 285              		.section	.text.HAL_PWR_EnableWakeUpPin,"ax",%progbits
 286              		.align	1
 287              		.global	HAL_PWR_EnableWakeUpPin
 288              		.syntax unified
 289              		.code	16
 290              		.thumb_func
 292              	HAL_PWR_EnableWakeUpPin:
 293              	.LVL1:
 294              	.LFB40:
 414:Drivers/STM32L0xx_HAL_Driver/Src/stm32l0xx_hal_pwr.c **** #endif /* PWR_PVD_SUPPORT */
 415:Drivers/STM32L0xx_HAL_Driver/Src/stm32l0xx_hal_pwr.c **** 
 416:Drivers/STM32L0xx_HAL_Driver/Src/stm32l0xx_hal_pwr.c **** /**
 417:Drivers/STM32L0xx_HAL_Driver/Src/stm32l0xx_hal_pwr.c ****   * @brief Enables the WakeUp PINx functionality.
 418:Drivers/STM32L0xx_HAL_Driver/Src/stm32l0xx_hal_pwr.c ****   * @param WakeUpPinx: Specifies the Power Wake-Up pin to enable.
 419:Drivers/STM32L0xx_HAL_Driver/Src/stm32l0xx_hal_pwr.c ****   *         This parameter can be one of the following values:
 420:Drivers/STM32L0xx_HAL_Driver/Src/stm32l0xx_hal_pwr.c ****   *           @arg PWR_WAKEUP_PIN1
 421:Drivers/STM32L0xx_HAL_Driver/Src/stm32l0xx_hal_pwr.c ****   *           @arg PWR_WAKEUP_PIN2
 422:Drivers/STM32L0xx_HAL_Driver/Src/stm32l0xx_hal_pwr.c ****   *           @arg PWR_WAKEUP_PIN3 for stm32l07xxx and stm32l08xxx devices only.
 423:Drivers/STM32L0xx_HAL_Driver/Src/stm32l0xx_hal_pwr.c ****   * @retval None
 424:Drivers/STM32L0xx_HAL_Driver/Src/stm32l0xx_hal_pwr.c ****   */
 425:Drivers/STM32L0xx_HAL_Driver/Src/stm32l0xx_hal_pwr.c **** void HAL_PWR_EnableWakeUpPin(uint32_t WakeUpPinx)
 426:Drivers/STM32L0xx_HAL_Driver/Src/stm32l0xx_hal_pwr.c **** {
 295              		.loc 1 426 1 is_stmt 1 view -0
 296              		.cfi_startproc
 297              		@ args = 0, pretend = 0, frame = 0
 298              		@ frame_needed = 0, uses_anonymous_args = 0
 299              		@ link register save eliminated.
 427:Drivers/STM32L0xx_HAL_Driver/Src/stm32l0xx_hal_pwr.c ****   /* Check the parameter */
 428:Drivers/STM32L0xx_HAL_Driver/Src/stm32l0xx_hal_pwr.c ****   assert_param(IS_PWR_WAKEUP_PIN(WakeUpPinx));
 300              		.loc 1 428 3 view .LVU39
 429:Drivers/STM32L0xx_HAL_Driver/Src/stm32l0xx_hal_pwr.c ****   /* Enable the EWUPx pin */
 430:Drivers/STM32L0xx_HAL_Driver/Src/stm32l0xx_hal_pwr.c ****   SET_BIT(PWR->CSR, WakeUpPinx);
 301              		.loc 1 430 3 view .LVU40
 302 0000 024A     		ldr	r2, .L24
 303 0002 5368     		ldr	r3, [r2, #4]
 304 0004 0343     		orrs	r3, r0
 305 0006 5360     		str	r3, [r2, #4]
 431:Drivers/STM32L0xx_HAL_Driver/Src/stm32l0xx_hal_pwr.c **** }
 306              		.loc 1 431 1 is_stmt 0 view .LVU41
 307              		@ sp needed
 308 0008 7047     		bx	lr
 309              	.L25:
 310 000a C046     		.align	2
 311              	.L24:
 312 000c 00700040 		.word	1073770496
 313              		.cfi_endproc
 314              	.LFE40:
 316              		.section	.text.HAL_PWR_DisableWakeUpPin,"ax",%progbits
 317              		.align	1
 318              		.global	HAL_PWR_DisableWakeUpPin
 319              		.syntax unified
 320              		.code	16
 321              		.thumb_func
 323              	HAL_PWR_DisableWakeUpPin:
 324              	.LVL2:
 325              	.LFB41:
ARM GAS  /tmp/cc1ege1D.s 			page 14


 432:Drivers/STM32L0xx_HAL_Driver/Src/stm32l0xx_hal_pwr.c **** 
 433:Drivers/STM32L0xx_HAL_Driver/Src/stm32l0xx_hal_pwr.c **** /**
 434:Drivers/STM32L0xx_HAL_Driver/Src/stm32l0xx_hal_pwr.c ****   * @brief Disables the WakeUp PINx functionality.
 435:Drivers/STM32L0xx_HAL_Driver/Src/stm32l0xx_hal_pwr.c ****   * @param WakeUpPinx: Specifies the Power Wake-Up pin to disable.
 436:Drivers/STM32L0xx_HAL_Driver/Src/stm32l0xx_hal_pwr.c ****   *         This parameter can be one of the following values:
 437:Drivers/STM32L0xx_HAL_Driver/Src/stm32l0xx_hal_pwr.c ****   *           @arg PWR_WAKEUP_PIN1
 438:Drivers/STM32L0xx_HAL_Driver/Src/stm32l0xx_hal_pwr.c ****   *           @arg PWR_WAKEUP_PIN2  
 439:Drivers/STM32L0xx_HAL_Driver/Src/stm32l0xx_hal_pwr.c ****   *           @arg PWR_WAKEUP_PIN3  for stm32l07xxx and stm32l08xxx devices only.
 440:Drivers/STM32L0xx_HAL_Driver/Src/stm32l0xx_hal_pwr.c ****   * @retval None
 441:Drivers/STM32L0xx_HAL_Driver/Src/stm32l0xx_hal_pwr.c ****   */
 442:Drivers/STM32L0xx_HAL_Driver/Src/stm32l0xx_hal_pwr.c **** void HAL_PWR_DisableWakeUpPin(uint32_t WakeUpPinx)
 443:Drivers/STM32L0xx_HAL_Driver/Src/stm32l0xx_hal_pwr.c **** {
 326              		.loc 1 443 1 is_stmt 1 view -0
 327              		.cfi_startproc
 328              		@ args = 0, pretend = 0, frame = 0
 329              		@ frame_needed = 0, uses_anonymous_args = 0
 330              		@ link register save eliminated.
 444:Drivers/STM32L0xx_HAL_Driver/Src/stm32l0xx_hal_pwr.c ****   /* Check the parameter */
 445:Drivers/STM32L0xx_HAL_Driver/Src/stm32l0xx_hal_pwr.c ****   assert_param(IS_PWR_WAKEUP_PIN(WakeUpPinx));
 331              		.loc 1 445 3 view .LVU43
 446:Drivers/STM32L0xx_HAL_Driver/Src/stm32l0xx_hal_pwr.c ****   /* Disable the EWUPx pin */
 447:Drivers/STM32L0xx_HAL_Driver/Src/stm32l0xx_hal_pwr.c ****   CLEAR_BIT(PWR->CSR, WakeUpPinx);
 332              		.loc 1 447 3 view .LVU44
 333 0000 024A     		ldr	r2, .L27
 334 0002 5368     		ldr	r3, [r2, #4]
 335 0004 8343     		bics	r3, r0
 336 0006 5360     		str	r3, [r2, #4]
 448:Drivers/STM32L0xx_HAL_Driver/Src/stm32l0xx_hal_pwr.c **** }
 337              		.loc 1 448 1 is_stmt 0 view .LVU45
 338              		@ sp needed
 339 0008 7047     		bx	lr
 340              	.L28:
 341 000a C046     		.align	2
 342              	.L27:
 343 000c 00700040 		.word	1073770496
 344              		.cfi_endproc
 345              	.LFE41:
 347              		.section	.text.HAL_PWR_EnterSLEEPMode,"ax",%progbits
 348              		.align	1
 349              		.global	HAL_PWR_EnterSLEEPMode
 350              		.syntax unified
 351              		.code	16
 352              		.thumb_func
 354              	HAL_PWR_EnterSLEEPMode:
 355              	.LVL3:
 356              	.LFB42:
 449:Drivers/STM32L0xx_HAL_Driver/Src/stm32l0xx_hal_pwr.c **** 
 450:Drivers/STM32L0xx_HAL_Driver/Src/stm32l0xx_hal_pwr.c **** /**
 451:Drivers/STM32L0xx_HAL_Driver/Src/stm32l0xx_hal_pwr.c ****   * @brief Enters Sleep mode.
 452:Drivers/STM32L0xx_HAL_Driver/Src/stm32l0xx_hal_pwr.c ****   * @note In Sleep mode, all I/O pins keep the same state as in Run mode.
 453:Drivers/STM32L0xx_HAL_Driver/Src/stm32l0xx_hal_pwr.c ****   * @param Regulator: Specifies the regulator state in SLEEP mode.
 454:Drivers/STM32L0xx_HAL_Driver/Src/stm32l0xx_hal_pwr.c ****   *          This parameter can be one of the following values:
 455:Drivers/STM32L0xx_HAL_Driver/Src/stm32l0xx_hal_pwr.c ****   *            @arg PWR_MAINREGULATOR_ON: SLEEP mode with regulator ON
 456:Drivers/STM32L0xx_HAL_Driver/Src/stm32l0xx_hal_pwr.c ****   *            @arg PWR_LOWPOWERREGULATOR_ON: SLEEP mode with low power regulator ON
 457:Drivers/STM32L0xx_HAL_Driver/Src/stm32l0xx_hal_pwr.c ****   * @param SLEEPEntry: Specifies if SLEEP mode is entered with WFI or WFE instruction.
 458:Drivers/STM32L0xx_HAL_Driver/Src/stm32l0xx_hal_pwr.c ****   *           When WFI entry is used, tick interrupt have to be disabled if not desired as 
 459:Drivers/STM32L0xx_HAL_Driver/Src/stm32l0xx_hal_pwr.c ****   *           the interrupt wake up source.
ARM GAS  /tmp/cc1ege1D.s 			page 15


 460:Drivers/STM32L0xx_HAL_Driver/Src/stm32l0xx_hal_pwr.c ****   *           This parameter can be one of the following values:
 461:Drivers/STM32L0xx_HAL_Driver/Src/stm32l0xx_hal_pwr.c ****   *            @arg PWR_SLEEPENTRY_WFI: enter SLEEP mode with WFI instruction
 462:Drivers/STM32L0xx_HAL_Driver/Src/stm32l0xx_hal_pwr.c ****   *            @arg PWR_SLEEPENTRY_WFE: enter SLEEP mode with WFE instruction
 463:Drivers/STM32L0xx_HAL_Driver/Src/stm32l0xx_hal_pwr.c ****   * @retval None
 464:Drivers/STM32L0xx_HAL_Driver/Src/stm32l0xx_hal_pwr.c ****   */
 465:Drivers/STM32L0xx_HAL_Driver/Src/stm32l0xx_hal_pwr.c **** void HAL_PWR_EnterSLEEPMode(uint32_t Regulator, uint8_t SLEEPEntry)
 466:Drivers/STM32L0xx_HAL_Driver/Src/stm32l0xx_hal_pwr.c **** {
 357              		.loc 1 466 1 is_stmt 1 view -0
 358              		.cfi_startproc
 359              		@ args = 0, pretend = 0, frame = 0
 360              		@ frame_needed = 0, uses_anonymous_args = 0
 361              		.loc 1 466 1 is_stmt 0 view .LVU47
 362 0000 10B5     		push	{r4, lr}
 363              	.LCFI0:
 364              		.cfi_def_cfa_offset 8
 365              		.cfi_offset 4, -8
 366              		.cfi_offset 14, -4
 467:Drivers/STM32L0xx_HAL_Driver/Src/stm32l0xx_hal_pwr.c ****    uint32_t tmpreg = 0U;
 367              		.loc 1 467 4 is_stmt 1 view .LVU48
 368              	.LVL4:
 468:Drivers/STM32L0xx_HAL_Driver/Src/stm32l0xx_hal_pwr.c ****   /* Check the parameters */
 469:Drivers/STM32L0xx_HAL_Driver/Src/stm32l0xx_hal_pwr.c ****   assert_param(IS_PWR_REGULATOR(Regulator));
 369              		.loc 1 469 3 view .LVU49
 470:Drivers/STM32L0xx_HAL_Driver/Src/stm32l0xx_hal_pwr.c ****   assert_param(IS_PWR_SLEEP_ENTRY(SLEEPEntry));
 370              		.loc 1 470 3 view .LVU50
 471:Drivers/STM32L0xx_HAL_Driver/Src/stm32l0xx_hal_pwr.c **** 
 472:Drivers/STM32L0xx_HAL_Driver/Src/stm32l0xx_hal_pwr.c ****   /* Select the regulator state in Sleep mode ---------------------------------*/
 473:Drivers/STM32L0xx_HAL_Driver/Src/stm32l0xx_hal_pwr.c ****   tmpreg = PWR->CR;
 371              		.loc 1 473 3 view .LVU51
 372              		.loc 1 473 10 is_stmt 0 view .LVU52
 373 0002 0A4A     		ldr	r2, .L33
 374 0004 1368     		ldr	r3, [r2]
 375              	.LVL5:
 474:Drivers/STM32L0xx_HAL_Driver/Src/stm32l0xx_hal_pwr.c **** 
 475:Drivers/STM32L0xx_HAL_Driver/Src/stm32l0xx_hal_pwr.c ****   /* Clear PDDS and LPDS bits */
 476:Drivers/STM32L0xx_HAL_Driver/Src/stm32l0xx_hal_pwr.c ****   CLEAR_BIT(tmpreg, (PWR_CR_PDDS | PWR_CR_LPSDSR));
 376              		.loc 1 476 3 is_stmt 1 view .LVU53
 377 0006 0324     		movs	r4, #3
 378 0008 A343     		bics	r3, r4
 379              	.LVL6:
 477:Drivers/STM32L0xx_HAL_Driver/Src/stm32l0xx_hal_pwr.c **** 
 478:Drivers/STM32L0xx_HAL_Driver/Src/stm32l0xx_hal_pwr.c ****  /* Set LPSDSR bit according to PWR_Regulator value */
 479:Drivers/STM32L0xx_HAL_Driver/Src/stm32l0xx_hal_pwr.c ****   SET_BIT(tmpreg, Regulator);
 380              		.loc 1 479 3 view .LVU54
 381 000a 0343     		orrs	r3, r0
 382              	.LVL7:
 480:Drivers/STM32L0xx_HAL_Driver/Src/stm32l0xx_hal_pwr.c **** 
 481:Drivers/STM32L0xx_HAL_Driver/Src/stm32l0xx_hal_pwr.c ****   /* Store the new value */
 482:Drivers/STM32L0xx_HAL_Driver/Src/stm32l0xx_hal_pwr.c ****   PWR->CR = tmpreg;
 383              		.loc 1 482 3 view .LVU55
 384              		.loc 1 482 11 is_stmt 0 view .LVU56
 385 000c 1360     		str	r3, [r2]
 483:Drivers/STM32L0xx_HAL_Driver/Src/stm32l0xx_hal_pwr.c ****   
 484:Drivers/STM32L0xx_HAL_Driver/Src/stm32l0xx_hal_pwr.c ****   /* Clear SLEEPDEEP bit of Cortex System Control Register */
 485:Drivers/STM32L0xx_HAL_Driver/Src/stm32l0xx_hal_pwr.c ****   CLEAR_BIT(SCB->SCR, SCB_SCR_SLEEPDEEP_Msk);
 386              		.loc 1 485 3 is_stmt 1 view .LVU57
 387 000e 084A     		ldr	r2, .L33+4
ARM GAS  /tmp/cc1ege1D.s 			page 16


 388 0010 1369     		ldr	r3, [r2, #16]
 389              	.LVL8:
 390              		.loc 1 485 3 is_stmt 0 view .LVU58
 391 0012 0420     		movs	r0, #4
 392              	.LVL9:
 393              		.loc 1 485 3 view .LVU59
 394 0014 8343     		bics	r3, r0
 395 0016 1361     		str	r3, [r2, #16]
 396              	.LVL10:
 486:Drivers/STM32L0xx_HAL_Driver/Src/stm32l0xx_hal_pwr.c **** 
 487:Drivers/STM32L0xx_HAL_Driver/Src/stm32l0xx_hal_pwr.c ****   /* Select SLEEP mode entry -------------------------------------------------*/
 488:Drivers/STM32L0xx_HAL_Driver/Src/stm32l0xx_hal_pwr.c ****   if(SLEEPEntry == PWR_SLEEPENTRY_WFI)
 397              		.loc 1 488 3 is_stmt 1 view .LVU60
 398              		.loc 1 488 5 is_stmt 0 view .LVU61
 399 0018 0129     		cmp	r1, #1
 400 001a 04D0     		beq	.L32
 489:Drivers/STM32L0xx_HAL_Driver/Src/stm32l0xx_hal_pwr.c ****   {
 490:Drivers/STM32L0xx_HAL_Driver/Src/stm32l0xx_hal_pwr.c ****     /* Request Wait For Interrupt */
 491:Drivers/STM32L0xx_HAL_Driver/Src/stm32l0xx_hal_pwr.c ****     __WFI();
 492:Drivers/STM32L0xx_HAL_Driver/Src/stm32l0xx_hal_pwr.c ****   }
 493:Drivers/STM32L0xx_HAL_Driver/Src/stm32l0xx_hal_pwr.c ****   else
 494:Drivers/STM32L0xx_HAL_Driver/Src/stm32l0xx_hal_pwr.c ****   {
 495:Drivers/STM32L0xx_HAL_Driver/Src/stm32l0xx_hal_pwr.c ****     /* Request Wait For Event */
 496:Drivers/STM32L0xx_HAL_Driver/Src/stm32l0xx_hal_pwr.c ****     __SEV();
 401              		.loc 1 496 5 is_stmt 1 view .LVU62
 402              	.LBB22:
 403              	.LBI22:
 404              		.file 2 "Drivers/CMSIS/Include/cmsis_gcc.h"
   1:Drivers/CMSIS/Include/cmsis_gcc.h **** /**************************************************************************//**
   2:Drivers/CMSIS/Include/cmsis_gcc.h ****  * @file     cmsis_gcc.h
   3:Drivers/CMSIS/Include/cmsis_gcc.h ****  * @brief    CMSIS Cortex-M Core Function/Instruction Header File
   4:Drivers/CMSIS/Include/cmsis_gcc.h ****  * @version  V4.30
   5:Drivers/CMSIS/Include/cmsis_gcc.h ****  * @date     20. October 2015
   6:Drivers/CMSIS/Include/cmsis_gcc.h ****  ******************************************************************************/
   7:Drivers/CMSIS/Include/cmsis_gcc.h **** /* Copyright (c) 2009 - 2015 ARM LIMITED
   8:Drivers/CMSIS/Include/cmsis_gcc.h **** 
   9:Drivers/CMSIS/Include/cmsis_gcc.h ****    All rights reserved.
  10:Drivers/CMSIS/Include/cmsis_gcc.h ****    Redistribution and use in source and binary forms, with or without
  11:Drivers/CMSIS/Include/cmsis_gcc.h ****    modification, are permitted provided that the following conditions are met:
  12:Drivers/CMSIS/Include/cmsis_gcc.h ****    - Redistributions of source code must retain the above copyright
  13:Drivers/CMSIS/Include/cmsis_gcc.h ****      notice, this list of conditions and the following disclaimer.
  14:Drivers/CMSIS/Include/cmsis_gcc.h ****    - Redistributions in binary form must reproduce the above copyright
  15:Drivers/CMSIS/Include/cmsis_gcc.h ****      notice, this list of conditions and the following disclaimer in the
  16:Drivers/CMSIS/Include/cmsis_gcc.h ****      documentation and/or other materials provided with the distribution.
  17:Drivers/CMSIS/Include/cmsis_gcc.h ****    - Neither the name of ARM nor the names of its contributors may be used
  18:Drivers/CMSIS/Include/cmsis_gcc.h ****      to endorse or promote products derived from this software without
  19:Drivers/CMSIS/Include/cmsis_gcc.h ****      specific prior written permission.
  20:Drivers/CMSIS/Include/cmsis_gcc.h ****    *
  21:Drivers/CMSIS/Include/cmsis_gcc.h ****    THIS SOFTWARE IS PROVIDED BY THE COPYRIGHT HOLDERS AND CONTRIBUTORS "AS IS"
  22:Drivers/CMSIS/Include/cmsis_gcc.h ****    AND ANY EXPRESS OR IMPLIED WARRANTIES, INCLUDING, BUT NOT LIMITED TO, THE
  23:Drivers/CMSIS/Include/cmsis_gcc.h ****    IMPLIED WARRANTIES OF MERCHANTABILITY AND FITNESS FOR A PARTICULAR PURPOSE
  24:Drivers/CMSIS/Include/cmsis_gcc.h ****    ARE DISCLAIMED. IN NO EVENT SHALL COPYRIGHT HOLDERS AND CONTRIBUTORS BE
  25:Drivers/CMSIS/Include/cmsis_gcc.h ****    LIABLE FOR ANY DIRECT, INDIRECT, INCIDENTAL, SPECIAL, EXEMPLARY, OR
  26:Drivers/CMSIS/Include/cmsis_gcc.h ****    CONSEQUENTIAL DAMAGES (INCLUDING, BUT NOT LIMITED TO, PROCUREMENT OF
  27:Drivers/CMSIS/Include/cmsis_gcc.h ****    SUBSTITUTE GOODS OR SERVICES; LOSS OF USE, DATA, OR PROFITS; OR BUSINESS
  28:Drivers/CMSIS/Include/cmsis_gcc.h ****    INTERRUPTION) HOWEVER CAUSED AND ON ANY THEORY OF LIABILITY, WHETHER IN
  29:Drivers/CMSIS/Include/cmsis_gcc.h ****    CONTRACT, STRICT LIABILITY, OR TORT (INCLUDING NEGLIGENCE OR OTHERWISE)
ARM GAS  /tmp/cc1ege1D.s 			page 17


  30:Drivers/CMSIS/Include/cmsis_gcc.h ****    ARISING IN ANY WAY OUT OF THE USE OF THIS SOFTWARE, EVEN IF ADVISED OF THE
  31:Drivers/CMSIS/Include/cmsis_gcc.h ****    POSSIBILITY OF SUCH DAMAGE.
  32:Drivers/CMSIS/Include/cmsis_gcc.h ****    ---------------------------------------------------------------------------*/
  33:Drivers/CMSIS/Include/cmsis_gcc.h **** 
  34:Drivers/CMSIS/Include/cmsis_gcc.h **** 
  35:Drivers/CMSIS/Include/cmsis_gcc.h **** #ifndef __CMSIS_GCC_H
  36:Drivers/CMSIS/Include/cmsis_gcc.h **** #define __CMSIS_GCC_H
  37:Drivers/CMSIS/Include/cmsis_gcc.h **** 
  38:Drivers/CMSIS/Include/cmsis_gcc.h **** /* ignore some GCC warnings */
  39:Drivers/CMSIS/Include/cmsis_gcc.h **** #if defined ( __GNUC__ )
  40:Drivers/CMSIS/Include/cmsis_gcc.h **** #pragma GCC diagnostic push
  41:Drivers/CMSIS/Include/cmsis_gcc.h **** #pragma GCC diagnostic ignored "-Wsign-conversion"
  42:Drivers/CMSIS/Include/cmsis_gcc.h **** #pragma GCC diagnostic ignored "-Wconversion"
  43:Drivers/CMSIS/Include/cmsis_gcc.h **** #pragma GCC diagnostic ignored "-Wunused-parameter"
  44:Drivers/CMSIS/Include/cmsis_gcc.h **** #endif
  45:Drivers/CMSIS/Include/cmsis_gcc.h **** 
  46:Drivers/CMSIS/Include/cmsis_gcc.h **** 
  47:Drivers/CMSIS/Include/cmsis_gcc.h **** /* ###########################  Core Function Access  ########################### */
  48:Drivers/CMSIS/Include/cmsis_gcc.h **** /** \ingroup  CMSIS_Core_FunctionInterface
  49:Drivers/CMSIS/Include/cmsis_gcc.h ****     \defgroup CMSIS_Core_RegAccFunctions CMSIS Core Register Access Functions
  50:Drivers/CMSIS/Include/cmsis_gcc.h ****   @{
  51:Drivers/CMSIS/Include/cmsis_gcc.h ****  */
  52:Drivers/CMSIS/Include/cmsis_gcc.h **** 
  53:Drivers/CMSIS/Include/cmsis_gcc.h **** /**
  54:Drivers/CMSIS/Include/cmsis_gcc.h ****   \brief   Enable IRQ Interrupts
  55:Drivers/CMSIS/Include/cmsis_gcc.h ****   \details Enables IRQ interrupts by clearing the I-bit in the CPSR.
  56:Drivers/CMSIS/Include/cmsis_gcc.h ****            Can only be executed in Privileged modes.
  57:Drivers/CMSIS/Include/cmsis_gcc.h ****  */
  58:Drivers/CMSIS/Include/cmsis_gcc.h **** __attribute__( ( always_inline ) ) __STATIC_INLINE void __enable_irq(void)
  59:Drivers/CMSIS/Include/cmsis_gcc.h **** {
  60:Drivers/CMSIS/Include/cmsis_gcc.h ****   __ASM volatile ("cpsie i" : : : "memory");
  61:Drivers/CMSIS/Include/cmsis_gcc.h **** }
  62:Drivers/CMSIS/Include/cmsis_gcc.h **** 
  63:Drivers/CMSIS/Include/cmsis_gcc.h **** 
  64:Drivers/CMSIS/Include/cmsis_gcc.h **** /**
  65:Drivers/CMSIS/Include/cmsis_gcc.h ****   \brief   Disable IRQ Interrupts
  66:Drivers/CMSIS/Include/cmsis_gcc.h ****   \details Disables IRQ interrupts by setting the I-bit in the CPSR.
  67:Drivers/CMSIS/Include/cmsis_gcc.h ****   Can only be executed in Privileged modes.
  68:Drivers/CMSIS/Include/cmsis_gcc.h ****  */
  69:Drivers/CMSIS/Include/cmsis_gcc.h **** __attribute__( ( always_inline ) ) __STATIC_INLINE void __disable_irq(void)
  70:Drivers/CMSIS/Include/cmsis_gcc.h **** {
  71:Drivers/CMSIS/Include/cmsis_gcc.h ****   __ASM volatile ("cpsid i" : : : "memory");
  72:Drivers/CMSIS/Include/cmsis_gcc.h **** }
  73:Drivers/CMSIS/Include/cmsis_gcc.h **** 
  74:Drivers/CMSIS/Include/cmsis_gcc.h **** 
  75:Drivers/CMSIS/Include/cmsis_gcc.h **** /**
  76:Drivers/CMSIS/Include/cmsis_gcc.h ****   \brief   Get Control Register
  77:Drivers/CMSIS/Include/cmsis_gcc.h ****   \details Returns the content of the Control Register.
  78:Drivers/CMSIS/Include/cmsis_gcc.h ****   \return               Control Register value
  79:Drivers/CMSIS/Include/cmsis_gcc.h ****  */
  80:Drivers/CMSIS/Include/cmsis_gcc.h **** __attribute__( ( always_inline ) ) __STATIC_INLINE uint32_t __get_CONTROL(void)
  81:Drivers/CMSIS/Include/cmsis_gcc.h **** {
  82:Drivers/CMSIS/Include/cmsis_gcc.h ****   uint32_t result;
  83:Drivers/CMSIS/Include/cmsis_gcc.h **** 
  84:Drivers/CMSIS/Include/cmsis_gcc.h ****   __ASM volatile ("MRS %0, control" : "=r" (result) );
  85:Drivers/CMSIS/Include/cmsis_gcc.h ****   return(result);
  86:Drivers/CMSIS/Include/cmsis_gcc.h **** }
ARM GAS  /tmp/cc1ege1D.s 			page 18


  87:Drivers/CMSIS/Include/cmsis_gcc.h **** 
  88:Drivers/CMSIS/Include/cmsis_gcc.h **** 
  89:Drivers/CMSIS/Include/cmsis_gcc.h **** /**
  90:Drivers/CMSIS/Include/cmsis_gcc.h ****   \brief   Set Control Register
  91:Drivers/CMSIS/Include/cmsis_gcc.h ****   \details Writes the given value to the Control Register.
  92:Drivers/CMSIS/Include/cmsis_gcc.h ****   \param [in]    control  Control Register value to set
  93:Drivers/CMSIS/Include/cmsis_gcc.h ****  */
  94:Drivers/CMSIS/Include/cmsis_gcc.h **** __attribute__( ( always_inline ) ) __STATIC_INLINE void __set_CONTROL(uint32_t control)
  95:Drivers/CMSIS/Include/cmsis_gcc.h **** {
  96:Drivers/CMSIS/Include/cmsis_gcc.h ****   __ASM volatile ("MSR control, %0" : : "r" (control) : "memory");
  97:Drivers/CMSIS/Include/cmsis_gcc.h **** }
  98:Drivers/CMSIS/Include/cmsis_gcc.h **** 
  99:Drivers/CMSIS/Include/cmsis_gcc.h **** 
 100:Drivers/CMSIS/Include/cmsis_gcc.h **** /**
 101:Drivers/CMSIS/Include/cmsis_gcc.h ****   \brief   Get IPSR Register
 102:Drivers/CMSIS/Include/cmsis_gcc.h ****   \details Returns the content of the IPSR Register.
 103:Drivers/CMSIS/Include/cmsis_gcc.h ****   \return               IPSR Register value
 104:Drivers/CMSIS/Include/cmsis_gcc.h ****  */
 105:Drivers/CMSIS/Include/cmsis_gcc.h **** __attribute__( ( always_inline ) ) __STATIC_INLINE uint32_t __get_IPSR(void)
 106:Drivers/CMSIS/Include/cmsis_gcc.h **** {
 107:Drivers/CMSIS/Include/cmsis_gcc.h ****   uint32_t result;
 108:Drivers/CMSIS/Include/cmsis_gcc.h **** 
 109:Drivers/CMSIS/Include/cmsis_gcc.h ****   __ASM volatile ("MRS %0, ipsr" : "=r" (result) );
 110:Drivers/CMSIS/Include/cmsis_gcc.h ****   return(result);
 111:Drivers/CMSIS/Include/cmsis_gcc.h **** }
 112:Drivers/CMSIS/Include/cmsis_gcc.h **** 
 113:Drivers/CMSIS/Include/cmsis_gcc.h **** 
 114:Drivers/CMSIS/Include/cmsis_gcc.h **** /**
 115:Drivers/CMSIS/Include/cmsis_gcc.h ****   \brief   Get APSR Register
 116:Drivers/CMSIS/Include/cmsis_gcc.h ****   \details Returns the content of the APSR Register.
 117:Drivers/CMSIS/Include/cmsis_gcc.h ****   \return               APSR Register value
 118:Drivers/CMSIS/Include/cmsis_gcc.h ****  */
 119:Drivers/CMSIS/Include/cmsis_gcc.h **** __attribute__( ( always_inline ) ) __STATIC_INLINE uint32_t __get_APSR(void)
 120:Drivers/CMSIS/Include/cmsis_gcc.h **** {
 121:Drivers/CMSIS/Include/cmsis_gcc.h ****   uint32_t result;
 122:Drivers/CMSIS/Include/cmsis_gcc.h **** 
 123:Drivers/CMSIS/Include/cmsis_gcc.h ****   __ASM volatile ("MRS %0, apsr" : "=r" (result) );
 124:Drivers/CMSIS/Include/cmsis_gcc.h ****   return(result);
 125:Drivers/CMSIS/Include/cmsis_gcc.h **** }
 126:Drivers/CMSIS/Include/cmsis_gcc.h **** 
 127:Drivers/CMSIS/Include/cmsis_gcc.h **** 
 128:Drivers/CMSIS/Include/cmsis_gcc.h **** /**
 129:Drivers/CMSIS/Include/cmsis_gcc.h ****   \brief   Get xPSR Register
 130:Drivers/CMSIS/Include/cmsis_gcc.h ****   \details Returns the content of the xPSR Register.
 131:Drivers/CMSIS/Include/cmsis_gcc.h **** 
 132:Drivers/CMSIS/Include/cmsis_gcc.h ****     \return               xPSR Register value
 133:Drivers/CMSIS/Include/cmsis_gcc.h ****  */
 134:Drivers/CMSIS/Include/cmsis_gcc.h **** __attribute__( ( always_inline ) ) __STATIC_INLINE uint32_t __get_xPSR(void)
 135:Drivers/CMSIS/Include/cmsis_gcc.h **** {
 136:Drivers/CMSIS/Include/cmsis_gcc.h ****   uint32_t result;
 137:Drivers/CMSIS/Include/cmsis_gcc.h **** 
 138:Drivers/CMSIS/Include/cmsis_gcc.h ****   __ASM volatile ("MRS %0, xpsr" : "=r" (result) );
 139:Drivers/CMSIS/Include/cmsis_gcc.h ****   return(result);
 140:Drivers/CMSIS/Include/cmsis_gcc.h **** }
 141:Drivers/CMSIS/Include/cmsis_gcc.h **** 
 142:Drivers/CMSIS/Include/cmsis_gcc.h **** 
 143:Drivers/CMSIS/Include/cmsis_gcc.h **** /**
ARM GAS  /tmp/cc1ege1D.s 			page 19


 144:Drivers/CMSIS/Include/cmsis_gcc.h ****   \brief   Get Process Stack Pointer
 145:Drivers/CMSIS/Include/cmsis_gcc.h ****   \details Returns the current value of the Process Stack Pointer (PSP).
 146:Drivers/CMSIS/Include/cmsis_gcc.h ****   \return               PSP Register value
 147:Drivers/CMSIS/Include/cmsis_gcc.h ****  */
 148:Drivers/CMSIS/Include/cmsis_gcc.h **** __attribute__( ( always_inline ) ) __STATIC_INLINE uint32_t __get_PSP(void)
 149:Drivers/CMSIS/Include/cmsis_gcc.h **** {
 150:Drivers/CMSIS/Include/cmsis_gcc.h ****   register uint32_t result;
 151:Drivers/CMSIS/Include/cmsis_gcc.h **** 
 152:Drivers/CMSIS/Include/cmsis_gcc.h ****   __ASM volatile ("MRS %0, psp\n"  : "=r" (result) );
 153:Drivers/CMSIS/Include/cmsis_gcc.h ****   return(result);
 154:Drivers/CMSIS/Include/cmsis_gcc.h **** }
 155:Drivers/CMSIS/Include/cmsis_gcc.h **** 
 156:Drivers/CMSIS/Include/cmsis_gcc.h **** 
 157:Drivers/CMSIS/Include/cmsis_gcc.h **** /**
 158:Drivers/CMSIS/Include/cmsis_gcc.h ****   \brief   Set Process Stack Pointer
 159:Drivers/CMSIS/Include/cmsis_gcc.h ****   \details Assigns the given value to the Process Stack Pointer (PSP).
 160:Drivers/CMSIS/Include/cmsis_gcc.h ****   \param [in]    topOfProcStack  Process Stack Pointer value to set
 161:Drivers/CMSIS/Include/cmsis_gcc.h ****  */
 162:Drivers/CMSIS/Include/cmsis_gcc.h **** __attribute__( ( always_inline ) ) __STATIC_INLINE void __set_PSP(uint32_t topOfProcStack)
 163:Drivers/CMSIS/Include/cmsis_gcc.h **** {
 164:Drivers/CMSIS/Include/cmsis_gcc.h ****   __ASM volatile ("MSR psp, %0\n" : : "r" (topOfProcStack) : "sp");
 165:Drivers/CMSIS/Include/cmsis_gcc.h **** }
 166:Drivers/CMSIS/Include/cmsis_gcc.h **** 
 167:Drivers/CMSIS/Include/cmsis_gcc.h **** 
 168:Drivers/CMSIS/Include/cmsis_gcc.h **** /**
 169:Drivers/CMSIS/Include/cmsis_gcc.h ****   \brief   Get Main Stack Pointer
 170:Drivers/CMSIS/Include/cmsis_gcc.h ****   \details Returns the current value of the Main Stack Pointer (MSP).
 171:Drivers/CMSIS/Include/cmsis_gcc.h ****   \return               MSP Register value
 172:Drivers/CMSIS/Include/cmsis_gcc.h ****  */
 173:Drivers/CMSIS/Include/cmsis_gcc.h **** __attribute__( ( always_inline ) ) __STATIC_INLINE uint32_t __get_MSP(void)
 174:Drivers/CMSIS/Include/cmsis_gcc.h **** {
 175:Drivers/CMSIS/Include/cmsis_gcc.h ****   register uint32_t result;
 176:Drivers/CMSIS/Include/cmsis_gcc.h **** 
 177:Drivers/CMSIS/Include/cmsis_gcc.h ****   __ASM volatile ("MRS %0, msp\n" : "=r" (result) );
 178:Drivers/CMSIS/Include/cmsis_gcc.h ****   return(result);
 179:Drivers/CMSIS/Include/cmsis_gcc.h **** }
 180:Drivers/CMSIS/Include/cmsis_gcc.h **** 
 181:Drivers/CMSIS/Include/cmsis_gcc.h **** 
 182:Drivers/CMSIS/Include/cmsis_gcc.h **** /**
 183:Drivers/CMSIS/Include/cmsis_gcc.h ****   \brief   Set Main Stack Pointer
 184:Drivers/CMSIS/Include/cmsis_gcc.h ****   \details Assigns the given value to the Main Stack Pointer (MSP).
 185:Drivers/CMSIS/Include/cmsis_gcc.h **** 
 186:Drivers/CMSIS/Include/cmsis_gcc.h ****     \param [in]    topOfMainStack  Main Stack Pointer value to set
 187:Drivers/CMSIS/Include/cmsis_gcc.h ****  */
 188:Drivers/CMSIS/Include/cmsis_gcc.h **** __attribute__( ( always_inline ) ) __STATIC_INLINE void __set_MSP(uint32_t topOfMainStack)
 189:Drivers/CMSIS/Include/cmsis_gcc.h **** {
 190:Drivers/CMSIS/Include/cmsis_gcc.h ****   __ASM volatile ("MSR msp, %0\n" : : "r" (topOfMainStack) : "sp");
 191:Drivers/CMSIS/Include/cmsis_gcc.h **** }
 192:Drivers/CMSIS/Include/cmsis_gcc.h **** 
 193:Drivers/CMSIS/Include/cmsis_gcc.h **** 
 194:Drivers/CMSIS/Include/cmsis_gcc.h **** /**
 195:Drivers/CMSIS/Include/cmsis_gcc.h ****   \brief   Get Priority Mask
 196:Drivers/CMSIS/Include/cmsis_gcc.h ****   \details Returns the current state of the priority mask bit from the Priority Mask Register.
 197:Drivers/CMSIS/Include/cmsis_gcc.h ****   \return               Priority Mask value
 198:Drivers/CMSIS/Include/cmsis_gcc.h ****  */
 199:Drivers/CMSIS/Include/cmsis_gcc.h **** __attribute__( ( always_inline ) ) __STATIC_INLINE uint32_t __get_PRIMASK(void)
 200:Drivers/CMSIS/Include/cmsis_gcc.h **** {
ARM GAS  /tmp/cc1ege1D.s 			page 20


 201:Drivers/CMSIS/Include/cmsis_gcc.h ****   uint32_t result;
 202:Drivers/CMSIS/Include/cmsis_gcc.h **** 
 203:Drivers/CMSIS/Include/cmsis_gcc.h ****   __ASM volatile ("MRS %0, primask" : "=r" (result) );
 204:Drivers/CMSIS/Include/cmsis_gcc.h ****   return(result);
 205:Drivers/CMSIS/Include/cmsis_gcc.h **** }
 206:Drivers/CMSIS/Include/cmsis_gcc.h **** 
 207:Drivers/CMSIS/Include/cmsis_gcc.h **** 
 208:Drivers/CMSIS/Include/cmsis_gcc.h **** /**
 209:Drivers/CMSIS/Include/cmsis_gcc.h ****   \brief   Set Priority Mask
 210:Drivers/CMSIS/Include/cmsis_gcc.h ****   \details Assigns the given value to the Priority Mask Register.
 211:Drivers/CMSIS/Include/cmsis_gcc.h ****   \param [in]    priMask  Priority Mask
 212:Drivers/CMSIS/Include/cmsis_gcc.h ****  */
 213:Drivers/CMSIS/Include/cmsis_gcc.h **** __attribute__( ( always_inline ) ) __STATIC_INLINE void __set_PRIMASK(uint32_t priMask)
 214:Drivers/CMSIS/Include/cmsis_gcc.h **** {
 215:Drivers/CMSIS/Include/cmsis_gcc.h ****   __ASM volatile ("MSR primask, %0" : : "r" (priMask) : "memory");
 216:Drivers/CMSIS/Include/cmsis_gcc.h **** }
 217:Drivers/CMSIS/Include/cmsis_gcc.h **** 
 218:Drivers/CMSIS/Include/cmsis_gcc.h **** 
 219:Drivers/CMSIS/Include/cmsis_gcc.h **** #if       (__CORTEX_M >= 0x03U)
 220:Drivers/CMSIS/Include/cmsis_gcc.h **** 
 221:Drivers/CMSIS/Include/cmsis_gcc.h **** /**
 222:Drivers/CMSIS/Include/cmsis_gcc.h ****   \brief   Enable FIQ
 223:Drivers/CMSIS/Include/cmsis_gcc.h ****   \details Enables FIQ interrupts by clearing the F-bit in the CPSR.
 224:Drivers/CMSIS/Include/cmsis_gcc.h ****            Can only be executed in Privileged modes.
 225:Drivers/CMSIS/Include/cmsis_gcc.h ****  */
 226:Drivers/CMSIS/Include/cmsis_gcc.h **** __attribute__( ( always_inline ) ) __STATIC_INLINE void __enable_fault_irq(void)
 227:Drivers/CMSIS/Include/cmsis_gcc.h **** {
 228:Drivers/CMSIS/Include/cmsis_gcc.h ****   __ASM volatile ("cpsie f" : : : "memory");
 229:Drivers/CMSIS/Include/cmsis_gcc.h **** }
 230:Drivers/CMSIS/Include/cmsis_gcc.h **** 
 231:Drivers/CMSIS/Include/cmsis_gcc.h **** 
 232:Drivers/CMSIS/Include/cmsis_gcc.h **** /**
 233:Drivers/CMSIS/Include/cmsis_gcc.h ****   \brief   Disable FIQ
 234:Drivers/CMSIS/Include/cmsis_gcc.h ****   \details Disables FIQ interrupts by setting the F-bit in the CPSR.
 235:Drivers/CMSIS/Include/cmsis_gcc.h ****            Can only be executed in Privileged modes.
 236:Drivers/CMSIS/Include/cmsis_gcc.h ****  */
 237:Drivers/CMSIS/Include/cmsis_gcc.h **** __attribute__( ( always_inline ) ) __STATIC_INLINE void __disable_fault_irq(void)
 238:Drivers/CMSIS/Include/cmsis_gcc.h **** {
 239:Drivers/CMSIS/Include/cmsis_gcc.h ****   __ASM volatile ("cpsid f" : : : "memory");
 240:Drivers/CMSIS/Include/cmsis_gcc.h **** }
 241:Drivers/CMSIS/Include/cmsis_gcc.h **** 
 242:Drivers/CMSIS/Include/cmsis_gcc.h **** 
 243:Drivers/CMSIS/Include/cmsis_gcc.h **** /**
 244:Drivers/CMSIS/Include/cmsis_gcc.h ****   \brief   Get Base Priority
 245:Drivers/CMSIS/Include/cmsis_gcc.h ****   \details Returns the current value of the Base Priority register.
 246:Drivers/CMSIS/Include/cmsis_gcc.h ****   \return               Base Priority register value
 247:Drivers/CMSIS/Include/cmsis_gcc.h ****  */
 248:Drivers/CMSIS/Include/cmsis_gcc.h **** __attribute__( ( always_inline ) ) __STATIC_INLINE uint32_t __get_BASEPRI(void)
 249:Drivers/CMSIS/Include/cmsis_gcc.h **** {
 250:Drivers/CMSIS/Include/cmsis_gcc.h ****   uint32_t result;
 251:Drivers/CMSIS/Include/cmsis_gcc.h **** 
 252:Drivers/CMSIS/Include/cmsis_gcc.h ****   __ASM volatile ("MRS %0, basepri" : "=r" (result) );
 253:Drivers/CMSIS/Include/cmsis_gcc.h ****   return(result);
 254:Drivers/CMSIS/Include/cmsis_gcc.h **** }
 255:Drivers/CMSIS/Include/cmsis_gcc.h **** 
 256:Drivers/CMSIS/Include/cmsis_gcc.h **** 
 257:Drivers/CMSIS/Include/cmsis_gcc.h **** /**
ARM GAS  /tmp/cc1ege1D.s 			page 21


 258:Drivers/CMSIS/Include/cmsis_gcc.h ****   \brief   Set Base Priority
 259:Drivers/CMSIS/Include/cmsis_gcc.h ****   \details Assigns the given value to the Base Priority register.
 260:Drivers/CMSIS/Include/cmsis_gcc.h ****   \param [in]    basePri  Base Priority value to set
 261:Drivers/CMSIS/Include/cmsis_gcc.h ****  */
 262:Drivers/CMSIS/Include/cmsis_gcc.h **** __attribute__( ( always_inline ) ) __STATIC_INLINE void __set_BASEPRI(uint32_t value)
 263:Drivers/CMSIS/Include/cmsis_gcc.h **** {
 264:Drivers/CMSIS/Include/cmsis_gcc.h ****   __ASM volatile ("MSR basepri, %0" : : "r" (value) : "memory");
 265:Drivers/CMSIS/Include/cmsis_gcc.h **** }
 266:Drivers/CMSIS/Include/cmsis_gcc.h **** 
 267:Drivers/CMSIS/Include/cmsis_gcc.h **** 
 268:Drivers/CMSIS/Include/cmsis_gcc.h **** /**
 269:Drivers/CMSIS/Include/cmsis_gcc.h ****   \brief   Set Base Priority with condition
 270:Drivers/CMSIS/Include/cmsis_gcc.h ****   \details Assigns the given value to the Base Priority register only if BASEPRI masking is disable
 271:Drivers/CMSIS/Include/cmsis_gcc.h ****            or the new value increases the BASEPRI priority level.
 272:Drivers/CMSIS/Include/cmsis_gcc.h ****   \param [in]    basePri  Base Priority value to set
 273:Drivers/CMSIS/Include/cmsis_gcc.h ****  */
 274:Drivers/CMSIS/Include/cmsis_gcc.h **** __attribute__( ( always_inline ) ) __STATIC_INLINE void __set_BASEPRI_MAX(uint32_t value)
 275:Drivers/CMSIS/Include/cmsis_gcc.h **** {
 276:Drivers/CMSIS/Include/cmsis_gcc.h ****   __ASM volatile ("MSR basepri_max, %0" : : "r" (value) : "memory");
 277:Drivers/CMSIS/Include/cmsis_gcc.h **** }
 278:Drivers/CMSIS/Include/cmsis_gcc.h **** 
 279:Drivers/CMSIS/Include/cmsis_gcc.h **** 
 280:Drivers/CMSIS/Include/cmsis_gcc.h **** /**
 281:Drivers/CMSIS/Include/cmsis_gcc.h ****   \brief   Get Fault Mask
 282:Drivers/CMSIS/Include/cmsis_gcc.h ****   \details Returns the current value of the Fault Mask register.
 283:Drivers/CMSIS/Include/cmsis_gcc.h ****   \return               Fault Mask register value
 284:Drivers/CMSIS/Include/cmsis_gcc.h ****  */
 285:Drivers/CMSIS/Include/cmsis_gcc.h **** __attribute__( ( always_inline ) ) __STATIC_INLINE uint32_t __get_FAULTMASK(void)
 286:Drivers/CMSIS/Include/cmsis_gcc.h **** {
 287:Drivers/CMSIS/Include/cmsis_gcc.h ****   uint32_t result;
 288:Drivers/CMSIS/Include/cmsis_gcc.h **** 
 289:Drivers/CMSIS/Include/cmsis_gcc.h ****   __ASM volatile ("MRS %0, faultmask" : "=r" (result) );
 290:Drivers/CMSIS/Include/cmsis_gcc.h ****   return(result);
 291:Drivers/CMSIS/Include/cmsis_gcc.h **** }
 292:Drivers/CMSIS/Include/cmsis_gcc.h **** 
 293:Drivers/CMSIS/Include/cmsis_gcc.h **** 
 294:Drivers/CMSIS/Include/cmsis_gcc.h **** /**
 295:Drivers/CMSIS/Include/cmsis_gcc.h ****   \brief   Set Fault Mask
 296:Drivers/CMSIS/Include/cmsis_gcc.h ****   \details Assigns the given value to the Fault Mask register.
 297:Drivers/CMSIS/Include/cmsis_gcc.h ****   \param [in]    faultMask  Fault Mask value to set
 298:Drivers/CMSIS/Include/cmsis_gcc.h ****  */
 299:Drivers/CMSIS/Include/cmsis_gcc.h **** __attribute__( ( always_inline ) ) __STATIC_INLINE void __set_FAULTMASK(uint32_t faultMask)
 300:Drivers/CMSIS/Include/cmsis_gcc.h **** {
 301:Drivers/CMSIS/Include/cmsis_gcc.h ****   __ASM volatile ("MSR faultmask, %0" : : "r" (faultMask) : "memory");
 302:Drivers/CMSIS/Include/cmsis_gcc.h **** }
 303:Drivers/CMSIS/Include/cmsis_gcc.h **** 
 304:Drivers/CMSIS/Include/cmsis_gcc.h **** #endif /* (__CORTEX_M >= 0x03U) */
 305:Drivers/CMSIS/Include/cmsis_gcc.h **** 
 306:Drivers/CMSIS/Include/cmsis_gcc.h **** 
 307:Drivers/CMSIS/Include/cmsis_gcc.h **** #if       (__CORTEX_M == 0x04U) || (__CORTEX_M == 0x07U)
 308:Drivers/CMSIS/Include/cmsis_gcc.h **** 
 309:Drivers/CMSIS/Include/cmsis_gcc.h **** /**
 310:Drivers/CMSIS/Include/cmsis_gcc.h ****   \brief   Get FPSCR
 311:Drivers/CMSIS/Include/cmsis_gcc.h ****   \details Returns the current value of the Floating Point Status/Control register.
 312:Drivers/CMSIS/Include/cmsis_gcc.h ****   \return               Floating Point Status/Control register value
 313:Drivers/CMSIS/Include/cmsis_gcc.h ****  */
 314:Drivers/CMSIS/Include/cmsis_gcc.h **** __attribute__( ( always_inline ) ) __STATIC_INLINE uint32_t __get_FPSCR(void)
ARM GAS  /tmp/cc1ege1D.s 			page 22


 315:Drivers/CMSIS/Include/cmsis_gcc.h **** {
 316:Drivers/CMSIS/Include/cmsis_gcc.h **** #if (__FPU_PRESENT == 1U) && (__FPU_USED == 1U)
 317:Drivers/CMSIS/Include/cmsis_gcc.h ****   uint32_t result;
 318:Drivers/CMSIS/Include/cmsis_gcc.h **** 
 319:Drivers/CMSIS/Include/cmsis_gcc.h ****   /* Empty asm statement works as a scheduling barrier */
 320:Drivers/CMSIS/Include/cmsis_gcc.h ****   __ASM volatile ("");
 321:Drivers/CMSIS/Include/cmsis_gcc.h ****   __ASM volatile ("VMRS %0, fpscr" : "=r" (result) );
 322:Drivers/CMSIS/Include/cmsis_gcc.h ****   __ASM volatile ("");
 323:Drivers/CMSIS/Include/cmsis_gcc.h ****   return(result);
 324:Drivers/CMSIS/Include/cmsis_gcc.h **** #else
 325:Drivers/CMSIS/Include/cmsis_gcc.h ****    return(0);
 326:Drivers/CMSIS/Include/cmsis_gcc.h **** #endif
 327:Drivers/CMSIS/Include/cmsis_gcc.h **** }
 328:Drivers/CMSIS/Include/cmsis_gcc.h **** 
 329:Drivers/CMSIS/Include/cmsis_gcc.h **** 
 330:Drivers/CMSIS/Include/cmsis_gcc.h **** /**
 331:Drivers/CMSIS/Include/cmsis_gcc.h ****   \brief   Set FPSCR
 332:Drivers/CMSIS/Include/cmsis_gcc.h ****   \details Assigns the given value to the Floating Point Status/Control register.
 333:Drivers/CMSIS/Include/cmsis_gcc.h ****   \param [in]    fpscr  Floating Point Status/Control value to set
 334:Drivers/CMSIS/Include/cmsis_gcc.h ****  */
 335:Drivers/CMSIS/Include/cmsis_gcc.h **** __attribute__( ( always_inline ) ) __STATIC_INLINE void __set_FPSCR(uint32_t fpscr)
 336:Drivers/CMSIS/Include/cmsis_gcc.h **** {
 337:Drivers/CMSIS/Include/cmsis_gcc.h **** #if (__FPU_PRESENT == 1U) && (__FPU_USED == 1U)
 338:Drivers/CMSIS/Include/cmsis_gcc.h ****   /* Empty asm statement works as a scheduling barrier */
 339:Drivers/CMSIS/Include/cmsis_gcc.h ****   __ASM volatile ("");
 340:Drivers/CMSIS/Include/cmsis_gcc.h ****   __ASM volatile ("VMSR fpscr, %0" : : "r" (fpscr) : "vfpcc");
 341:Drivers/CMSIS/Include/cmsis_gcc.h ****   __ASM volatile ("");
 342:Drivers/CMSIS/Include/cmsis_gcc.h **** #endif
 343:Drivers/CMSIS/Include/cmsis_gcc.h **** }
 344:Drivers/CMSIS/Include/cmsis_gcc.h **** 
 345:Drivers/CMSIS/Include/cmsis_gcc.h **** #endif /* (__CORTEX_M == 0x04U) || (__CORTEX_M == 0x07U) */
 346:Drivers/CMSIS/Include/cmsis_gcc.h **** 
 347:Drivers/CMSIS/Include/cmsis_gcc.h **** 
 348:Drivers/CMSIS/Include/cmsis_gcc.h **** 
 349:Drivers/CMSIS/Include/cmsis_gcc.h **** /*@} end of CMSIS_Core_RegAccFunctions */
 350:Drivers/CMSIS/Include/cmsis_gcc.h **** 
 351:Drivers/CMSIS/Include/cmsis_gcc.h **** 
 352:Drivers/CMSIS/Include/cmsis_gcc.h **** /* ##########################  Core Instruction Access  ######################### */
 353:Drivers/CMSIS/Include/cmsis_gcc.h **** /** \defgroup CMSIS_Core_InstructionInterface CMSIS Core Instruction Interface
 354:Drivers/CMSIS/Include/cmsis_gcc.h ****   Access to dedicated instructions
 355:Drivers/CMSIS/Include/cmsis_gcc.h ****   @{
 356:Drivers/CMSIS/Include/cmsis_gcc.h **** */
 357:Drivers/CMSIS/Include/cmsis_gcc.h **** 
 358:Drivers/CMSIS/Include/cmsis_gcc.h **** /* Define macros for porting to both thumb1 and thumb2.
 359:Drivers/CMSIS/Include/cmsis_gcc.h ****  * For thumb1, use low register (r0-r7), specified by constraint "l"
 360:Drivers/CMSIS/Include/cmsis_gcc.h ****  * Otherwise, use general registers, specified by constraint "r" */
 361:Drivers/CMSIS/Include/cmsis_gcc.h **** #if defined (__thumb__) && !defined (__thumb2__)
 362:Drivers/CMSIS/Include/cmsis_gcc.h **** #define __CMSIS_GCC_OUT_REG(r) "=l" (r)
 363:Drivers/CMSIS/Include/cmsis_gcc.h **** #define __CMSIS_GCC_USE_REG(r) "l" (r)
 364:Drivers/CMSIS/Include/cmsis_gcc.h **** #else
 365:Drivers/CMSIS/Include/cmsis_gcc.h **** #define __CMSIS_GCC_OUT_REG(r) "=r" (r)
 366:Drivers/CMSIS/Include/cmsis_gcc.h **** #define __CMSIS_GCC_USE_REG(r) "r" (r)
 367:Drivers/CMSIS/Include/cmsis_gcc.h **** #endif
 368:Drivers/CMSIS/Include/cmsis_gcc.h **** 
 369:Drivers/CMSIS/Include/cmsis_gcc.h **** /**
 370:Drivers/CMSIS/Include/cmsis_gcc.h ****   \brief   No Operation
 371:Drivers/CMSIS/Include/cmsis_gcc.h ****   \details No Operation does nothing. This instruction can be used for code alignment purposes.
ARM GAS  /tmp/cc1ege1D.s 			page 23


 372:Drivers/CMSIS/Include/cmsis_gcc.h ****  */
 373:Drivers/CMSIS/Include/cmsis_gcc.h **** __attribute__((always_inline)) __STATIC_INLINE void __NOP(void)
 374:Drivers/CMSIS/Include/cmsis_gcc.h **** {
 375:Drivers/CMSIS/Include/cmsis_gcc.h ****   __ASM volatile ("nop");
 376:Drivers/CMSIS/Include/cmsis_gcc.h **** }
 377:Drivers/CMSIS/Include/cmsis_gcc.h **** 
 378:Drivers/CMSIS/Include/cmsis_gcc.h **** 
 379:Drivers/CMSIS/Include/cmsis_gcc.h **** /**
 380:Drivers/CMSIS/Include/cmsis_gcc.h ****   \brief   Wait For Interrupt
 381:Drivers/CMSIS/Include/cmsis_gcc.h ****   \details Wait For Interrupt is a hint instruction that suspends execution until one of a number o
 382:Drivers/CMSIS/Include/cmsis_gcc.h ****  */
 383:Drivers/CMSIS/Include/cmsis_gcc.h **** __attribute__((always_inline)) __STATIC_INLINE void __WFI(void)
 384:Drivers/CMSIS/Include/cmsis_gcc.h **** {
 385:Drivers/CMSIS/Include/cmsis_gcc.h ****   __ASM volatile ("wfi");
 386:Drivers/CMSIS/Include/cmsis_gcc.h **** }
 387:Drivers/CMSIS/Include/cmsis_gcc.h **** 
 388:Drivers/CMSIS/Include/cmsis_gcc.h **** 
 389:Drivers/CMSIS/Include/cmsis_gcc.h **** /**
 390:Drivers/CMSIS/Include/cmsis_gcc.h ****   \brief   Wait For Event
 391:Drivers/CMSIS/Include/cmsis_gcc.h ****   \details Wait For Event is a hint instruction that permits the processor to enter
 392:Drivers/CMSIS/Include/cmsis_gcc.h ****     a low-power state until one of a number of events occurs.
 393:Drivers/CMSIS/Include/cmsis_gcc.h ****  */
 394:Drivers/CMSIS/Include/cmsis_gcc.h **** __attribute__((always_inline)) __STATIC_INLINE void __WFE(void)
 395:Drivers/CMSIS/Include/cmsis_gcc.h **** {
 396:Drivers/CMSIS/Include/cmsis_gcc.h ****   __ASM volatile ("wfe");
 397:Drivers/CMSIS/Include/cmsis_gcc.h **** }
 398:Drivers/CMSIS/Include/cmsis_gcc.h **** 
 399:Drivers/CMSIS/Include/cmsis_gcc.h **** 
 400:Drivers/CMSIS/Include/cmsis_gcc.h **** /**
 401:Drivers/CMSIS/Include/cmsis_gcc.h ****   \brief   Send Event
 402:Drivers/CMSIS/Include/cmsis_gcc.h ****   \details Send Event is a hint instruction. It causes an event to be signaled to the CPU.
 403:Drivers/CMSIS/Include/cmsis_gcc.h ****  */
 404:Drivers/CMSIS/Include/cmsis_gcc.h **** __attribute__((always_inline)) __STATIC_INLINE void __SEV(void)
 405              		.loc 2 404 53 view .LVU63
 406              	.LBB23:
 405:Drivers/CMSIS/Include/cmsis_gcc.h **** {
 406:Drivers/CMSIS/Include/cmsis_gcc.h ****   __ASM volatile ("sev");
 407              		.loc 2 406 3 view .LVU64
 408              		.syntax divided
 409              	@ 406 "Drivers/CMSIS/Include/cmsis_gcc.h" 1
 410 001c 40BF     		sev
 411              	@ 0 "" 2
 412              		.thumb
 413              		.syntax unified
 414              	.LBE23:
 415              	.LBE22:
 497:Drivers/STM32L0xx_HAL_Driver/Src/stm32l0xx_hal_pwr.c ****     __WFE();
 416              		.loc 1 497 5 view .LVU65
 417              	.LBB24:
 418              	.LBI24:
 394:Drivers/CMSIS/Include/cmsis_gcc.h **** {
 419              		.loc 2 394 53 view .LVU66
 420              	.LBB25:
 396:Drivers/CMSIS/Include/cmsis_gcc.h **** }
 421              		.loc 2 396 3 view .LVU67
 422              		.syntax divided
 423              	@ 396 "Drivers/CMSIS/Include/cmsis_gcc.h" 1
ARM GAS  /tmp/cc1ege1D.s 			page 24


 424 001e 20BF     		wfe
 425              	@ 0 "" 2
 426              		.thumb
 427              		.syntax unified
 428              	.LBE25:
 429              	.LBE24:
 498:Drivers/STM32L0xx_HAL_Driver/Src/stm32l0xx_hal_pwr.c ****     __WFE();
 430              		.loc 1 498 5 view .LVU68
 431              	.LBB26:
 432              	.LBI26:
 394:Drivers/CMSIS/Include/cmsis_gcc.h **** {
 433              		.loc 2 394 53 view .LVU69
 434              	.LBB27:
 396:Drivers/CMSIS/Include/cmsis_gcc.h **** }
 435              		.loc 2 396 3 view .LVU70
 436              		.syntax divided
 437              	@ 396 "Drivers/CMSIS/Include/cmsis_gcc.h" 1
 438 0020 20BF     		wfe
 439              	@ 0 "" 2
 440              		.thumb
 441              		.syntax unified
 442              	.L31:
 443              	.LBE27:
 444              	.LBE26:
 499:Drivers/STM32L0xx_HAL_Driver/Src/stm32l0xx_hal_pwr.c ****   }
 500:Drivers/STM32L0xx_HAL_Driver/Src/stm32l0xx_hal_pwr.c **** 
 501:Drivers/STM32L0xx_HAL_Driver/Src/stm32l0xx_hal_pwr.c ****   /* Additional NOP to ensure all pending instructions are flushed before entering low power mode *
 502:Drivers/STM32L0xx_HAL_Driver/Src/stm32l0xx_hal_pwr.c ****   __NOP();
 445              		.loc 1 502 3 view .LVU71
 446              	.LBB28:
 447              	.LBI28:
 373:Drivers/CMSIS/Include/cmsis_gcc.h **** {
 448              		.loc 2 373 53 view .LVU72
 449              	.LBB29:
 375:Drivers/CMSIS/Include/cmsis_gcc.h **** }
 450              		.loc 2 375 3 view .LVU73
 451              		.syntax divided
 452              	@ 375 "Drivers/CMSIS/Include/cmsis_gcc.h" 1
 453 0022 C046     		nop
 454              	@ 0 "" 2
 455              		.thumb
 456              		.syntax unified
 457              	.LBE29:
 458              	.LBE28:
 503:Drivers/STM32L0xx_HAL_Driver/Src/stm32l0xx_hal_pwr.c **** 
 504:Drivers/STM32L0xx_HAL_Driver/Src/stm32l0xx_hal_pwr.c **** }
 459              		.loc 1 504 1 is_stmt 0 view .LVU74
 460              		@ sp needed
 461              		.loc 1 504 1 view .LVU75
 462 0024 10BD     		pop	{r4, pc}
 463              	.L32:
 491:Drivers/STM32L0xx_HAL_Driver/Src/stm32l0xx_hal_pwr.c ****   }
 464              		.loc 1 491 5 is_stmt 1 view .LVU76
 465              	.LBB30:
 466              	.LBI30:
 383:Drivers/CMSIS/Include/cmsis_gcc.h **** {
 467              		.loc 2 383 53 view .LVU77
ARM GAS  /tmp/cc1ege1D.s 			page 25


 468              	.LBB31:
 385:Drivers/CMSIS/Include/cmsis_gcc.h **** }
 469              		.loc 2 385 3 view .LVU78
 470              		.syntax divided
 471              	@ 385 "Drivers/CMSIS/Include/cmsis_gcc.h" 1
 472 0026 30BF     		wfi
 473              	@ 0 "" 2
 386:Drivers/CMSIS/Include/cmsis_gcc.h **** 
 474              		.loc 2 386 1 is_stmt 0 view .LVU79
 475              		.thumb
 476              		.syntax unified
 477 0028 FBE7     		b	.L31
 478              	.L34:
 479 002a C046     		.align	2
 480              	.L33:
 481 002c 00700040 		.word	1073770496
 482 0030 00ED00E0 		.word	-536810240
 483              	.LBE31:
 484              	.LBE30:
 485              		.cfi_endproc
 486              	.LFE42:
 488              		.section	.text.HAL_PWR_EnterSTOPMode,"ax",%progbits
 489              		.align	1
 490              		.global	HAL_PWR_EnterSTOPMode
 491              		.syntax unified
 492              		.code	16
 493              		.thumb_func
 495              	HAL_PWR_EnterSTOPMode:
 496              	.LVL11:
 497              	.LFB43:
 505:Drivers/STM32L0xx_HAL_Driver/Src/stm32l0xx_hal_pwr.c **** 
 506:Drivers/STM32L0xx_HAL_Driver/Src/stm32l0xx_hal_pwr.c **** /**
 507:Drivers/STM32L0xx_HAL_Driver/Src/stm32l0xx_hal_pwr.c ****   * @brief Enters Stop mode. 
 508:Drivers/STM32L0xx_HAL_Driver/Src/stm32l0xx_hal_pwr.c ****   * @note In Stop mode, all I/O pins keep the same state as in Run mode.
 509:Drivers/STM32L0xx_HAL_Driver/Src/stm32l0xx_hal_pwr.c ****   * @note When exiting Stop mode by issuing an interrupt or a wakeup event,
 510:Drivers/STM32L0xx_HAL_Driver/Src/stm32l0xx_hal_pwr.c ****   *        MSI or HSI16 RCoscillator is selected as system clock depending 
 511:Drivers/STM32L0xx_HAL_Driver/Src/stm32l0xx_hal_pwr.c ****   *        the bit STOPWUCK in the RCC_CFGR register.
 512:Drivers/STM32L0xx_HAL_Driver/Src/stm32l0xx_hal_pwr.c ****   * @note When the voltage regulator operates in low power mode, an additional
 513:Drivers/STM32L0xx_HAL_Driver/Src/stm32l0xx_hal_pwr.c ****   *         startup delay is incurred when waking up from Stop mode. 
 514:Drivers/STM32L0xx_HAL_Driver/Src/stm32l0xx_hal_pwr.c ****   *         By keeping the internal regulator ON during Stop mode, the consumption
 515:Drivers/STM32L0xx_HAL_Driver/Src/stm32l0xx_hal_pwr.c ****   *         is higher although the startup time is reduced.
 516:Drivers/STM32L0xx_HAL_Driver/Src/stm32l0xx_hal_pwr.c ****   * @note Before entering in this function, it is important to ensure that the WUF
 517:Drivers/STM32L0xx_HAL_Driver/Src/stm32l0xx_hal_pwr.c ****   *       wakeup flag is cleared. To perform this action, it is possible to call the
 518:Drivers/STM32L0xx_HAL_Driver/Src/stm32l0xx_hal_pwr.c ****   *       following macro : __HAL_PWR_CLEAR_FLAG(PWR_FLAG_WU)
 519:Drivers/STM32L0xx_HAL_Driver/Src/stm32l0xx_hal_pwr.c ****   *
 520:Drivers/STM32L0xx_HAL_Driver/Src/stm32l0xx_hal_pwr.c ****   * @param Regulator: Specifies the regulator state in Stop mode.
 521:Drivers/STM32L0xx_HAL_Driver/Src/stm32l0xx_hal_pwr.c ****   *          This parameter can be one of the following values:
 522:Drivers/STM32L0xx_HAL_Driver/Src/stm32l0xx_hal_pwr.c ****   *            @arg PWR_MAINREGULATOR_ON: Stop mode with regulator ON
 523:Drivers/STM32L0xx_HAL_Driver/Src/stm32l0xx_hal_pwr.c ****   *            @arg PWR_LOWPOWERREGULATOR_ON: Stop mode with low power regulator ON
 524:Drivers/STM32L0xx_HAL_Driver/Src/stm32l0xx_hal_pwr.c ****   * @param STOPEntry: Specifies if Stop mode in entered with WFI or WFE instruction.
 525:Drivers/STM32L0xx_HAL_Driver/Src/stm32l0xx_hal_pwr.c ****   *          This parameter can be one of the following values:
 526:Drivers/STM32L0xx_HAL_Driver/Src/stm32l0xx_hal_pwr.c ****   *            @arg PWR_STOPENTRY_WFI: Enter Stop mode with WFI instruction
 527:Drivers/STM32L0xx_HAL_Driver/Src/stm32l0xx_hal_pwr.c ****   *            @arg PWR_STOPENTRY_WFE: Enter Stop mode with WFE instruction   
 528:Drivers/STM32L0xx_HAL_Driver/Src/stm32l0xx_hal_pwr.c ****   * @retval None
 529:Drivers/STM32L0xx_HAL_Driver/Src/stm32l0xx_hal_pwr.c ****   */
 530:Drivers/STM32L0xx_HAL_Driver/Src/stm32l0xx_hal_pwr.c **** void HAL_PWR_EnterSTOPMode(uint32_t Regulator, uint8_t STOPEntry)
 531:Drivers/STM32L0xx_HAL_Driver/Src/stm32l0xx_hal_pwr.c **** {
ARM GAS  /tmp/cc1ege1D.s 			page 26


 498              		.loc 1 531 1 is_stmt 1 view -0
 499              		.cfi_startproc
 500              		@ args = 0, pretend = 0, frame = 0
 501              		@ frame_needed = 0, uses_anonymous_args = 0
 502              		.loc 1 531 1 is_stmt 0 view .LVU81
 503 0000 10B5     		push	{r4, lr}
 504              	.LCFI1:
 505              		.cfi_def_cfa_offset 8
 506              		.cfi_offset 4, -8
 507              		.cfi_offset 14, -4
 532:Drivers/STM32L0xx_HAL_Driver/Src/stm32l0xx_hal_pwr.c ****   uint32_t tmpreg = 0U;
 508              		.loc 1 532 3 is_stmt 1 view .LVU82
 509              	.LVL12:
 533:Drivers/STM32L0xx_HAL_Driver/Src/stm32l0xx_hal_pwr.c **** 
 534:Drivers/STM32L0xx_HAL_Driver/Src/stm32l0xx_hal_pwr.c ****   /* Check the parameters */
 535:Drivers/STM32L0xx_HAL_Driver/Src/stm32l0xx_hal_pwr.c ****   assert_param(IS_PWR_REGULATOR(Regulator));
 510              		.loc 1 535 3 view .LVU83
 536:Drivers/STM32L0xx_HAL_Driver/Src/stm32l0xx_hal_pwr.c ****   assert_param(IS_PWR_STOP_ENTRY(STOPEntry));
 511              		.loc 1 536 3 view .LVU84
 537:Drivers/STM32L0xx_HAL_Driver/Src/stm32l0xx_hal_pwr.c **** 
 538:Drivers/STM32L0xx_HAL_Driver/Src/stm32l0xx_hal_pwr.c ****   /* Select the regulator state in Stop mode ---------------------------------*/
 539:Drivers/STM32L0xx_HAL_Driver/Src/stm32l0xx_hal_pwr.c ****   tmpreg = PWR->CR;
 512              		.loc 1 539 3 view .LVU85
 513              		.loc 1 539 10 is_stmt 0 view .LVU86
 514 0002 0C4A     		ldr	r2, .L39
 515 0004 1368     		ldr	r3, [r2]
 516              	.LVL13:
 540:Drivers/STM32L0xx_HAL_Driver/Src/stm32l0xx_hal_pwr.c ****   
 541:Drivers/STM32L0xx_HAL_Driver/Src/stm32l0xx_hal_pwr.c ****   /* Clear PDDS and LPDS bits */
 542:Drivers/STM32L0xx_HAL_Driver/Src/stm32l0xx_hal_pwr.c ****   CLEAR_BIT(tmpreg, (PWR_CR_PDDS | PWR_CR_LPSDSR));
 517              		.loc 1 542 3 is_stmt 1 view .LVU87
 518 0006 0324     		movs	r4, #3
 519 0008 A343     		bics	r3, r4
 520              	.LVL14:
 543:Drivers/STM32L0xx_HAL_Driver/Src/stm32l0xx_hal_pwr.c **** 
 544:Drivers/STM32L0xx_HAL_Driver/Src/stm32l0xx_hal_pwr.c ****  /* Set LPSDSR bit according to PWR_Regulator value */
 545:Drivers/STM32L0xx_HAL_Driver/Src/stm32l0xx_hal_pwr.c ****   SET_BIT(tmpreg, Regulator);
 521              		.loc 1 545 3 view .LVU88
 522 000a 0343     		orrs	r3, r0
 523              	.LVL15:
 546:Drivers/STM32L0xx_HAL_Driver/Src/stm32l0xx_hal_pwr.c **** 
 547:Drivers/STM32L0xx_HAL_Driver/Src/stm32l0xx_hal_pwr.c ****   /* Store the new value */
 548:Drivers/STM32L0xx_HAL_Driver/Src/stm32l0xx_hal_pwr.c ****   PWR->CR = tmpreg;
 524              		.loc 1 548 3 view .LVU89
 525              		.loc 1 548 11 is_stmt 0 view .LVU90
 526 000c 1360     		str	r3, [r2]
 549:Drivers/STM32L0xx_HAL_Driver/Src/stm32l0xx_hal_pwr.c **** 
 550:Drivers/STM32L0xx_HAL_Driver/Src/stm32l0xx_hal_pwr.c ****   /* Set SLEEPDEEP bit of Cortex System Control Register */
 551:Drivers/STM32L0xx_HAL_Driver/Src/stm32l0xx_hal_pwr.c ****   SET_BIT(SCB->SCR, SCB_SCR_SLEEPDEEP_Msk);
 527              		.loc 1 551 3 is_stmt 1 view .LVU91
 528 000e 0A4A     		ldr	r2, .L39+4
 529 0010 1369     		ldr	r3, [r2, #16]
 530              	.LVL16:
 531              		.loc 1 551 3 is_stmt 0 view .LVU92
 532 0012 0420     		movs	r0, #4
 533              	.LVL17:
 534              		.loc 1 551 3 view .LVU93
ARM GAS  /tmp/cc1ege1D.s 			page 27


 535 0014 0343     		orrs	r3, r0
 536 0016 1361     		str	r3, [r2, #16]
 537              	.LVL18:
 552:Drivers/STM32L0xx_HAL_Driver/Src/stm32l0xx_hal_pwr.c **** 
 553:Drivers/STM32L0xx_HAL_Driver/Src/stm32l0xx_hal_pwr.c ****   /* Select Stop mode entry --------------------------------------------------*/
 554:Drivers/STM32L0xx_HAL_Driver/Src/stm32l0xx_hal_pwr.c ****   if(STOPEntry == PWR_STOPENTRY_WFI)
 538              		.loc 1 554 3 is_stmt 1 view .LVU94
 539              		.loc 1 554 5 is_stmt 0 view .LVU95
 540 0018 0129     		cmp	r1, #1
 541 001a 08D0     		beq	.L38
 555:Drivers/STM32L0xx_HAL_Driver/Src/stm32l0xx_hal_pwr.c ****   {
 556:Drivers/STM32L0xx_HAL_Driver/Src/stm32l0xx_hal_pwr.c ****     /* Request Wait For Interrupt */
 557:Drivers/STM32L0xx_HAL_Driver/Src/stm32l0xx_hal_pwr.c ****     __WFI();
 558:Drivers/STM32L0xx_HAL_Driver/Src/stm32l0xx_hal_pwr.c ****   }
 559:Drivers/STM32L0xx_HAL_Driver/Src/stm32l0xx_hal_pwr.c ****   else
 560:Drivers/STM32L0xx_HAL_Driver/Src/stm32l0xx_hal_pwr.c ****   {
 561:Drivers/STM32L0xx_HAL_Driver/Src/stm32l0xx_hal_pwr.c ****     /* Request Wait For Event */
 562:Drivers/STM32L0xx_HAL_Driver/Src/stm32l0xx_hal_pwr.c ****     __SEV();
 542              		.loc 1 562 5 is_stmt 1 view .LVU96
 543              	.LBB32:
 544              	.LBI32:
 404:Drivers/CMSIS/Include/cmsis_gcc.h **** {
 545              		.loc 2 404 53 view .LVU97
 546              	.LBB33:
 547              		.loc 2 406 3 view .LVU98
 548              		.syntax divided
 549              	@ 406 "Drivers/CMSIS/Include/cmsis_gcc.h" 1
 550 001c 40BF     		sev
 551              	@ 0 "" 2
 552              		.thumb
 553              		.syntax unified
 554              	.LBE33:
 555              	.LBE32:
 563:Drivers/STM32L0xx_HAL_Driver/Src/stm32l0xx_hal_pwr.c ****     __WFE();
 556              		.loc 1 563 5 view .LVU99
 557              	.LBB34:
 558              	.LBI34:
 394:Drivers/CMSIS/Include/cmsis_gcc.h **** {
 559              		.loc 2 394 53 view .LVU100
 560              	.LBB35:
 396:Drivers/CMSIS/Include/cmsis_gcc.h **** }
 561              		.loc 2 396 3 view .LVU101
 562              		.syntax divided
 563              	@ 396 "Drivers/CMSIS/Include/cmsis_gcc.h" 1
 564 001e 20BF     		wfe
 565              	@ 0 "" 2
 566              		.thumb
 567              		.syntax unified
 568              	.LBE35:
 569              	.LBE34:
 564:Drivers/STM32L0xx_HAL_Driver/Src/stm32l0xx_hal_pwr.c ****     __WFE();
 570              		.loc 1 564 5 view .LVU102
 571              	.LBB36:
 572              	.LBI36:
 394:Drivers/CMSIS/Include/cmsis_gcc.h **** {
 573              		.loc 2 394 53 view .LVU103
 574              	.LBB37:
ARM GAS  /tmp/cc1ege1D.s 			page 28


 396:Drivers/CMSIS/Include/cmsis_gcc.h **** }
 575              		.loc 2 396 3 view .LVU104
 576              		.syntax divided
 577              	@ 396 "Drivers/CMSIS/Include/cmsis_gcc.h" 1
 578 0020 20BF     		wfe
 579              	@ 0 "" 2
 580              		.thumb
 581              		.syntax unified
 582              	.L37:
 583              	.LBE37:
 584              	.LBE36:
 565:Drivers/STM32L0xx_HAL_Driver/Src/stm32l0xx_hal_pwr.c ****   }
 566:Drivers/STM32L0xx_HAL_Driver/Src/stm32l0xx_hal_pwr.c ****  
 567:Drivers/STM32L0xx_HAL_Driver/Src/stm32l0xx_hal_pwr.c ****   /* Reset SLEEPDEEP bit of Cortex System Control Register */
 568:Drivers/STM32L0xx_HAL_Driver/Src/stm32l0xx_hal_pwr.c ****   CLEAR_BIT(SCB->SCR, SCB_SCR_SLEEPDEEP_Msk);
 585              		.loc 1 568 3 view .LVU105
 586 0022 054A     		ldr	r2, .L39+4
 587 0024 1369     		ldr	r3, [r2, #16]
 588 0026 0421     		movs	r1, #4
 589              	.LVL19:
 590              		.loc 1 568 3 is_stmt 0 view .LVU106
 591 0028 8B43     		bics	r3, r1
 592 002a 1361     		str	r3, [r2, #16]
 569:Drivers/STM32L0xx_HAL_Driver/Src/stm32l0xx_hal_pwr.c **** 
 570:Drivers/STM32L0xx_HAL_Driver/Src/stm32l0xx_hal_pwr.c **** }
 593              		.loc 1 570 1 view .LVU107
 594              		@ sp needed
 595              		.loc 1 570 1 view .LVU108
 596 002c 10BD     		pop	{r4, pc}
 597              	.LVL20:
 598              	.L38:
 557:Drivers/STM32L0xx_HAL_Driver/Src/stm32l0xx_hal_pwr.c ****   }
 599              		.loc 1 557 5 is_stmt 1 view .LVU109
 600              	.LBB38:
 601              	.LBI38:
 383:Drivers/CMSIS/Include/cmsis_gcc.h **** {
 602              		.loc 2 383 53 view .LVU110
 603              	.LBB39:
 385:Drivers/CMSIS/Include/cmsis_gcc.h **** }
 604              		.loc 2 385 3 view .LVU111
 605              		.syntax divided
 606              	@ 385 "Drivers/CMSIS/Include/cmsis_gcc.h" 1
 607 002e 30BF     		wfi
 608              	@ 0 "" 2
 386:Drivers/CMSIS/Include/cmsis_gcc.h **** 
 609              		.loc 2 386 1 is_stmt 0 view .LVU112
 610              		.thumb
 611              		.syntax unified
 612 0030 F7E7     		b	.L37
 613              	.L40:
 614 0032 C046     		.align	2
 615              	.L39:
 616 0034 00700040 		.word	1073770496
 617 0038 00ED00E0 		.word	-536810240
 618              	.LBE39:
 619              	.LBE38:
 620              		.cfi_endproc
ARM GAS  /tmp/cc1ege1D.s 			page 29


 621              	.LFE43:
 623              		.section	.text.HAL_PWR_EnterSTANDBYMode,"ax",%progbits
 624              		.align	1
 625              		.global	HAL_PWR_EnterSTANDBYMode
 626              		.syntax unified
 627              		.code	16
 628              		.thumb_func
 630              	HAL_PWR_EnterSTANDBYMode:
 631              	.LFB44:
 571:Drivers/STM32L0xx_HAL_Driver/Src/stm32l0xx_hal_pwr.c **** 
 572:Drivers/STM32L0xx_HAL_Driver/Src/stm32l0xx_hal_pwr.c **** /**
 573:Drivers/STM32L0xx_HAL_Driver/Src/stm32l0xx_hal_pwr.c ****   * @brief Enters Standby mode.
 574:Drivers/STM32L0xx_HAL_Driver/Src/stm32l0xx_hal_pwr.c ****   * @note In Standby mode, all I/O pins are high impedance except for:
 575:Drivers/STM32L0xx_HAL_Driver/Src/stm32l0xx_hal_pwr.c ****   *          - Reset pad (still available) 
 576:Drivers/STM32L0xx_HAL_Driver/Src/stm32l0xx_hal_pwr.c ****   *          - RTC_AF1 pin (PC13) if configured for tamper, time-stamp, RTC
 577:Drivers/STM32L0xx_HAL_Driver/Src/stm32l0xx_hal_pwr.c ****   *            Alarm out, or RTC clock calibration out.
 578:Drivers/STM32L0xx_HAL_Driver/Src/stm32l0xx_hal_pwr.c ****   *          - RTC_AF2 pin (PC13) if configured for tamper.
 579:Drivers/STM32L0xx_HAL_Driver/Src/stm32l0xx_hal_pwr.c ****   *          - WKUP pin 1 (PA00) if enabled.
 580:Drivers/STM32L0xx_HAL_Driver/Src/stm32l0xx_hal_pwr.c ****   *          - WKUP pin 2 (PC13) if enabled.
 581:Drivers/STM32L0xx_HAL_Driver/Src/stm32l0xx_hal_pwr.c ****   *          - WKUP pin 3 (PE06) if enabled, for stm32l07xxx and stm32l08xxx devices only.
 582:Drivers/STM32L0xx_HAL_Driver/Src/stm32l0xx_hal_pwr.c ****   *          - WKUP pin 3 (PA02) if enabled, for stm32l031xx devices only.
 583:Drivers/STM32L0xx_HAL_Driver/Src/stm32l0xx_hal_pwr.c ****   * @retval None
 584:Drivers/STM32L0xx_HAL_Driver/Src/stm32l0xx_hal_pwr.c ****   */
 585:Drivers/STM32L0xx_HAL_Driver/Src/stm32l0xx_hal_pwr.c **** void HAL_PWR_EnterSTANDBYMode(void)
 586:Drivers/STM32L0xx_HAL_Driver/Src/stm32l0xx_hal_pwr.c **** {
 632              		.loc 1 586 1 is_stmt 1 view -0
 633              		.cfi_startproc
 634              		@ args = 0, pretend = 0, frame = 0
 635              		@ frame_needed = 0, uses_anonymous_args = 0
 636              		@ link register save eliminated.
 587:Drivers/STM32L0xx_HAL_Driver/Src/stm32l0xx_hal_pwr.c ****   /* Select Standby mode */
 588:Drivers/STM32L0xx_HAL_Driver/Src/stm32l0xx_hal_pwr.c ****   SET_BIT(PWR->CR, PWR_CR_PDDS);
 637              		.loc 1 588 3 view .LVU114
 638 0000 054A     		ldr	r2, .L42
 639 0002 1368     		ldr	r3, [r2]
 640 0004 0221     		movs	r1, #2
 641 0006 0B43     		orrs	r3, r1
 642 0008 1360     		str	r3, [r2]
 589:Drivers/STM32L0xx_HAL_Driver/Src/stm32l0xx_hal_pwr.c **** 
 590:Drivers/STM32L0xx_HAL_Driver/Src/stm32l0xx_hal_pwr.c ****   /* Set SLEEPDEEP bit of Cortex System Control Register */
 591:Drivers/STM32L0xx_HAL_Driver/Src/stm32l0xx_hal_pwr.c ****   SET_BIT(SCB->SCR, SCB_SCR_SLEEPDEEP_Msk);
 643              		.loc 1 591 3 view .LVU115
 644 000a 044A     		ldr	r2, .L42+4
 645 000c 1369     		ldr	r3, [r2, #16]
 646 000e 0231     		adds	r1, r1, #2
 647 0010 0B43     		orrs	r3, r1
 648 0012 1361     		str	r3, [r2, #16]
 592:Drivers/STM32L0xx_HAL_Driver/Src/stm32l0xx_hal_pwr.c **** 
 593:Drivers/STM32L0xx_HAL_Driver/Src/stm32l0xx_hal_pwr.c ****   /* This option is used to ensure that store operations are completed */
 594:Drivers/STM32L0xx_HAL_Driver/Src/stm32l0xx_hal_pwr.c **** #if defined ( __CC_ARM)
 595:Drivers/STM32L0xx_HAL_Driver/Src/stm32l0xx_hal_pwr.c ****   __force_stores();
 596:Drivers/STM32L0xx_HAL_Driver/Src/stm32l0xx_hal_pwr.c **** #endif
 597:Drivers/STM32L0xx_HAL_Driver/Src/stm32l0xx_hal_pwr.c ****   /* Request Wait For Interrupt */
 598:Drivers/STM32L0xx_HAL_Driver/Src/stm32l0xx_hal_pwr.c ****   __WFI();
 649              		.loc 1 598 3 view .LVU116
 650              	.LBB40:
 651              	.LBI40:
ARM GAS  /tmp/cc1ege1D.s 			page 30


 383:Drivers/CMSIS/Include/cmsis_gcc.h **** {
 652              		.loc 2 383 53 view .LVU117
 653              	.LBB41:
 385:Drivers/CMSIS/Include/cmsis_gcc.h **** }
 654              		.loc 2 385 3 view .LVU118
 655              		.syntax divided
 656              	@ 385 "Drivers/CMSIS/Include/cmsis_gcc.h" 1
 657 0014 30BF     		wfi
 658              	@ 0 "" 2
 659              		.thumb
 660              		.syntax unified
 661              	.LBE41:
 662              	.LBE40:
 599:Drivers/STM32L0xx_HAL_Driver/Src/stm32l0xx_hal_pwr.c **** }
 663              		.loc 1 599 1 is_stmt 0 view .LVU119
 664              		@ sp needed
 665 0016 7047     		bx	lr
 666              	.L43:
 667              		.align	2
 668              	.L42:
 669 0018 00700040 		.word	1073770496
 670 001c 00ED00E0 		.word	-536810240
 671              		.cfi_endproc
 672              	.LFE44:
 674              		.section	.text.HAL_PWR_EnableSleepOnExit,"ax",%progbits
 675              		.align	1
 676              		.global	HAL_PWR_EnableSleepOnExit
 677              		.syntax unified
 678              		.code	16
 679              		.thumb_func
 681              	HAL_PWR_EnableSleepOnExit:
 682              	.LFB45:
 600:Drivers/STM32L0xx_HAL_Driver/Src/stm32l0xx_hal_pwr.c **** 
 601:Drivers/STM32L0xx_HAL_Driver/Src/stm32l0xx_hal_pwr.c **** /**
 602:Drivers/STM32L0xx_HAL_Driver/Src/stm32l0xx_hal_pwr.c ****   * @brief Indicates Sleep-On-Exit when returning from Handler mode to Thread mode. 
 603:Drivers/STM32L0xx_HAL_Driver/Src/stm32l0xx_hal_pwr.c ****   * @note Set SLEEPONEXIT bit of SCR register. When this bit is set, the processor 
 604:Drivers/STM32L0xx_HAL_Driver/Src/stm32l0xx_hal_pwr.c ****   *       re-enters SLEEP mode when an interruption handling is over.
 605:Drivers/STM32L0xx_HAL_Driver/Src/stm32l0xx_hal_pwr.c ****   *       Setting this bit is useful when the processor is expected to run only on
 606:Drivers/STM32L0xx_HAL_Driver/Src/stm32l0xx_hal_pwr.c ****   *       interruptions handling.         
 607:Drivers/STM32L0xx_HAL_Driver/Src/stm32l0xx_hal_pwr.c ****   * @retval None
 608:Drivers/STM32L0xx_HAL_Driver/Src/stm32l0xx_hal_pwr.c ****   */
 609:Drivers/STM32L0xx_HAL_Driver/Src/stm32l0xx_hal_pwr.c **** void HAL_PWR_EnableSleepOnExit(void)
 610:Drivers/STM32L0xx_HAL_Driver/Src/stm32l0xx_hal_pwr.c **** {
 683              		.loc 1 610 1 is_stmt 1 view -0
 684              		.cfi_startproc
 685              		@ args = 0, pretend = 0, frame = 0
 686              		@ frame_needed = 0, uses_anonymous_args = 0
 687              		@ link register save eliminated.
 611:Drivers/STM32L0xx_HAL_Driver/Src/stm32l0xx_hal_pwr.c ****   /* Set SLEEPONEXIT bit of Cortex System Control Register */
 612:Drivers/STM32L0xx_HAL_Driver/Src/stm32l0xx_hal_pwr.c ****   SET_BIT(SCB->SCR, ((uint32_t)SCB_SCR_SLEEPONEXIT_Msk));
 688              		.loc 1 612 3 view .LVU121
 689 0000 024A     		ldr	r2, .L45
 690 0002 1369     		ldr	r3, [r2, #16]
 691 0004 0221     		movs	r1, #2
 692 0006 0B43     		orrs	r3, r1
 693 0008 1361     		str	r3, [r2, #16]
 613:Drivers/STM32L0xx_HAL_Driver/Src/stm32l0xx_hal_pwr.c **** }
ARM GAS  /tmp/cc1ege1D.s 			page 31


 694              		.loc 1 613 1 is_stmt 0 view .LVU122
 695              		@ sp needed
 696 000a 7047     		bx	lr
 697              	.L46:
 698              		.align	2
 699              	.L45:
 700 000c 00ED00E0 		.word	-536810240
 701              		.cfi_endproc
 702              	.LFE45:
 704              		.section	.text.HAL_PWR_DisableSleepOnExit,"ax",%progbits
 705              		.align	1
 706              		.global	HAL_PWR_DisableSleepOnExit
 707              		.syntax unified
 708              		.code	16
 709              		.thumb_func
 711              	HAL_PWR_DisableSleepOnExit:
 712              	.LFB46:
 614:Drivers/STM32L0xx_HAL_Driver/Src/stm32l0xx_hal_pwr.c **** 
 615:Drivers/STM32L0xx_HAL_Driver/Src/stm32l0xx_hal_pwr.c **** 
 616:Drivers/STM32L0xx_HAL_Driver/Src/stm32l0xx_hal_pwr.c **** /**
 617:Drivers/STM32L0xx_HAL_Driver/Src/stm32l0xx_hal_pwr.c ****   * @brief Disables Sleep-On-Exit feature when returning from Handler mode to Thread mode. 
 618:Drivers/STM32L0xx_HAL_Driver/Src/stm32l0xx_hal_pwr.c ****   * @note Clears SLEEPONEXIT bit of SCR register. When this bit is set, the processor 
 619:Drivers/STM32L0xx_HAL_Driver/Src/stm32l0xx_hal_pwr.c ****   *       re-enters SLEEP mode when an interruption handling is over.          
 620:Drivers/STM32L0xx_HAL_Driver/Src/stm32l0xx_hal_pwr.c ****   * @retval None
 621:Drivers/STM32L0xx_HAL_Driver/Src/stm32l0xx_hal_pwr.c ****   */
 622:Drivers/STM32L0xx_HAL_Driver/Src/stm32l0xx_hal_pwr.c **** void HAL_PWR_DisableSleepOnExit(void)
 623:Drivers/STM32L0xx_HAL_Driver/Src/stm32l0xx_hal_pwr.c **** {
 713              		.loc 1 623 1 is_stmt 1 view -0
 714              		.cfi_startproc
 715              		@ args = 0, pretend = 0, frame = 0
 716              		@ frame_needed = 0, uses_anonymous_args = 0
 717              		@ link register save eliminated.
 624:Drivers/STM32L0xx_HAL_Driver/Src/stm32l0xx_hal_pwr.c ****   /* Clear SLEEPONEXIT bit of Cortex System Control Register */
 625:Drivers/STM32L0xx_HAL_Driver/Src/stm32l0xx_hal_pwr.c ****   CLEAR_BIT(SCB->SCR, ((uint32_t)SCB_SCR_SLEEPONEXIT_Msk));
 718              		.loc 1 625 3 view .LVU124
 719 0000 024A     		ldr	r2, .L48
 720 0002 1369     		ldr	r3, [r2, #16]
 721 0004 0221     		movs	r1, #2
 722 0006 8B43     		bics	r3, r1
 723 0008 1361     		str	r3, [r2, #16]
 626:Drivers/STM32L0xx_HAL_Driver/Src/stm32l0xx_hal_pwr.c **** }
 724              		.loc 1 626 1 is_stmt 0 view .LVU125
 725              		@ sp needed
 726 000a 7047     		bx	lr
 727              	.L49:
 728              		.align	2
 729              	.L48:
 730 000c 00ED00E0 		.word	-536810240
 731              		.cfi_endproc
 732              	.LFE46:
 734              		.section	.text.HAL_PWR_EnableSEVOnPend,"ax",%progbits
 735              		.align	1
 736              		.global	HAL_PWR_EnableSEVOnPend
 737              		.syntax unified
 738              		.code	16
 739              		.thumb_func
 741              	HAL_PWR_EnableSEVOnPend:
ARM GAS  /tmp/cc1ege1D.s 			page 32


 742              	.LFB47:
 627:Drivers/STM32L0xx_HAL_Driver/Src/stm32l0xx_hal_pwr.c **** 
 628:Drivers/STM32L0xx_HAL_Driver/Src/stm32l0xx_hal_pwr.c **** 
 629:Drivers/STM32L0xx_HAL_Driver/Src/stm32l0xx_hal_pwr.c **** /**
 630:Drivers/STM32L0xx_HAL_Driver/Src/stm32l0xx_hal_pwr.c ****   * @brief Enables CORTEX M0+ SEVONPEND bit. 
 631:Drivers/STM32L0xx_HAL_Driver/Src/stm32l0xx_hal_pwr.c ****   * @note Sets SEVONPEND bit of SCR register. When this bit is set, this causes 
 632:Drivers/STM32L0xx_HAL_Driver/Src/stm32l0xx_hal_pwr.c ****   *       WFE to wake up when an interrupt moves from inactive to pended.
 633:Drivers/STM32L0xx_HAL_Driver/Src/stm32l0xx_hal_pwr.c ****   * @retval None
 634:Drivers/STM32L0xx_HAL_Driver/Src/stm32l0xx_hal_pwr.c ****   */
 635:Drivers/STM32L0xx_HAL_Driver/Src/stm32l0xx_hal_pwr.c **** void HAL_PWR_EnableSEVOnPend(void)
 636:Drivers/STM32L0xx_HAL_Driver/Src/stm32l0xx_hal_pwr.c **** {
 743              		.loc 1 636 1 is_stmt 1 view -0
 744              		.cfi_startproc
 745              		@ args = 0, pretend = 0, frame = 0
 746              		@ frame_needed = 0, uses_anonymous_args = 0
 747              		@ link register save eliminated.
 637:Drivers/STM32L0xx_HAL_Driver/Src/stm32l0xx_hal_pwr.c ****   /* Set SEVONPEND bit of Cortex System Control Register */
 638:Drivers/STM32L0xx_HAL_Driver/Src/stm32l0xx_hal_pwr.c ****   SET_BIT(SCB->SCR, ((uint32_t)SCB_SCR_SEVONPEND_Msk));
 748              		.loc 1 638 3 view .LVU127
 749 0000 024A     		ldr	r2, .L51
 750 0002 1369     		ldr	r3, [r2, #16]
 751 0004 1021     		movs	r1, #16
 752 0006 0B43     		orrs	r3, r1
 753 0008 1361     		str	r3, [r2, #16]
 639:Drivers/STM32L0xx_HAL_Driver/Src/stm32l0xx_hal_pwr.c **** }
 754              		.loc 1 639 1 is_stmt 0 view .LVU128
 755              		@ sp needed
 756 000a 7047     		bx	lr
 757              	.L52:
 758              		.align	2
 759              	.L51:
 760 000c 00ED00E0 		.word	-536810240
 761              		.cfi_endproc
 762              	.LFE47:
 764              		.section	.text.HAL_PWR_DisableSEVOnPend,"ax",%progbits
 765              		.align	1
 766              		.global	HAL_PWR_DisableSEVOnPend
 767              		.syntax unified
 768              		.code	16
 769              		.thumb_func
 771              	HAL_PWR_DisableSEVOnPend:
 772              	.LFB48:
 640:Drivers/STM32L0xx_HAL_Driver/Src/stm32l0xx_hal_pwr.c **** 
 641:Drivers/STM32L0xx_HAL_Driver/Src/stm32l0xx_hal_pwr.c **** 
 642:Drivers/STM32L0xx_HAL_Driver/Src/stm32l0xx_hal_pwr.c **** /**
 643:Drivers/STM32L0xx_HAL_Driver/Src/stm32l0xx_hal_pwr.c ****   * @brief Disables CORTEX M0+ SEVONPEND bit. 
 644:Drivers/STM32L0xx_HAL_Driver/Src/stm32l0xx_hal_pwr.c ****   * @note Clears SEVONPEND bit of SCR register. When this bit is set, this causes 
 645:Drivers/STM32L0xx_HAL_Driver/Src/stm32l0xx_hal_pwr.c ****   *       WFE to wake up when an interrupt moves from inactive to pended.         
 646:Drivers/STM32L0xx_HAL_Driver/Src/stm32l0xx_hal_pwr.c ****   * @retval None
 647:Drivers/STM32L0xx_HAL_Driver/Src/stm32l0xx_hal_pwr.c ****   */
 648:Drivers/STM32L0xx_HAL_Driver/Src/stm32l0xx_hal_pwr.c **** void HAL_PWR_DisableSEVOnPend(void)
 649:Drivers/STM32L0xx_HAL_Driver/Src/stm32l0xx_hal_pwr.c **** {
 773              		.loc 1 649 1 is_stmt 1 view -0
 774              		.cfi_startproc
 775              		@ args = 0, pretend = 0, frame = 0
 776              		@ frame_needed = 0, uses_anonymous_args = 0
 777              		@ link register save eliminated.
ARM GAS  /tmp/cc1ege1D.s 			page 33


 650:Drivers/STM32L0xx_HAL_Driver/Src/stm32l0xx_hal_pwr.c ****   /* Clear SEVONPEND bit of Cortex System Control Register */
 651:Drivers/STM32L0xx_HAL_Driver/Src/stm32l0xx_hal_pwr.c ****   CLEAR_BIT(SCB->SCR, ((uint32_t)SCB_SCR_SEVONPEND_Msk));
 778              		.loc 1 651 3 view .LVU130
 779 0000 024A     		ldr	r2, .L54
 780 0002 1369     		ldr	r3, [r2, #16]
 781 0004 1021     		movs	r1, #16
 782 0006 8B43     		bics	r3, r1
 783 0008 1361     		str	r3, [r2, #16]
 652:Drivers/STM32L0xx_HAL_Driver/Src/stm32l0xx_hal_pwr.c **** }
 784              		.loc 1 652 1 is_stmt 0 view .LVU131
 785              		@ sp needed
 786 000a 7047     		bx	lr
 787              	.L55:
 788              		.align	2
 789              	.L54:
 790 000c 00ED00E0 		.word	-536810240
 791              		.cfi_endproc
 792              	.LFE48:
 794              		.section	.text.HAL_PWR_PVDCallback,"ax",%progbits
 795              		.align	1
 796              		.weak	HAL_PWR_PVDCallback
 797              		.syntax unified
 798              		.code	16
 799              		.thumb_func
 801              	HAL_PWR_PVDCallback:
 802              	.LFB50:
 653:Drivers/STM32L0xx_HAL_Driver/Src/stm32l0xx_hal_pwr.c **** 
 654:Drivers/STM32L0xx_HAL_Driver/Src/stm32l0xx_hal_pwr.c **** #if defined(PWR_PVD_SUPPORT)
 655:Drivers/STM32L0xx_HAL_Driver/Src/stm32l0xx_hal_pwr.c **** /**
 656:Drivers/STM32L0xx_HAL_Driver/Src/stm32l0xx_hal_pwr.c ****   * @brief This function handles the PWR PVD interrupt request.
 657:Drivers/STM32L0xx_HAL_Driver/Src/stm32l0xx_hal_pwr.c ****   * @note This API should be called under the PVD_IRQHandler().
 658:Drivers/STM32L0xx_HAL_Driver/Src/stm32l0xx_hal_pwr.c ****   * @retval None
 659:Drivers/STM32L0xx_HAL_Driver/Src/stm32l0xx_hal_pwr.c ****   */
 660:Drivers/STM32L0xx_HAL_Driver/Src/stm32l0xx_hal_pwr.c **** void HAL_PWR_PVD_IRQHandler(void)
 661:Drivers/STM32L0xx_HAL_Driver/Src/stm32l0xx_hal_pwr.c **** {
 662:Drivers/STM32L0xx_HAL_Driver/Src/stm32l0xx_hal_pwr.c ****   /* Check PWR exti flag */
 663:Drivers/STM32L0xx_HAL_Driver/Src/stm32l0xx_hal_pwr.c ****   if(__HAL_PWR_PVD_EXTI_GET_FLAG() != RESET)
 664:Drivers/STM32L0xx_HAL_Driver/Src/stm32l0xx_hal_pwr.c ****   {
 665:Drivers/STM32L0xx_HAL_Driver/Src/stm32l0xx_hal_pwr.c ****     /* PWR PVD interrupt user callback */
 666:Drivers/STM32L0xx_HAL_Driver/Src/stm32l0xx_hal_pwr.c ****     HAL_PWR_PVDCallback();
 667:Drivers/STM32L0xx_HAL_Driver/Src/stm32l0xx_hal_pwr.c **** 
 668:Drivers/STM32L0xx_HAL_Driver/Src/stm32l0xx_hal_pwr.c ****     /* Clear PWR Exti pending bit */
 669:Drivers/STM32L0xx_HAL_Driver/Src/stm32l0xx_hal_pwr.c ****     __HAL_PWR_PVD_EXTI_CLEAR_FLAG();
 670:Drivers/STM32L0xx_HAL_Driver/Src/stm32l0xx_hal_pwr.c ****   }
 671:Drivers/STM32L0xx_HAL_Driver/Src/stm32l0xx_hal_pwr.c **** }
 672:Drivers/STM32L0xx_HAL_Driver/Src/stm32l0xx_hal_pwr.c **** 
 673:Drivers/STM32L0xx_HAL_Driver/Src/stm32l0xx_hal_pwr.c **** /**
 674:Drivers/STM32L0xx_HAL_Driver/Src/stm32l0xx_hal_pwr.c ****   * @brief  PWR PVD interrupt callback
 675:Drivers/STM32L0xx_HAL_Driver/Src/stm32l0xx_hal_pwr.c ****   * @retval None
 676:Drivers/STM32L0xx_HAL_Driver/Src/stm32l0xx_hal_pwr.c ****   */
 677:Drivers/STM32L0xx_HAL_Driver/Src/stm32l0xx_hal_pwr.c **** __weak void HAL_PWR_PVDCallback(void)
 678:Drivers/STM32L0xx_HAL_Driver/Src/stm32l0xx_hal_pwr.c **** {
 803              		.loc 1 678 1 is_stmt 1 view -0
 804              		.cfi_startproc
 805              		@ args = 0, pretend = 0, frame = 0
 806              		@ frame_needed = 0, uses_anonymous_args = 0
 807              		@ link register save eliminated.
ARM GAS  /tmp/cc1ege1D.s 			page 34


 679:Drivers/STM32L0xx_HAL_Driver/Src/stm32l0xx_hal_pwr.c ****   /* NOTE : This function Should not be modified, when the callback is needed,
 680:Drivers/STM32L0xx_HAL_Driver/Src/stm32l0xx_hal_pwr.c ****             the HAL_PWR_PVDCallback could be implemented in the user file
 681:Drivers/STM32L0xx_HAL_Driver/Src/stm32l0xx_hal_pwr.c ****    */ 
 682:Drivers/STM32L0xx_HAL_Driver/Src/stm32l0xx_hal_pwr.c **** }
 808              		.loc 1 682 1 view .LVU133
 809              		@ sp needed
 810 0000 7047     		bx	lr
 811              		.cfi_endproc
 812              	.LFE50:
 814              		.section	.text.HAL_PWR_PVD_IRQHandler,"ax",%progbits
 815              		.align	1
 816              		.global	HAL_PWR_PVD_IRQHandler
 817              		.syntax unified
 818              		.code	16
 819              		.thumb_func
 821              	HAL_PWR_PVD_IRQHandler:
 822              	.LFB49:
 661:Drivers/STM32L0xx_HAL_Driver/Src/stm32l0xx_hal_pwr.c ****   /* Check PWR exti flag */
 823              		.loc 1 661 1 view -0
 824              		.cfi_startproc
 825              		@ args = 0, pretend = 0, frame = 0
 826              		@ frame_needed = 0, uses_anonymous_args = 0
 827 0000 10B5     		push	{r4, lr}
 828              	.LCFI2:
 829              		.cfi_def_cfa_offset 8
 830              		.cfi_offset 4, -8
 831              		.cfi_offset 14, -4
 663:Drivers/STM32L0xx_HAL_Driver/Src/stm32l0xx_hal_pwr.c ****   {
 832              		.loc 1 663 3 view .LVU135
 663:Drivers/STM32L0xx_HAL_Driver/Src/stm32l0xx_hal_pwr.c ****   {
 833              		.loc 1 663 6 is_stmt 0 view .LVU136
 834 0002 064B     		ldr	r3, .L60
 835 0004 5B69     		ldr	r3, [r3, #20]
 663:Drivers/STM32L0xx_HAL_Driver/Src/stm32l0xx_hal_pwr.c ****   {
 836              		.loc 1 663 5 view .LVU137
 837 0006 DB03     		lsls	r3, r3, #15
 838 0008 00D4     		bmi	.L59
 839              	.L57:
 671:Drivers/STM32L0xx_HAL_Driver/Src/stm32l0xx_hal_pwr.c **** 
 840              		.loc 1 671 1 view .LVU138
 841              		@ sp needed
 842 000a 10BD     		pop	{r4, pc}
 843              	.L59:
 666:Drivers/STM32L0xx_HAL_Driver/Src/stm32l0xx_hal_pwr.c **** 
 844              		.loc 1 666 5 is_stmt 1 view .LVU139
 845 000c FFF7FEFF 		bl	HAL_PWR_PVDCallback
 846              	.LVL21:
 669:Drivers/STM32L0xx_HAL_Driver/Src/stm32l0xx_hal_pwr.c ****   }
 847              		.loc 1 669 5 view .LVU140
 848 0010 024B     		ldr	r3, .L60
 849 0012 8022     		movs	r2, #128
 850 0014 5202     		lsls	r2, r2, #9
 851 0016 5A61     		str	r2, [r3, #20]
 671:Drivers/STM32L0xx_HAL_Driver/Src/stm32l0xx_hal_pwr.c **** 
 852              		.loc 1 671 1 is_stmt 0 view .LVU141
 853 0018 F7E7     		b	.L57
 854              	.L61:
ARM GAS  /tmp/cc1ege1D.s 			page 35


 855 001a C046     		.align	2
 856              	.L60:
 857 001c 00040140 		.word	1073808384
 858              		.cfi_endproc
 859              	.LFE49:
 861              		.text
 862              	.Letext0:
 863              		.file 3 "/home/thomas/programme/gcc-arm-none-eabi-10.3-2021.10/arm-none-eabi/include/machine/_defa
 864              		.file 4 "/home/thomas/programme/gcc-arm-none-eabi-10.3-2021.10/arm-none-eabi/include/sys/_stdint.h
 865              		.file 5 "Drivers/CMSIS/Include/core_cm0plus.h"
 866              		.file 6 "Drivers/CMSIS/Device/ST/STM32L0xx/Include/stm32l052xx.h"
 867              		.file 7 "Drivers/STM32L0xx_HAL_Driver/Inc/stm32l0xx_hal_pwr.h"
 868              		.file 8 "Drivers/CMSIS/Device/ST/STM32L0xx/Include/stm32l0xx.h"
ARM GAS  /tmp/cc1ege1D.s 			page 36

