ARM GAS  /tmp/ccSuEEYJ.s 			page 1


   1              		.cpu cortex-m0plus
   2              		.arch armv6s-m
   3              		.fpu softvfp
   4              		.eabi_attribute 20, 1
   5              		.eabi_attribute 21, 1
   6              		.eabi_attribute 23, 3
   7              		.eabi_attribute 24, 1
   8              		.eabi_attribute 25, 1
   9              		.eabi_attribute 26, 1
  10              		.eabi_attribute 30, 1
  11              		.eabi_attribute 34, 0
  12              		.eabi_attribute 18, 4
  13              		.file	"stm32l0xx_ll_usb.c"
  14              		.text
  15              	.Ltext0:
  16              		.cfi_sections	.debug_frame
  17              		.section	.text.USB_CoreInit,"ax",%progbits
  18              		.align	1
  19              		.global	USB_CoreInit
  20              		.syntax unified
  21              		.code	16
  22              		.thumb_func
  24              	USB_CoreInit:
  25              	.LVL0:
  26              	.LFB34:
  27              		.file 1 "Drivers/STM32L0xx_HAL_Driver/Src/stm32l0xx_ll_usb.c"
   1:Drivers/STM32L0xx_HAL_Driver/Src/stm32l0xx_ll_usb.c **** /**
   2:Drivers/STM32L0xx_HAL_Driver/Src/stm32l0xx_ll_usb.c ****   ******************************************************************************
   3:Drivers/STM32L0xx_HAL_Driver/Src/stm32l0xx_ll_usb.c ****   * @file    stm32l0xx_ll_usb.c
   4:Drivers/STM32L0xx_HAL_Driver/Src/stm32l0xx_ll_usb.c ****   * @author  MCD Application Team
   5:Drivers/STM32L0xx_HAL_Driver/Src/stm32l0xx_ll_usb.c ****   * @brief   USB Low Layer HAL module driver.
   6:Drivers/STM32L0xx_HAL_Driver/Src/stm32l0xx_ll_usb.c ****   *
   7:Drivers/STM32L0xx_HAL_Driver/Src/stm32l0xx_ll_usb.c ****   *          This file provides firmware functions to manage the following
   8:Drivers/STM32L0xx_HAL_Driver/Src/stm32l0xx_ll_usb.c ****   *          functionalities of the USB Peripheral Controller:
   9:Drivers/STM32L0xx_HAL_Driver/Src/stm32l0xx_ll_usb.c ****   *           + Initialization/de-initialization functions
  10:Drivers/STM32L0xx_HAL_Driver/Src/stm32l0xx_ll_usb.c ****   *           + I/O operation functions
  11:Drivers/STM32L0xx_HAL_Driver/Src/stm32l0xx_ll_usb.c ****   *           + Peripheral Control functions
  12:Drivers/STM32L0xx_HAL_Driver/Src/stm32l0xx_ll_usb.c ****   *           + Peripheral State functions
  13:Drivers/STM32L0xx_HAL_Driver/Src/stm32l0xx_ll_usb.c ****   *
  14:Drivers/STM32L0xx_HAL_Driver/Src/stm32l0xx_ll_usb.c ****   @verbatim
  15:Drivers/STM32L0xx_HAL_Driver/Src/stm32l0xx_ll_usb.c ****   ==============================================================================
  16:Drivers/STM32L0xx_HAL_Driver/Src/stm32l0xx_ll_usb.c ****                     ##### How to use this driver #####
  17:Drivers/STM32L0xx_HAL_Driver/Src/stm32l0xx_ll_usb.c ****   ==============================================================================
  18:Drivers/STM32L0xx_HAL_Driver/Src/stm32l0xx_ll_usb.c ****     [..]
  19:Drivers/STM32L0xx_HAL_Driver/Src/stm32l0xx_ll_usb.c ****       (#) Fill parameters of Init structure in USB_OTG_CfgTypeDef structure.
  20:Drivers/STM32L0xx_HAL_Driver/Src/stm32l0xx_ll_usb.c **** 
  21:Drivers/STM32L0xx_HAL_Driver/Src/stm32l0xx_ll_usb.c ****       (#) Call USB_CoreInit() API to initialize the USB Core peripheral.
  22:Drivers/STM32L0xx_HAL_Driver/Src/stm32l0xx_ll_usb.c **** 
  23:Drivers/STM32L0xx_HAL_Driver/Src/stm32l0xx_ll_usb.c ****       (#) The upper HAL HCD/PCD driver will call the right routines for its internal processes.
  24:Drivers/STM32L0xx_HAL_Driver/Src/stm32l0xx_ll_usb.c **** 
  25:Drivers/STM32L0xx_HAL_Driver/Src/stm32l0xx_ll_usb.c ****   @endverbatim
  26:Drivers/STM32L0xx_HAL_Driver/Src/stm32l0xx_ll_usb.c ****   ******************************************************************************
  27:Drivers/STM32L0xx_HAL_Driver/Src/stm32l0xx_ll_usb.c ****   * @attention
  28:Drivers/STM32L0xx_HAL_Driver/Src/stm32l0xx_ll_usb.c ****   *
  29:Drivers/STM32L0xx_HAL_Driver/Src/stm32l0xx_ll_usb.c ****   * <h2><center>&copy; Copyright (c) 2016 STMicroelectronics.
  30:Drivers/STM32L0xx_HAL_Driver/Src/stm32l0xx_ll_usb.c ****   * All rights reserved.</center></h2>
  31:Drivers/STM32L0xx_HAL_Driver/Src/stm32l0xx_ll_usb.c ****   *
ARM GAS  /tmp/ccSuEEYJ.s 			page 2


  32:Drivers/STM32L0xx_HAL_Driver/Src/stm32l0xx_ll_usb.c ****   * This software component is licensed by ST under BSD 3-Clause license,
  33:Drivers/STM32L0xx_HAL_Driver/Src/stm32l0xx_ll_usb.c ****   * the "License"; You may not use this file except in compliance with the
  34:Drivers/STM32L0xx_HAL_Driver/Src/stm32l0xx_ll_usb.c ****   * License. You may obtain a copy of the License at:
  35:Drivers/STM32L0xx_HAL_Driver/Src/stm32l0xx_ll_usb.c ****   *                        opensource.org/licenses/BSD-3-Clause
  36:Drivers/STM32L0xx_HAL_Driver/Src/stm32l0xx_ll_usb.c ****   *
  37:Drivers/STM32L0xx_HAL_Driver/Src/stm32l0xx_ll_usb.c ****   ******************************************************************************
  38:Drivers/STM32L0xx_HAL_Driver/Src/stm32l0xx_ll_usb.c ****   */
  39:Drivers/STM32L0xx_HAL_Driver/Src/stm32l0xx_ll_usb.c **** 
  40:Drivers/STM32L0xx_HAL_Driver/Src/stm32l0xx_ll_usb.c **** /* Includes ------------------------------------------------------------------*/
  41:Drivers/STM32L0xx_HAL_Driver/Src/stm32l0xx_ll_usb.c **** #include "stm32l0xx_hal.h"
  42:Drivers/STM32L0xx_HAL_Driver/Src/stm32l0xx_ll_usb.c **** 
  43:Drivers/STM32L0xx_HAL_Driver/Src/stm32l0xx_ll_usb.c **** /** @addtogroup STM32L0xx_LL_USB_DRIVER
  44:Drivers/STM32L0xx_HAL_Driver/Src/stm32l0xx_ll_usb.c ****   * @{
  45:Drivers/STM32L0xx_HAL_Driver/Src/stm32l0xx_ll_usb.c ****   */
  46:Drivers/STM32L0xx_HAL_Driver/Src/stm32l0xx_ll_usb.c **** 
  47:Drivers/STM32L0xx_HAL_Driver/Src/stm32l0xx_ll_usb.c **** #if defined (HAL_PCD_MODULE_ENABLED) || defined (HAL_HCD_MODULE_ENABLED)
  48:Drivers/STM32L0xx_HAL_Driver/Src/stm32l0xx_ll_usb.c **** #if defined (USB)
  49:Drivers/STM32L0xx_HAL_Driver/Src/stm32l0xx_ll_usb.c **** /* Private typedef -----------------------------------------------------------*/
  50:Drivers/STM32L0xx_HAL_Driver/Src/stm32l0xx_ll_usb.c **** /* Private define ------------------------------------------------------------*/
  51:Drivers/STM32L0xx_HAL_Driver/Src/stm32l0xx_ll_usb.c **** /* Private macro -------------------------------------------------------------*/
  52:Drivers/STM32L0xx_HAL_Driver/Src/stm32l0xx_ll_usb.c **** /* Private variables ---------------------------------------------------------*/
  53:Drivers/STM32L0xx_HAL_Driver/Src/stm32l0xx_ll_usb.c **** /* Private function prototypes -----------------------------------------------*/
  54:Drivers/STM32L0xx_HAL_Driver/Src/stm32l0xx_ll_usb.c **** /* Private functions ---------------------------------------------------------*/
  55:Drivers/STM32L0xx_HAL_Driver/Src/stm32l0xx_ll_usb.c **** 
  56:Drivers/STM32L0xx_HAL_Driver/Src/stm32l0xx_ll_usb.c **** 
  57:Drivers/STM32L0xx_HAL_Driver/Src/stm32l0xx_ll_usb.c **** /**
  58:Drivers/STM32L0xx_HAL_Driver/Src/stm32l0xx_ll_usb.c ****   * @brief  Initializes the USB Core
  59:Drivers/STM32L0xx_HAL_Driver/Src/stm32l0xx_ll_usb.c ****   * @param  USBx USB Instance
  60:Drivers/STM32L0xx_HAL_Driver/Src/stm32l0xx_ll_usb.c ****   * @param  cfg pointer to a USB_CfgTypeDef structure that contains
  61:Drivers/STM32L0xx_HAL_Driver/Src/stm32l0xx_ll_usb.c ****   *         the configuration information for the specified USBx peripheral.
  62:Drivers/STM32L0xx_HAL_Driver/Src/stm32l0xx_ll_usb.c ****   * @retval HAL status
  63:Drivers/STM32L0xx_HAL_Driver/Src/stm32l0xx_ll_usb.c ****   */
  64:Drivers/STM32L0xx_HAL_Driver/Src/stm32l0xx_ll_usb.c **** HAL_StatusTypeDef USB_CoreInit(USB_TypeDef *USBx, USB_CfgTypeDef cfg)
  65:Drivers/STM32L0xx_HAL_Driver/Src/stm32l0xx_ll_usb.c **** {
  28              		.loc 1 65 1 view -0
  29              		.cfi_startproc
  30              		@ args = 36, pretend = 16, frame = 0
  31              		@ frame_needed = 0, uses_anonymous_args = 0
  32              		@ link register save eliminated.
  33              		.loc 1 65 1 is_stmt 0 view .LVU1
  34 0000 84B0     		sub	sp, sp, #16
  35              	.LCFI0:
  36              		.cfi_def_cfa_offset 16
  37 0002 0191     		str	r1, [sp, #4]
  38 0004 0292     		str	r2, [sp, #8]
  39 0006 0393     		str	r3, [sp, #12]
  66:Drivers/STM32L0xx_HAL_Driver/Src/stm32l0xx_ll_usb.c ****   /* Prevent unused argument(s) compilation warning */
  67:Drivers/STM32L0xx_HAL_Driver/Src/stm32l0xx_ll_usb.c ****   UNUSED(USBx);
  40              		.loc 1 67 3 is_stmt 1 view .LVU2
  68:Drivers/STM32L0xx_HAL_Driver/Src/stm32l0xx_ll_usb.c ****   UNUSED(cfg);
  41              		.loc 1 68 3 view .LVU3
  69:Drivers/STM32L0xx_HAL_Driver/Src/stm32l0xx_ll_usb.c **** 
  70:Drivers/STM32L0xx_HAL_Driver/Src/stm32l0xx_ll_usb.c ****   /* NOTE : - This function is not required by USB Device FS peripheral, it is used
  71:Drivers/STM32L0xx_HAL_Driver/Src/stm32l0xx_ll_usb.c ****               only by USB OTG FS peripheral.
  72:Drivers/STM32L0xx_HAL_Driver/Src/stm32l0xx_ll_usb.c ****             - This function is added to ensure compatibility across platforms.
  73:Drivers/STM32L0xx_HAL_Driver/Src/stm32l0xx_ll_usb.c ****    */
  74:Drivers/STM32L0xx_HAL_Driver/Src/stm32l0xx_ll_usb.c **** 
ARM GAS  /tmp/ccSuEEYJ.s 			page 3


  75:Drivers/STM32L0xx_HAL_Driver/Src/stm32l0xx_ll_usb.c ****   return HAL_OK;
  42              		.loc 1 75 3 view .LVU4
  76:Drivers/STM32L0xx_HAL_Driver/Src/stm32l0xx_ll_usb.c **** }
  43              		.loc 1 76 1 is_stmt 0 view .LVU5
  44 0008 0020     		movs	r0, #0
  45              	.LVL1:
  46              		.loc 1 76 1 view .LVU6
  47              		@ sp needed
  48 000a 04B0     		add	sp, sp, #16
  49 000c 7047     		bx	lr
  50              		.cfi_endproc
  51              	.LFE34:
  53              		.section	.text.USB_EnableGlobalInt,"ax",%progbits
  54              		.align	1
  55              		.global	USB_EnableGlobalInt
  56              		.syntax unified
  57              		.code	16
  58              		.thumb_func
  60              	USB_EnableGlobalInt:
  61              	.LVL2:
  62              	.LFB35:
  77:Drivers/STM32L0xx_HAL_Driver/Src/stm32l0xx_ll_usb.c **** 
  78:Drivers/STM32L0xx_HAL_Driver/Src/stm32l0xx_ll_usb.c **** /**
  79:Drivers/STM32L0xx_HAL_Driver/Src/stm32l0xx_ll_usb.c ****   * @brief  USB_EnableGlobalInt
  80:Drivers/STM32L0xx_HAL_Driver/Src/stm32l0xx_ll_usb.c ****   *         Enables the controller's Global Int in the AHB Config reg
  81:Drivers/STM32L0xx_HAL_Driver/Src/stm32l0xx_ll_usb.c ****   * @param  USBx Selected device
  82:Drivers/STM32L0xx_HAL_Driver/Src/stm32l0xx_ll_usb.c ****   * @retval HAL status
  83:Drivers/STM32L0xx_HAL_Driver/Src/stm32l0xx_ll_usb.c ****   */
  84:Drivers/STM32L0xx_HAL_Driver/Src/stm32l0xx_ll_usb.c **** HAL_StatusTypeDef USB_EnableGlobalInt(USB_TypeDef *USBx)
  85:Drivers/STM32L0xx_HAL_Driver/Src/stm32l0xx_ll_usb.c **** {
  63              		.loc 1 85 1 is_stmt 1 view -0
  64              		.cfi_startproc
  65              		@ args = 0, pretend = 0, frame = 0
  66              		@ frame_needed = 0, uses_anonymous_args = 0
  67              		@ link register save eliminated.
  86:Drivers/STM32L0xx_HAL_Driver/Src/stm32l0xx_ll_usb.c ****   uint32_t winterruptmask;
  68              		.loc 1 86 3 view .LVU8
  87:Drivers/STM32L0xx_HAL_Driver/Src/stm32l0xx_ll_usb.c **** 
  88:Drivers/STM32L0xx_HAL_Driver/Src/stm32l0xx_ll_usb.c ****   /* Clear pending interrupts */
  89:Drivers/STM32L0xx_HAL_Driver/Src/stm32l0xx_ll_usb.c ****   USBx->ISTR = 0U;
  69              		.loc 1 89 3 view .LVU9
  70              		.loc 1 89 14 is_stmt 0 view .LVU10
  71 0000 4423     		movs	r3, #68
  72 0002 0022     		movs	r2, #0
  73 0004 C252     		strh	r2, [r0, r3]
  90:Drivers/STM32L0xx_HAL_Driver/Src/stm32l0xx_ll_usb.c **** 
  91:Drivers/STM32L0xx_HAL_Driver/Src/stm32l0xx_ll_usb.c ****   /* Set winterruptmask variable */
  92:Drivers/STM32L0xx_HAL_Driver/Src/stm32l0xx_ll_usb.c ****   winterruptmask = USB_CNTR_CTRM  | USB_CNTR_WKUPM |
  74              		.loc 1 92 3 is_stmt 1 view .LVU11
  75              	.LVL3:
  93:Drivers/STM32L0xx_HAL_Driver/Src/stm32l0xx_ll_usb.c ****                    USB_CNTR_SUSPM | USB_CNTR_ERRM |
  94:Drivers/STM32L0xx_HAL_Driver/Src/stm32l0xx_ll_usb.c ****                    USB_CNTR_SOFM | USB_CNTR_ESOFM |
  95:Drivers/STM32L0xx_HAL_Driver/Src/stm32l0xx_ll_usb.c ****                    USB_CNTR_RESETM | USB_CNTR_L1REQM;
  96:Drivers/STM32L0xx_HAL_Driver/Src/stm32l0xx_ll_usb.c **** 
  97:Drivers/STM32L0xx_HAL_Driver/Src/stm32l0xx_ll_usb.c ****   /* Set interrupt mask */
  98:Drivers/STM32L0xx_HAL_Driver/Src/stm32l0xx_ll_usb.c ****   USBx->CNTR = (uint16_t)winterruptmask;
  76              		.loc 1 98 3 view .LVU12
ARM GAS  /tmp/ccSuEEYJ.s 			page 4


  77              		.loc 1 98 14 is_stmt 0 view .LVU13
  78 0006 043B     		subs	r3, r3, #4
  79 0008 014A     		ldr	r2, .L3
  80 000a C252     		strh	r2, [r0, r3]
  99:Drivers/STM32L0xx_HAL_Driver/Src/stm32l0xx_ll_usb.c **** 
 100:Drivers/STM32L0xx_HAL_Driver/Src/stm32l0xx_ll_usb.c ****   return HAL_OK;
  81              		.loc 1 100 3 is_stmt 1 view .LVU14
 101:Drivers/STM32L0xx_HAL_Driver/Src/stm32l0xx_ll_usb.c **** }
  82              		.loc 1 101 1 is_stmt 0 view .LVU15
  83 000c 0020     		movs	r0, #0
  84              	.LVL4:
  85              		.loc 1 101 1 view .LVU16
  86              		@ sp needed
  87 000e 7047     		bx	lr
  88              	.L4:
  89              		.align	2
  90              	.L3:
  91 0010 80BFFFFF 		.word	-16512
  92              		.cfi_endproc
  93              	.LFE35:
  95              		.section	.text.USB_DisableGlobalInt,"ax",%progbits
  96              		.align	1
  97              		.global	USB_DisableGlobalInt
  98              		.syntax unified
  99              		.code	16
 100              		.thumb_func
 102              	USB_DisableGlobalInt:
 103              	.LVL5:
 104              	.LFB36:
 102:Drivers/STM32L0xx_HAL_Driver/Src/stm32l0xx_ll_usb.c **** 
 103:Drivers/STM32L0xx_HAL_Driver/Src/stm32l0xx_ll_usb.c **** /**
 104:Drivers/STM32L0xx_HAL_Driver/Src/stm32l0xx_ll_usb.c ****   * @brief  USB_DisableGlobalInt
 105:Drivers/STM32L0xx_HAL_Driver/Src/stm32l0xx_ll_usb.c ****   *         Disable the controller's Global Int in the AHB Config reg
 106:Drivers/STM32L0xx_HAL_Driver/Src/stm32l0xx_ll_usb.c ****   * @param  USBx Selected device
 107:Drivers/STM32L0xx_HAL_Driver/Src/stm32l0xx_ll_usb.c ****   * @retval HAL status
 108:Drivers/STM32L0xx_HAL_Driver/Src/stm32l0xx_ll_usb.c ****   */
 109:Drivers/STM32L0xx_HAL_Driver/Src/stm32l0xx_ll_usb.c **** HAL_StatusTypeDef USB_DisableGlobalInt(USB_TypeDef *USBx)
 110:Drivers/STM32L0xx_HAL_Driver/Src/stm32l0xx_ll_usb.c **** {
 105              		.loc 1 110 1 is_stmt 1 view -0
 106              		.cfi_startproc
 107              		@ args = 0, pretend = 0, frame = 0
 108              		@ frame_needed = 0, uses_anonymous_args = 0
 109              		@ link register save eliminated.
 111:Drivers/STM32L0xx_HAL_Driver/Src/stm32l0xx_ll_usb.c ****   uint32_t winterruptmask;
 110              		.loc 1 111 3 view .LVU18
 112:Drivers/STM32L0xx_HAL_Driver/Src/stm32l0xx_ll_usb.c **** 
 113:Drivers/STM32L0xx_HAL_Driver/Src/stm32l0xx_ll_usb.c ****   /* Set winterruptmask variable */
 114:Drivers/STM32L0xx_HAL_Driver/Src/stm32l0xx_ll_usb.c ****   winterruptmask = USB_CNTR_CTRM  | USB_CNTR_WKUPM |
 111              		.loc 1 114 3 view .LVU19
 115:Drivers/STM32L0xx_HAL_Driver/Src/stm32l0xx_ll_usb.c ****                    USB_CNTR_SUSPM | USB_CNTR_ERRM |
 116:Drivers/STM32L0xx_HAL_Driver/Src/stm32l0xx_ll_usb.c ****                    USB_CNTR_SOFM | USB_CNTR_ESOFM |
 117:Drivers/STM32L0xx_HAL_Driver/Src/stm32l0xx_ll_usb.c ****                    USB_CNTR_RESETM | USB_CNTR_L1REQM;
 118:Drivers/STM32L0xx_HAL_Driver/Src/stm32l0xx_ll_usb.c **** 
 119:Drivers/STM32L0xx_HAL_Driver/Src/stm32l0xx_ll_usb.c ****   /* Clear interrupt mask */
 120:Drivers/STM32L0xx_HAL_Driver/Src/stm32l0xx_ll_usb.c ****   USBx->CNTR &= (uint16_t)(~winterruptmask);
 112              		.loc 1 120 3 view .LVU20
 113              		.loc 1 120 14 is_stmt 0 view .LVU21
ARM GAS  /tmp/ccSuEEYJ.s 			page 5


 114 0000 4022     		movs	r2, #64
 115 0002 835A     		ldrh	r3, [r0, r2]
 116 0004 0249     		ldr	r1, .L6
 117 0006 0B40     		ands	r3, r1
 118 0008 8352     		strh	r3, [r0, r2]
 121:Drivers/STM32L0xx_HAL_Driver/Src/stm32l0xx_ll_usb.c **** 
 122:Drivers/STM32L0xx_HAL_Driver/Src/stm32l0xx_ll_usb.c ****   return HAL_OK;
 119              		.loc 1 122 3 is_stmt 1 view .LVU22
 123:Drivers/STM32L0xx_HAL_Driver/Src/stm32l0xx_ll_usb.c **** }
 120              		.loc 1 123 1 is_stmt 0 view .LVU23
 121 000a 0020     		movs	r0, #0
 122              	.LVL6:
 123              		.loc 1 123 1 view .LVU24
 124              		@ sp needed
 125 000c 7047     		bx	lr
 126              	.L7:
 127 000e C046     		.align	2
 128              	.L6:
 129 0010 7F400000 		.word	16511
 130              		.cfi_endproc
 131              	.LFE36:
 133              		.section	.text.USB_SetCurrentMode,"ax",%progbits
 134              		.align	1
 135              		.global	USB_SetCurrentMode
 136              		.syntax unified
 137              		.code	16
 138              		.thumb_func
 140              	USB_SetCurrentMode:
 141              	.LVL7:
 142              	.LFB37:
 124:Drivers/STM32L0xx_HAL_Driver/Src/stm32l0xx_ll_usb.c **** 
 125:Drivers/STM32L0xx_HAL_Driver/Src/stm32l0xx_ll_usb.c **** /**
 126:Drivers/STM32L0xx_HAL_Driver/Src/stm32l0xx_ll_usb.c ****   * @brief  USB_SetCurrentMode Set functional mode
 127:Drivers/STM32L0xx_HAL_Driver/Src/stm32l0xx_ll_usb.c ****   * @param  USBx Selected device
 128:Drivers/STM32L0xx_HAL_Driver/Src/stm32l0xx_ll_usb.c ****   * @param  mode current core mode
 129:Drivers/STM32L0xx_HAL_Driver/Src/stm32l0xx_ll_usb.c ****   *          This parameter can be one of the these values:
 130:Drivers/STM32L0xx_HAL_Driver/Src/stm32l0xx_ll_usb.c ****   *            @arg USB_DEVICE_MODE Peripheral mode
 131:Drivers/STM32L0xx_HAL_Driver/Src/stm32l0xx_ll_usb.c ****   * @retval HAL status
 132:Drivers/STM32L0xx_HAL_Driver/Src/stm32l0xx_ll_usb.c ****   */
 133:Drivers/STM32L0xx_HAL_Driver/Src/stm32l0xx_ll_usb.c **** HAL_StatusTypeDef USB_SetCurrentMode(USB_TypeDef *USBx, USB_ModeTypeDef mode)
 134:Drivers/STM32L0xx_HAL_Driver/Src/stm32l0xx_ll_usb.c **** {
 143              		.loc 1 134 1 is_stmt 1 view -0
 144              		.cfi_startproc
 145              		@ args = 0, pretend = 0, frame = 0
 146              		@ frame_needed = 0, uses_anonymous_args = 0
 147              		@ link register save eliminated.
 135:Drivers/STM32L0xx_HAL_Driver/Src/stm32l0xx_ll_usb.c ****   /* Prevent unused argument(s) compilation warning */
 136:Drivers/STM32L0xx_HAL_Driver/Src/stm32l0xx_ll_usb.c ****   UNUSED(USBx);
 148              		.loc 1 136 3 view .LVU26
 137:Drivers/STM32L0xx_HAL_Driver/Src/stm32l0xx_ll_usb.c ****   UNUSED(mode);
 149              		.loc 1 137 3 view .LVU27
 138:Drivers/STM32L0xx_HAL_Driver/Src/stm32l0xx_ll_usb.c **** 
 139:Drivers/STM32L0xx_HAL_Driver/Src/stm32l0xx_ll_usb.c ****   /* NOTE : - This function is not required by USB Device FS peripheral, it is used
 140:Drivers/STM32L0xx_HAL_Driver/Src/stm32l0xx_ll_usb.c ****               only by USB OTG FS peripheral.
 141:Drivers/STM32L0xx_HAL_Driver/Src/stm32l0xx_ll_usb.c ****             - This function is added to ensure compatibility across platforms.
 142:Drivers/STM32L0xx_HAL_Driver/Src/stm32l0xx_ll_usb.c ****    */
 143:Drivers/STM32L0xx_HAL_Driver/Src/stm32l0xx_ll_usb.c ****   return HAL_OK;
ARM GAS  /tmp/ccSuEEYJ.s 			page 6


 150              		.loc 1 143 3 view .LVU28
 144:Drivers/STM32L0xx_HAL_Driver/Src/stm32l0xx_ll_usb.c **** }
 151              		.loc 1 144 1 is_stmt 0 view .LVU29
 152 0000 0020     		movs	r0, #0
 153              	.LVL8:
 154              		.loc 1 144 1 view .LVU30
 155              		@ sp needed
 156 0002 7047     		bx	lr
 157              		.cfi_endproc
 158              	.LFE37:
 160              		.section	.text.USB_DevInit,"ax",%progbits
 161              		.align	1
 162              		.global	USB_DevInit
 163              		.syntax unified
 164              		.code	16
 165              		.thumb_func
 167              	USB_DevInit:
 168              	.LVL9:
 169              	.LFB38:
 145:Drivers/STM32L0xx_HAL_Driver/Src/stm32l0xx_ll_usb.c **** 
 146:Drivers/STM32L0xx_HAL_Driver/Src/stm32l0xx_ll_usb.c **** /**
 147:Drivers/STM32L0xx_HAL_Driver/Src/stm32l0xx_ll_usb.c ****   * @brief  USB_DevInit Initializes the USB controller registers
 148:Drivers/STM32L0xx_HAL_Driver/Src/stm32l0xx_ll_usb.c ****   *         for device mode
 149:Drivers/STM32L0xx_HAL_Driver/Src/stm32l0xx_ll_usb.c ****   * @param  USBx Selected device
 150:Drivers/STM32L0xx_HAL_Driver/Src/stm32l0xx_ll_usb.c ****   * @param  cfg  pointer to a USB_CfgTypeDef structure that contains
 151:Drivers/STM32L0xx_HAL_Driver/Src/stm32l0xx_ll_usb.c ****   *         the configuration information for the specified USBx peripheral.
 152:Drivers/STM32L0xx_HAL_Driver/Src/stm32l0xx_ll_usb.c ****   * @retval HAL status
 153:Drivers/STM32L0xx_HAL_Driver/Src/stm32l0xx_ll_usb.c ****   */
 154:Drivers/STM32L0xx_HAL_Driver/Src/stm32l0xx_ll_usb.c **** HAL_StatusTypeDef USB_DevInit(USB_TypeDef *USBx, USB_CfgTypeDef cfg)
 155:Drivers/STM32L0xx_HAL_Driver/Src/stm32l0xx_ll_usb.c **** {
 170              		.loc 1 155 1 is_stmt 1 view -0
 171              		.cfi_startproc
 172              		@ args = 36, pretend = 16, frame = 0
 173              		@ frame_needed = 0, uses_anonymous_args = 0
 174              		@ link register save eliminated.
 175              		.loc 1 155 1 is_stmt 0 view .LVU32
 176 0000 84B0     		sub	sp, sp, #16
 177              	.LCFI1:
 178              		.cfi_def_cfa_offset 16
 179 0002 0191     		str	r1, [sp, #4]
 180 0004 0292     		str	r2, [sp, #8]
 181 0006 0393     		str	r3, [sp, #12]
 156:Drivers/STM32L0xx_HAL_Driver/Src/stm32l0xx_ll_usb.c ****   /* Prevent unused argument(s) compilation warning */
 157:Drivers/STM32L0xx_HAL_Driver/Src/stm32l0xx_ll_usb.c ****   UNUSED(cfg);
 182              		.loc 1 157 3 is_stmt 1 view .LVU33
 158:Drivers/STM32L0xx_HAL_Driver/Src/stm32l0xx_ll_usb.c **** 
 159:Drivers/STM32L0xx_HAL_Driver/Src/stm32l0xx_ll_usb.c ****   /* Init Device */
 160:Drivers/STM32L0xx_HAL_Driver/Src/stm32l0xx_ll_usb.c ****   /* CNTR_FRES = 1 */
 161:Drivers/STM32L0xx_HAL_Driver/Src/stm32l0xx_ll_usb.c ****   USBx->CNTR = (uint16_t)USB_CNTR_FRES;
 183              		.loc 1 161 3 view .LVU34
 184              		.loc 1 161 14 is_stmt 0 view .LVU35
 185 0008 4022     		movs	r2, #64
 186 000a 0123     		movs	r3, #1
 187 000c 8352     		strh	r3, [r0, r2]
 162:Drivers/STM32L0xx_HAL_Driver/Src/stm32l0xx_ll_usb.c **** 
 163:Drivers/STM32L0xx_HAL_Driver/Src/stm32l0xx_ll_usb.c ****   /* CNTR_FRES = 0 */
 164:Drivers/STM32L0xx_HAL_Driver/Src/stm32l0xx_ll_usb.c ****   USBx->CNTR = 0U;
ARM GAS  /tmp/ccSuEEYJ.s 			page 7


 188              		.loc 1 164 3 is_stmt 1 view .LVU36
 189              		.loc 1 164 14 is_stmt 0 view .LVU37
 190 000e 0023     		movs	r3, #0
 191 0010 8352     		strh	r3, [r0, r2]
 165:Drivers/STM32L0xx_HAL_Driver/Src/stm32l0xx_ll_usb.c **** 
 166:Drivers/STM32L0xx_HAL_Driver/Src/stm32l0xx_ll_usb.c ****   /* Clear pending interrupts */
 167:Drivers/STM32L0xx_HAL_Driver/Src/stm32l0xx_ll_usb.c ****   USBx->ISTR = 0U;
 192              		.loc 1 167 3 is_stmt 1 view .LVU38
 193              		.loc 1 167 14 is_stmt 0 view .LVU39
 194 0012 0432     		adds	r2, r2, #4
 195 0014 8352     		strh	r3, [r0, r2]
 168:Drivers/STM32L0xx_HAL_Driver/Src/stm32l0xx_ll_usb.c **** 
 169:Drivers/STM32L0xx_HAL_Driver/Src/stm32l0xx_ll_usb.c ****   /*Set Btable Address*/
 170:Drivers/STM32L0xx_HAL_Driver/Src/stm32l0xx_ll_usb.c ****   USBx->BTABLE = BTABLE_ADDRESS;
 196              		.loc 1 170 3 is_stmt 1 view .LVU40
 197              		.loc 1 170 16 is_stmt 0 view .LVU41
 198 0016 0C32     		adds	r2, r2, #12
 199 0018 8352     		strh	r3, [r0, r2]
 171:Drivers/STM32L0xx_HAL_Driver/Src/stm32l0xx_ll_usb.c **** 
 172:Drivers/STM32L0xx_HAL_Driver/Src/stm32l0xx_ll_usb.c ****   return HAL_OK;
 200              		.loc 1 172 3 is_stmt 1 view .LVU42
 173:Drivers/STM32L0xx_HAL_Driver/Src/stm32l0xx_ll_usb.c **** }
 201              		.loc 1 173 1 is_stmt 0 view .LVU43
 202 001a 0020     		movs	r0, #0
 203              	.LVL10:
 204              		.loc 1 173 1 view .LVU44
 205              		@ sp needed
 206 001c 04B0     		add	sp, sp, #16
 207 001e 7047     		bx	lr
 208              		.cfi_endproc
 209              	.LFE38:
 211              		.section	.text.USB_ActivateEndpoint,"ax",%progbits
 212              		.align	1
 213              		.global	USB_ActivateEndpoint
 214              		.syntax unified
 215              		.code	16
 216              		.thumb_func
 218              	USB_ActivateEndpoint:
 219              	.LVL11:
 220              	.LFB39:
 174:Drivers/STM32L0xx_HAL_Driver/Src/stm32l0xx_ll_usb.c **** 
 175:Drivers/STM32L0xx_HAL_Driver/Src/stm32l0xx_ll_usb.c **** /**
 176:Drivers/STM32L0xx_HAL_Driver/Src/stm32l0xx_ll_usb.c ****   * @brief  Activate and configure an endpoint
 177:Drivers/STM32L0xx_HAL_Driver/Src/stm32l0xx_ll_usb.c ****   * @param  USBx Selected device
 178:Drivers/STM32L0xx_HAL_Driver/Src/stm32l0xx_ll_usb.c ****   * @param  ep pointer to endpoint structure
 179:Drivers/STM32L0xx_HAL_Driver/Src/stm32l0xx_ll_usb.c ****   * @retval HAL status
 180:Drivers/STM32L0xx_HAL_Driver/Src/stm32l0xx_ll_usb.c ****   */
 181:Drivers/STM32L0xx_HAL_Driver/Src/stm32l0xx_ll_usb.c **** HAL_StatusTypeDef USB_ActivateEndpoint(USB_TypeDef *USBx, USB_EPTypeDef *ep)
 182:Drivers/STM32L0xx_HAL_Driver/Src/stm32l0xx_ll_usb.c **** {
 221              		.loc 1 182 1 is_stmt 1 view -0
 222              		.cfi_startproc
 223              		@ args = 0, pretend = 0, frame = 0
 224              		@ frame_needed = 0, uses_anonymous_args = 0
 225              		.loc 1 182 1 is_stmt 0 view .LVU46
 226 0000 F0B5     		push	{r4, r5, r6, r7, lr}
 227              	.LCFI2:
 228              		.cfi_def_cfa_offset 20
ARM GAS  /tmp/ccSuEEYJ.s 			page 8


 229              		.cfi_offset 4, -20
 230              		.cfi_offset 5, -16
 231              		.cfi_offset 6, -12
 232              		.cfi_offset 7, -8
 233              		.cfi_offset 14, -4
 234 0002 0300     		movs	r3, r0
 183:Drivers/STM32L0xx_HAL_Driver/Src/stm32l0xx_ll_usb.c ****   HAL_StatusTypeDef ret = HAL_OK;
 235              		.loc 1 183 3 is_stmt 1 view .LVU47
 236              	.LVL12:
 184:Drivers/STM32L0xx_HAL_Driver/Src/stm32l0xx_ll_usb.c ****   uint16_t wEpRegVal;
 237              		.loc 1 184 3 view .LVU48
 185:Drivers/STM32L0xx_HAL_Driver/Src/stm32l0xx_ll_usb.c **** 
 186:Drivers/STM32L0xx_HAL_Driver/Src/stm32l0xx_ll_usb.c ****   wEpRegVal = PCD_GET_ENDPOINT(USBx, ep->num) & USB_EP_T_MASK;
 238              		.loc 1 186 3 view .LVU49
 239              		.loc 1 186 15 is_stmt 0 view .LVU50
 240 0004 0D78     		ldrb	r5, [r1]
 241 0006 AD00     		lsls	r5, r5, #2
 242 0008 4519     		adds	r5, r0, r5
 243              		.loc 1 186 47 view .LVU51
 244 000a 2A88     		ldrh	r2, [r5]
 245              		.loc 1 186 13 view .LVU52
 246 000c AA48     		ldr	r0, .L37
 247              	.LVL13:
 248              		.loc 1 186 13 view .LVU53
 249 000e 0240     		ands	r2, r0
 250              	.LVL14:
 187:Drivers/STM32L0xx_HAL_Driver/Src/stm32l0xx_ll_usb.c **** 
 188:Drivers/STM32L0xx_HAL_Driver/Src/stm32l0xx_ll_usb.c ****   /* initialize Endpoint */
 189:Drivers/STM32L0xx_HAL_Driver/Src/stm32l0xx_ll_usb.c ****   switch (ep->type)
 251              		.loc 1 189 3 is_stmt 1 view .LVU54
 252              		.loc 1 189 13 is_stmt 0 view .LVU55
 253 0010 C878     		ldrb	r0, [r1, #3]
 254              		.loc 1 189 3 view .LVU56
 255 0012 0228     		cmp	r0, #2
 256 0014 5AD0     		beq	.L34
 257 0016 0AD8     		bhi	.L12
 258 0018 0028     		cmp	r0, #0
 259 001a 53D0     		beq	.L13
 260 001c 0128     		cmp	r0, #1
 261 001e 04D1     		bne	.L35
 190:Drivers/STM32L0xx_HAL_Driver/Src/stm32l0xx_ll_usb.c ****   {
 191:Drivers/STM32L0xx_HAL_Driver/Src/stm32l0xx_ll_usb.c ****     case EP_TYPE_CTRL:
 192:Drivers/STM32L0xx_HAL_Driver/Src/stm32l0xx_ll_usb.c ****       wEpRegVal |= USB_EP_CONTROL;
 193:Drivers/STM32L0xx_HAL_Driver/Src/stm32l0xx_ll_usb.c ****       break;
 194:Drivers/STM32L0xx_HAL_Driver/Src/stm32l0xx_ll_usb.c **** 
 195:Drivers/STM32L0xx_HAL_Driver/Src/stm32l0xx_ll_usb.c ****     case EP_TYPE_BULK:
 196:Drivers/STM32L0xx_HAL_Driver/Src/stm32l0xx_ll_usb.c ****       wEpRegVal |= USB_EP_BULK;
 197:Drivers/STM32L0xx_HAL_Driver/Src/stm32l0xx_ll_usb.c ****       break;
 198:Drivers/STM32L0xx_HAL_Driver/Src/stm32l0xx_ll_usb.c **** 
 199:Drivers/STM32L0xx_HAL_Driver/Src/stm32l0xx_ll_usb.c ****     case EP_TYPE_INTR:
 200:Drivers/STM32L0xx_HAL_Driver/Src/stm32l0xx_ll_usb.c ****       wEpRegVal |= USB_EP_INTERRUPT;
 201:Drivers/STM32L0xx_HAL_Driver/Src/stm32l0xx_ll_usb.c ****       break;
 202:Drivers/STM32L0xx_HAL_Driver/Src/stm32l0xx_ll_usb.c **** 
 203:Drivers/STM32L0xx_HAL_Driver/Src/stm32l0xx_ll_usb.c ****     case EP_TYPE_ISOC:
 204:Drivers/STM32L0xx_HAL_Driver/Src/stm32l0xx_ll_usb.c ****       wEpRegVal |= USB_EP_ISOCHRONOUS;
 262              		.loc 1 204 7 is_stmt 1 view .LVU57
 263              		.loc 1 204 17 is_stmt 0 view .LVU58
ARM GAS  /tmp/ccSuEEYJ.s 			page 9


 264 0020 8020     		movs	r0, #128
 265 0022 C000     		lsls	r0, r0, #3
 266 0024 0243     		orrs	r2, r0
 267              	.LVL15:
 205:Drivers/STM32L0xx_HAL_Driver/Src/stm32l0xx_ll_usb.c ****       break;
 268              		.loc 1 205 7 is_stmt 1 view .LVU59
 183:Drivers/STM32L0xx_HAL_Driver/Src/stm32l0xx_ll_usb.c ****   uint16_t wEpRegVal;
 269              		.loc 1 183 21 is_stmt 0 view .LVU60
 270 0026 0020     		movs	r0, #0
 271              		.loc 1 205 7 view .LVU61
 272 0028 09E0     		b	.L11
 273              	.L35:
 206:Drivers/STM32L0xx_HAL_Driver/Src/stm32l0xx_ll_usb.c **** 
 207:Drivers/STM32L0xx_HAL_Driver/Src/stm32l0xx_ll_usb.c ****     default:
 208:Drivers/STM32L0xx_HAL_Driver/Src/stm32l0xx_ll_usb.c ****       ret = HAL_ERROR;
 274              		.loc 1 208 11 view .LVU62
 275 002a 0120     		movs	r0, #1
 276 002c 07E0     		b	.L11
 277              	.L12:
 189:Drivers/STM32L0xx_HAL_Driver/Src/stm32l0xx_ll_usb.c ****   {
 278              		.loc 1 189 3 view .LVU63
 279 002e 0328     		cmp	r0, #3
 280 0030 04D1     		bne	.L36
 200:Drivers/STM32L0xx_HAL_Driver/Src/stm32l0xx_ll_usb.c ****       break;
 281              		.loc 1 200 7 is_stmt 1 view .LVU64
 200:Drivers/STM32L0xx_HAL_Driver/Src/stm32l0xx_ll_usb.c ****       break;
 282              		.loc 1 200 17 is_stmt 0 view .LVU65
 283 0032 C020     		movs	r0, #192
 284 0034 C000     		lsls	r0, r0, #3
 285 0036 0243     		orrs	r2, r0
 286              	.LVL16:
 201:Drivers/STM32L0xx_HAL_Driver/Src/stm32l0xx_ll_usb.c **** 
 287              		.loc 1 201 7 is_stmt 1 view .LVU66
 183:Drivers/STM32L0xx_HAL_Driver/Src/stm32l0xx_ll_usb.c ****   uint16_t wEpRegVal;
 288              		.loc 1 183 21 is_stmt 0 view .LVU67
 289 0038 0020     		movs	r0, #0
 201:Drivers/STM32L0xx_HAL_Driver/Src/stm32l0xx_ll_usb.c **** 
 290              		.loc 1 201 7 view .LVU68
 291 003a 00E0     		b	.L11
 292              	.L36:
 293              		.loc 1 208 11 view .LVU69
 294 003c 0120     		movs	r0, #1
 295              	.L11:
 296              	.LVL17:
 209:Drivers/STM32L0xx_HAL_Driver/Src/stm32l0xx_ll_usb.c ****       break;
 210:Drivers/STM32L0xx_HAL_Driver/Src/stm32l0xx_ll_usb.c ****   }
 211:Drivers/STM32L0xx_HAL_Driver/Src/stm32l0xx_ll_usb.c **** 
 212:Drivers/STM32L0xx_HAL_Driver/Src/stm32l0xx_ll_usb.c ****   PCD_SET_ENDPOINT(USBx, ep->num, (wEpRegVal | USB_EP_CTR_RX | USB_EP_CTR_TX));
 297              		.loc 1 212 3 is_stmt 1 view .LVU70
 298 003e 9F4C     		ldr	r4, .L37+4
 299 0040 2243     		orrs	r2, r4
 300              	.LVL18:
 301              		.loc 1 212 3 is_stmt 0 view .LVU71
 302 0042 92B2     		uxth	r2, r2
 303 0044 2A80     		strh	r2, [r5]
 213:Drivers/STM32L0xx_HAL_Driver/Src/stm32l0xx_ll_usb.c **** 
 214:Drivers/STM32L0xx_HAL_Driver/Src/stm32l0xx_ll_usb.c ****   PCD_SET_EP_ADDRESS(USBx, ep->num, ep->num);
ARM GAS  /tmp/ccSuEEYJ.s 			page 10


 304              		.loc 1 214 3 is_stmt 1 view .LVU72
 305              	.LBB2:
 306              		.loc 1 214 3 view .LVU73
 307              		.loc 1 214 3 view .LVU74
 308 0046 0A78     		ldrb	r2, [r1]
 309 0048 9600     		lsls	r6, r2, #2
 310 004a 9E19     		adds	r6, r3, r6
 311 004c 3588     		ldrh	r5, [r6]
 312 004e 2DB2     		sxth	r5, r5
 313 0050 9B4F     		ldr	r7, .L37+8
 314 0052 3D40     		ands	r5, r7
 315 0054 2A43     		orrs	r2, r5
 316 0056 92B2     		uxth	r2, r2
 317              	.LVL19:
 318              		.loc 1 214 3 view .LVU75
 319 0058 1443     		orrs	r4, r2
 320 005a A4B2     		uxth	r4, r4
 321 005c 3480     		strh	r4, [r6]
 322              	.LBE2:
 323              		.loc 1 214 3 view .LVU76
 215:Drivers/STM32L0xx_HAL_Driver/Src/stm32l0xx_ll_usb.c **** 
 216:Drivers/STM32L0xx_HAL_Driver/Src/stm32l0xx_ll_usb.c ****   if (ep->doublebuffer == 0U)
 324              		.loc 1 216 3 view .LVU77
 325              		.loc 1 216 9 is_stmt 0 view .LVU78
 326 005e 0A7B     		ldrb	r2, [r1, #12]
 327              	.LVL20:
 328              		.loc 1 216 6 view .LVU79
 329 0060 002A     		cmp	r2, #0
 330 0062 00D0     		beq	.LCB256
 331 0064 90E0     		b	.L16	@long jump
 332              	.LCB256:
 217:Drivers/STM32L0xx_HAL_Driver/Src/stm32l0xx_ll_usb.c ****   {
 218:Drivers/STM32L0xx_HAL_Driver/Src/stm32l0xx_ll_usb.c ****     if (ep->is_in != 0U)
 333              		.loc 1 218 5 is_stmt 1 view .LVU80
 334              		.loc 1 218 11 is_stmt 0 view .LVU81
 335 0066 4A78     		ldrb	r2, [r1, #1]
 336              		.loc 1 218 8 view .LVU82
 337 0068 002A     		cmp	r2, #0
 338 006a 3CD0     		beq	.L17
 219:Drivers/STM32L0xx_HAL_Driver/Src/stm32l0xx_ll_usb.c ****     {
 220:Drivers/STM32L0xx_HAL_Driver/Src/stm32l0xx_ll_usb.c ****       /*Set the endpoint Transmit buffer address */
 221:Drivers/STM32L0xx_HAL_Driver/Src/stm32l0xx_ll_usb.c ****       PCD_SET_EP_TX_ADDRESS(USBx, ep->num, ep->pmaadress);
 339              		.loc 1 221 7 is_stmt 1 view .LVU83
 340              	.LBB3:
 341              		.loc 1 221 7 view .LVU84
 342              		.loc 1 221 7 view .LVU85
 343              	.LVL21:
 344              		.loc 1 221 7 view .LVU86
 345 006c 5022     		movs	r2, #80
 346 006e 9D5A     		ldrh	r5, [r3, r2]
 347 0070 5D19     		adds	r5, r3, r5
 348              	.LVL22:
 349              		.loc 1 221 7 view .LVU87
 350 0072 0A78     		ldrb	r2, [r1]
 351 0074 D200     		lsls	r2, r2, #3
 352 0076 5219     		adds	r2, r2, r5
 353 0078 8024     		movs	r4, #128
ARM GAS  /tmp/ccSuEEYJ.s 			page 11


 354 007a E400     		lsls	r4, r4, #3
 355 007c A446     		mov	ip, r4
 356 007e 6244     		add	r2, r2, ip
 357              	.LVL23:
 358              		.loc 1 221 7 view .LVU88
 359 0080 CC88     		ldrh	r4, [r1, #6]
 360 0082 6408     		lsrs	r4, r4, #1
 361 0084 6400     		lsls	r4, r4, #1
 362 0086 1480     		strh	r4, [r2]
 363              	.LBE3:
 364              		.loc 1 221 7 view .LVU89
 222:Drivers/STM32L0xx_HAL_Driver/Src/stm32l0xx_ll_usb.c ****       PCD_CLEAR_TX_DTOG(USBx, ep->num);
 365              		.loc 1 222 7 view .LVU90
 366              	.LBB4:
 367              		.loc 1 222 7 view .LVU91
 368              		.loc 1 222 7 view .LVU92
 369 0088 0A78     		ldrb	r2, [r1]
 370              	.LVL24:
 371              		.loc 1 222 7 is_stmt 0 view .LVU93
 372 008a 9200     		lsls	r2, r2, #2
 373 008c 9A18     		adds	r2, r3, r2
 374 008e 1488     		ldrh	r4, [r2]
 375              	.LVL25:
 376              		.loc 1 222 7 is_stmt 1 view .LVU94
 377 0090 6406     		lsls	r4, r4, #25
 378 0092 06D5     		bpl	.L18
 379              	.LVL26:
 380              		.loc 1 222 7 discriminator 1 view .LVU95
 381              	.LBB5:
 382              		.loc 1 222 7 discriminator 1 view .LVU96
 383              		.loc 1 222 7 discriminator 1 view .LVU97
 384 0094 1488     		ldrh	r4, [r2]
 385 0096 3D00     		movs	r5, r7
 386              	.LVL27:
 387              		.loc 1 222 7 is_stmt 0 discriminator 1 view .LVU98
 388 0098 2540     		ands	r5, r4
 389              	.LVL28:
 390              		.loc 1 222 7 is_stmt 1 discriminator 1 view .LVU99
 391 009a 8A4C     		ldr	r4, .L37+12
 392 009c 2C43     		orrs	r4, r5
 393 009e A4B2     		uxth	r4, r4
 394 00a0 1480     		strh	r4, [r2]
 395              	.LVL29:
 396              	.L18:
 397              		.loc 1 222 7 is_stmt 0 discriminator 1 view .LVU100
 398              	.LBE5:
 399              		.loc 1 222 7 is_stmt 1 discriminator 3 view .LVU101
 400              	.LBE4:
 401              		.loc 1 222 7 discriminator 3 view .LVU102
 223:Drivers/STM32L0xx_HAL_Driver/Src/stm32l0xx_ll_usb.c **** 
 224:Drivers/STM32L0xx_HAL_Driver/Src/stm32l0xx_ll_usb.c ****       if (ep->type != EP_TYPE_ISOC)
 402              		.loc 1 224 7 discriminator 3 view .LVU103
 403              		.loc 1 224 13 is_stmt 0 discriminator 3 view .LVU104
 404 00a2 CA78     		ldrb	r2, [r1, #3]
 405              		.loc 1 224 10 discriminator 3 view .LVU105
 406 00a4 012A     		cmp	r2, #1
 407 00a6 13D0     		beq	.L19
ARM GAS  /tmp/ccSuEEYJ.s 			page 12


 225:Drivers/STM32L0xx_HAL_Driver/Src/stm32l0xx_ll_usb.c ****       {
 226:Drivers/STM32L0xx_HAL_Driver/Src/stm32l0xx_ll_usb.c ****         /* Configure NAK status for the Endpoint */
 227:Drivers/STM32L0xx_HAL_Driver/Src/stm32l0xx_ll_usb.c ****         PCD_SET_EP_TX_STATUS(USBx, ep->num, USB_EP_TX_NAK);
 408              		.loc 1 227 9 is_stmt 1 view .LVU106
 409              	.LBB6:
 410              		.loc 1 227 9 view .LVU107
 411              		.loc 1 227 9 view .LVU108
 412 00a8 0A78     		ldrb	r2, [r1]
 413 00aa 9200     		lsls	r2, r2, #2
 414 00ac 9B18     		adds	r3, r3, r2
 415              	.LVL30:
 416              		.loc 1 227 9 is_stmt 0 view .LVU109
 417 00ae 1A88     		ldrh	r2, [r3]
 418 00b0 8549     		ldr	r1, .L37+16
 419              	.LVL31:
 420              		.loc 1 227 9 view .LVU110
 421 00b2 0A40     		ands	r2, r1
 422              	.LVL32:
 423              		.loc 1 227 9 is_stmt 1 view .LVU111
 424              		.loc 1 227 9 view .LVU112
 425              		.loc 1 227 9 view .LVU113
 426 00b4 2021     		movs	r1, #32
 427 00b6 4A40     		eors	r2, r1
 428              	.LVL33:
 429              		.loc 1 227 9 is_stmt 0 view .LVU114
 430 00b8 92B2     		uxth	r2, r2
 431              	.LVL34:
 432              		.loc 1 227 9 is_stmt 1 view .LVU115
 433 00ba 8049     		ldr	r1, .L37+4
 434 00bc 0A43     		orrs	r2, r1
 435              	.LVL35:
 436              		.loc 1 227 9 is_stmt 0 view .LVU116
 437 00be 92B2     		uxth	r2, r2
 438 00c0 1A80     		strh	r2, [r3]
 439              	.LBE6:
 440              		.loc 1 227 9 is_stmt 1 view .LVU117
 441 00c2 4BE0     		b	.L20
 442              	.LVL36:
 443              	.L13:
 192:Drivers/STM32L0xx_HAL_Driver/Src/stm32l0xx_ll_usb.c ****       break;
 444              		.loc 1 192 7 view .LVU118
 192:Drivers/STM32L0xx_HAL_Driver/Src/stm32l0xx_ll_usb.c ****       break;
 445              		.loc 1 192 17 is_stmt 0 view .LVU119
 446 00c4 8024     		movs	r4, #128
 447 00c6 A400     		lsls	r4, r4, #2
 448 00c8 2243     		orrs	r2, r4
 449              	.LVL37:
 193:Drivers/STM32L0xx_HAL_Driver/Src/stm32l0xx_ll_usb.c **** 
 450              		.loc 1 193 7 is_stmt 1 view .LVU120
 451 00ca B8E7     		b	.L11
 452              	.L34:
 189:Drivers/STM32L0xx_HAL_Driver/Src/stm32l0xx_ll_usb.c ****   {
 453              		.loc 1 189 3 is_stmt 0 view .LVU121
 454 00cc 0020     		movs	r0, #0
 455 00ce B6E7     		b	.L11
 456              	.LVL38:
 457              	.L19:
ARM GAS  /tmp/ccSuEEYJ.s 			page 13


 228:Drivers/STM32L0xx_HAL_Driver/Src/stm32l0xx_ll_usb.c ****       }
 229:Drivers/STM32L0xx_HAL_Driver/Src/stm32l0xx_ll_usb.c ****       else
 230:Drivers/STM32L0xx_HAL_Driver/Src/stm32l0xx_ll_usb.c ****       {
 231:Drivers/STM32L0xx_HAL_Driver/Src/stm32l0xx_ll_usb.c ****         /* Configure TX Endpoint to disabled state */
 232:Drivers/STM32L0xx_HAL_Driver/Src/stm32l0xx_ll_usb.c ****         PCD_SET_EP_TX_STATUS(USBx, ep->num, USB_EP_TX_DIS);
 458              		.loc 1 232 9 is_stmt 1 view .LVU122
 459              	.LBB7:
 460              		.loc 1 232 9 view .LVU123
 461              		.loc 1 232 9 view .LVU124
 462 00d0 0A78     		ldrb	r2, [r1]
 463 00d2 9200     		lsls	r2, r2, #2
 464 00d4 9B18     		adds	r3, r3, r2
 465              	.LVL39:
 466              		.loc 1 232 9 is_stmt 0 view .LVU125
 467 00d6 1A88     		ldrh	r2, [r3]
 468 00d8 7B49     		ldr	r1, .L37+16
 469              	.LVL40:
 470              		.loc 1 232 9 view .LVU126
 471 00da 1140     		ands	r1, r2
 472              	.LVL41:
 473              		.loc 1 232 9 is_stmt 1 view .LVU127
 474              		.loc 1 232 9 view .LVU128
 475              		.loc 1 232 9 view .LVU129
 476 00dc 774A     		ldr	r2, .L37+4
 477 00de 0A43     		orrs	r2, r1
 478 00e0 92B2     		uxth	r2, r2
 479 00e2 1A80     		strh	r2, [r3]
 480 00e4 3AE0     		b	.L20
 481              	.LVL42:
 482              	.L17:
 483              		.loc 1 232 9 is_stmt 0 view .LVU130
 484              	.LBE7:
 233:Drivers/STM32L0xx_HAL_Driver/Src/stm32l0xx_ll_usb.c ****       }
 234:Drivers/STM32L0xx_HAL_Driver/Src/stm32l0xx_ll_usb.c ****     }
 235:Drivers/STM32L0xx_HAL_Driver/Src/stm32l0xx_ll_usb.c ****     else
 236:Drivers/STM32L0xx_HAL_Driver/Src/stm32l0xx_ll_usb.c ****     {
 237:Drivers/STM32L0xx_HAL_Driver/Src/stm32l0xx_ll_usb.c ****       /*Set the endpoint Receive buffer address */
 238:Drivers/STM32L0xx_HAL_Driver/Src/stm32l0xx_ll_usb.c ****       PCD_SET_EP_RX_ADDRESS(USBx, ep->num, ep->pmaadress);
 485              		.loc 1 238 7 is_stmt 1 view .LVU131
 486              	.LBB8:
 487              		.loc 1 238 7 view .LVU132
 488              		.loc 1 238 7 view .LVU133
 489              		.loc 1 238 7 view .LVU134
 490 00e6 5026     		movs	r6, #80
 491 00e8 9D5B     		ldrh	r5, [r3, r6]
 492 00ea 5D19     		adds	r5, r3, r5
 493              	.LVL43:
 494              		.loc 1 238 7 view .LVU135
 495 00ec 0A78     		ldrb	r2, [r1]
 496 00ee D200     		lsls	r2, r2, #3
 497 00f0 5219     		adds	r2, r2, r5
 498 00f2 764C     		ldr	r4, .L37+20
 499 00f4 A446     		mov	ip, r4
 500 00f6 6244     		add	r2, r2, ip
 501              	.LVL44:
 502              		.loc 1 238 7 view .LVU136
 503 00f8 CC88     		ldrh	r4, [r1, #6]
ARM GAS  /tmp/ccSuEEYJ.s 			page 14


 504 00fa 6408     		lsrs	r4, r4, #1
 505 00fc 6400     		lsls	r4, r4, #1
 506 00fe 1480     		strh	r4, [r2]
 507              	.LBE8:
 508              		.loc 1 238 7 view .LVU137
 239:Drivers/STM32L0xx_HAL_Driver/Src/stm32l0xx_ll_usb.c **** 
 240:Drivers/STM32L0xx_HAL_Driver/Src/stm32l0xx_ll_usb.c ****       /*Set the endpoint Receive buffer counter*/
 241:Drivers/STM32L0xx_HAL_Driver/Src/stm32l0xx_ll_usb.c ****       PCD_SET_EP_RX_CNT(USBx, ep->num, ep->maxpacket);
 509              		.loc 1 241 7 view .LVU138
 510              	.LBB9:
 511              		.loc 1 241 7 view .LVU139
 512              	.LVL45:
 513              		.loc 1 241 7 view .LVU140
 514              		.loc 1 241 7 view .LVU141
 515 0100 9D5B     		ldrh	r5, [r3, r6]
 516              	.LVL46:
 517              		.loc 1 241 7 is_stmt 0 view .LVU142
 518 0102 5D19     		adds	r5, r3, r5
 519              	.LVL47:
 520              		.loc 1 241 7 is_stmt 1 view .LVU143
 521 0104 0A78     		ldrb	r2, [r1]
 522              	.LVL48:
 523              		.loc 1 241 7 is_stmt 0 view .LVU144
 524 0106 D200     		lsls	r2, r2, #3
 525 0108 5219     		adds	r2, r2, r5
 526 010a 714C     		ldr	r4, .L37+24
 527 010c A446     		mov	ip, r4
 528 010e 6244     		add	r2, r2, ip
 529              	.LVL49:
 530              		.loc 1 241 7 is_stmt 1 view .LVU145
 531              	.LBB10:
 532              		.loc 1 241 7 view .LVU146
 533              		.loc 1 241 7 view .LVU147
 534 0110 0C69     		ldr	r4, [r1, #16]
 535 0112 002C     		cmp	r4, #0
 536 0114 23D1     		bne	.L21
 537              		.loc 1 241 7 discriminator 1 view .LVU148
 538 0116 1488     		ldrh	r4, [r2]
 539 0118 6E4D     		ldr	r5, .L37+28
 540              	.LVL50:
 541              		.loc 1 241 7 is_stmt 0 discriminator 1 view .LVU149
 542 011a 2C40     		ands	r4, r5
 543 011c 1480     		strh	r4, [r2]
 544              		.loc 1 241 7 is_stmt 1 discriminator 1 view .LVU150
 545 011e 1488     		ldrh	r4, [r2]
 546 0120 6D4D     		ldr	r5, .L37+32
 547 0122 2C43     		orrs	r4, r5
 548 0124 A4B2     		uxth	r4, r4
 549 0126 1480     		strh	r4, [r2]
 550              	.L22:
 551              		.loc 1 241 7 discriminator 13 view .LVU151
 552              	.LBE10:
 553              		.loc 1 241 7 discriminator 13 view .LVU152
 554              	.LBE9:
 555              		.loc 1 241 7 discriminator 13 view .LVU153
 242:Drivers/STM32L0xx_HAL_Driver/Src/stm32l0xx_ll_usb.c ****       PCD_CLEAR_RX_DTOG(USBx, ep->num);
 556              		.loc 1 242 7 discriminator 13 view .LVU154
ARM GAS  /tmp/ccSuEEYJ.s 			page 15


 557              	.LBB12:
 558              		.loc 1 242 7 discriminator 13 view .LVU155
 559              		.loc 1 242 7 discriminator 13 view .LVU156
 560 0128 0A78     		ldrb	r2, [r1]
 561              	.LVL51:
 562              		.loc 1 242 7 is_stmt 0 discriminator 13 view .LVU157
 563 012a 9200     		lsls	r2, r2, #2
 564 012c 9A18     		adds	r2, r3, r2
 565 012e 1488     		ldrh	r4, [r2]
 566              	.LVL52:
 567              		.loc 1 242 7 is_stmt 1 discriminator 13 view .LVU158
 568 0130 6404     		lsls	r4, r4, #17
 569 0132 06D5     		bpl	.L26
 570              	.LVL53:
 571              		.loc 1 242 7 discriminator 1 view .LVU159
 572              	.LBB13:
 573              		.loc 1 242 7 discriminator 1 view .LVU160
 574              		.loc 1 242 7 discriminator 1 view .LVU161
 575 0134 1488     		ldrh	r4, [r2]
 576 0136 624D     		ldr	r5, .L37+8
 577 0138 2540     		ands	r5, r4
 578              	.LVL54:
 579              		.loc 1 242 7 discriminator 1 view .LVU162
 580 013a 684C     		ldr	r4, .L37+36
 581 013c 2C43     		orrs	r4, r5
 582 013e A4B2     		uxth	r4, r4
 583 0140 1480     		strh	r4, [r2]
 584              	.LVL55:
 585              	.L26:
 586              		.loc 1 242 7 is_stmt 0 discriminator 1 view .LVU163
 587              	.LBE13:
 588              		.loc 1 242 7 is_stmt 1 discriminator 3 view .LVU164
 589              	.LBE12:
 590              		.loc 1 242 7 discriminator 3 view .LVU165
 243:Drivers/STM32L0xx_HAL_Driver/Src/stm32l0xx_ll_usb.c **** 
 244:Drivers/STM32L0xx_HAL_Driver/Src/stm32l0xx_ll_usb.c ****       /* Configure VALID status for the Endpoint*/
 245:Drivers/STM32L0xx_HAL_Driver/Src/stm32l0xx_ll_usb.c ****       PCD_SET_EP_RX_STATUS(USBx, ep->num, USB_EP_RX_VALID);
 591              		.loc 1 245 7 discriminator 3 view .LVU166
 592              	.LBB14:
 593              		.loc 1 245 7 discriminator 3 view .LVU167
 594              		.loc 1 245 7 discriminator 3 view .LVU168
 595 0142 0A78     		ldrb	r2, [r1]
 596 0144 9200     		lsls	r2, r2, #2
 597 0146 9B18     		adds	r3, r3, r2
 598              	.LVL56:
 599              		.loc 1 245 7 is_stmt 0 discriminator 3 view .LVU169
 600 0148 1988     		ldrh	r1, [r3]
 601              	.LVL57:
 602              		.loc 1 245 7 discriminator 3 view .LVU170
 603 014a 654A     		ldr	r2, .L37+40
 604 014c 1140     		ands	r1, r2
 605              	.LVL58:
 606              		.loc 1 245 7 is_stmt 1 discriminator 3 view .LVU171
 607              		.loc 1 245 7 discriminator 3 view .LVU172
 608              		.loc 1 245 7 discriminator 3 view .LVU173
 609              		.loc 1 245 7 discriminator 3 view .LVU174
 610 014e C022     		movs	r2, #192
ARM GAS  /tmp/ccSuEEYJ.s 			page 16


 611 0150 9201     		lsls	r2, r2, #6
 612 0152 5140     		eors	r1, r2
 613              	.LVL59:
 614              		.loc 1 245 7 discriminator 3 view .LVU175
 615 0154 594A     		ldr	r2, .L37+4
 616 0156 0A43     		orrs	r2, r1
 617 0158 92B2     		uxth	r2, r2
 618 015a 1A80     		strh	r2, [r3]
 619              	.LVL60:
 620              	.L20:
 621              		.loc 1 245 7 is_stmt 0 discriminator 3 view .LVU176
 622              	.LBE14:
 246:Drivers/STM32L0xx_HAL_Driver/Src/stm32l0xx_ll_usb.c ****     }
 247:Drivers/STM32L0xx_HAL_Driver/Src/stm32l0xx_ll_usb.c ****   }
 248:Drivers/STM32L0xx_HAL_Driver/Src/stm32l0xx_ll_usb.c ****   /*Double Buffer*/
 249:Drivers/STM32L0xx_HAL_Driver/Src/stm32l0xx_ll_usb.c ****   else
 250:Drivers/STM32L0xx_HAL_Driver/Src/stm32l0xx_ll_usb.c ****   {
 251:Drivers/STM32L0xx_HAL_Driver/Src/stm32l0xx_ll_usb.c ****     /* Set the endpoint as double buffered */
 252:Drivers/STM32L0xx_HAL_Driver/Src/stm32l0xx_ll_usb.c ****     PCD_SET_EP_DBUF(USBx, ep->num);
 253:Drivers/STM32L0xx_HAL_Driver/Src/stm32l0xx_ll_usb.c **** 
 254:Drivers/STM32L0xx_HAL_Driver/Src/stm32l0xx_ll_usb.c ****     /* Set buffer address for double buffered mode */
 255:Drivers/STM32L0xx_HAL_Driver/Src/stm32l0xx_ll_usb.c ****     PCD_SET_EP_DBUF_ADDR(USBx, ep->num, ep->pmaaddr0, ep->pmaaddr1);
 256:Drivers/STM32L0xx_HAL_Driver/Src/stm32l0xx_ll_usb.c **** 
 257:Drivers/STM32L0xx_HAL_Driver/Src/stm32l0xx_ll_usb.c ****     if (ep->is_in == 0U)
 258:Drivers/STM32L0xx_HAL_Driver/Src/stm32l0xx_ll_usb.c ****     {
 259:Drivers/STM32L0xx_HAL_Driver/Src/stm32l0xx_ll_usb.c ****       /* Clear the data toggle bits for the endpoint IN/OUT */
 260:Drivers/STM32L0xx_HAL_Driver/Src/stm32l0xx_ll_usb.c ****       PCD_CLEAR_RX_DTOG(USBx, ep->num);
 261:Drivers/STM32L0xx_HAL_Driver/Src/stm32l0xx_ll_usb.c ****       PCD_CLEAR_TX_DTOG(USBx, ep->num);
 262:Drivers/STM32L0xx_HAL_Driver/Src/stm32l0xx_ll_usb.c **** 
 263:Drivers/STM32L0xx_HAL_Driver/Src/stm32l0xx_ll_usb.c ****       PCD_SET_EP_RX_STATUS(USBx, ep->num, USB_EP_RX_VALID);
 264:Drivers/STM32L0xx_HAL_Driver/Src/stm32l0xx_ll_usb.c ****       PCD_SET_EP_TX_STATUS(USBx, ep->num, USB_EP_TX_DIS);
 265:Drivers/STM32L0xx_HAL_Driver/Src/stm32l0xx_ll_usb.c ****     }
 266:Drivers/STM32L0xx_HAL_Driver/Src/stm32l0xx_ll_usb.c ****     else
 267:Drivers/STM32L0xx_HAL_Driver/Src/stm32l0xx_ll_usb.c ****     {
 268:Drivers/STM32L0xx_HAL_Driver/Src/stm32l0xx_ll_usb.c ****       /* Clear the data toggle bits for the endpoint IN/OUT */
 269:Drivers/STM32L0xx_HAL_Driver/Src/stm32l0xx_ll_usb.c ****       PCD_CLEAR_RX_DTOG(USBx, ep->num);
 270:Drivers/STM32L0xx_HAL_Driver/Src/stm32l0xx_ll_usb.c ****       PCD_CLEAR_TX_DTOG(USBx, ep->num);
 271:Drivers/STM32L0xx_HAL_Driver/Src/stm32l0xx_ll_usb.c **** 
 272:Drivers/STM32L0xx_HAL_Driver/Src/stm32l0xx_ll_usb.c ****       if (ep->type != EP_TYPE_ISOC)
 273:Drivers/STM32L0xx_HAL_Driver/Src/stm32l0xx_ll_usb.c ****       {
 274:Drivers/STM32L0xx_HAL_Driver/Src/stm32l0xx_ll_usb.c ****         /* Configure NAK status for the Endpoint */
 275:Drivers/STM32L0xx_HAL_Driver/Src/stm32l0xx_ll_usb.c ****         PCD_SET_EP_TX_STATUS(USBx, ep->num, USB_EP_TX_NAK);
 276:Drivers/STM32L0xx_HAL_Driver/Src/stm32l0xx_ll_usb.c ****       }
 277:Drivers/STM32L0xx_HAL_Driver/Src/stm32l0xx_ll_usb.c ****       else
 278:Drivers/STM32L0xx_HAL_Driver/Src/stm32l0xx_ll_usb.c ****       {
 279:Drivers/STM32L0xx_HAL_Driver/Src/stm32l0xx_ll_usb.c ****         /* Configure TX Endpoint to disabled state */
 280:Drivers/STM32L0xx_HAL_Driver/Src/stm32l0xx_ll_usb.c ****         PCD_SET_EP_TX_STATUS(USBx, ep->num, USB_EP_TX_DIS);
 281:Drivers/STM32L0xx_HAL_Driver/Src/stm32l0xx_ll_usb.c ****       }
 282:Drivers/STM32L0xx_HAL_Driver/Src/stm32l0xx_ll_usb.c **** 
 283:Drivers/STM32L0xx_HAL_Driver/Src/stm32l0xx_ll_usb.c ****       PCD_SET_EP_RX_STATUS(USBx, ep->num, USB_EP_RX_DIS);
 623              		.loc 1 283 7 is_stmt 1 discriminator 7 view .LVU177
 284:Drivers/STM32L0xx_HAL_Driver/Src/stm32l0xx_ll_usb.c ****     }
 285:Drivers/STM32L0xx_HAL_Driver/Src/stm32l0xx_ll_usb.c ****   }
 286:Drivers/STM32L0xx_HAL_Driver/Src/stm32l0xx_ll_usb.c **** 
 287:Drivers/STM32L0xx_HAL_Driver/Src/stm32l0xx_ll_usb.c ****   return ret;
 624              		.loc 1 287 3 discriminator 7 view .LVU178
 288:Drivers/STM32L0xx_HAL_Driver/Src/stm32l0xx_ll_usb.c **** }
ARM GAS  /tmp/ccSuEEYJ.s 			page 17


 625              		.loc 1 288 1 is_stmt 0 discriminator 7 view .LVU179
 626              		@ sp needed
 627 015c F0BD     		pop	{r4, r5, r6, r7, pc}
 628              	.LVL61:
 629              	.L21:
 630              	.LBB15:
 631              	.LBB11:
 241:Drivers/STM32L0xx_HAL_Driver/Src/stm32l0xx_ll_usb.c ****       PCD_CLEAR_RX_DTOG(USBx, ep->num);
 632              		.loc 1 241 7 is_stmt 1 discriminator 2 view .LVU180
 633 015e 3E2C     		cmp	r4, #62
 634 0160 07D8     		bhi	.L23
 241:Drivers/STM32L0xx_HAL_Driver/Src/stm32l0xx_ll_usb.c ****       PCD_CLEAR_RX_DTOG(USBx, ep->num);
 635              		.loc 1 241 7 discriminator 4 view .LVU181
 241:Drivers/STM32L0xx_HAL_Driver/Src/stm32l0xx_ll_usb.c ****       PCD_CLEAR_RX_DTOG(USBx, ep->num);
 636              		.loc 1 241 7 discriminator 4 view .LVU182
 637 0162 6508     		lsrs	r5, r4, #1
 638              	.LVL62:
 241:Drivers/STM32L0xx_HAL_Driver/Src/stm32l0xx_ll_usb.c ****       PCD_CLEAR_RX_DTOG(USBx, ep->num);
 639              		.loc 1 241 7 discriminator 4 view .LVU183
 640 0164 E407     		lsls	r4, r4, #31
 641 0166 00D5     		bpl	.L24
 241:Drivers/STM32L0xx_HAL_Driver/Src/stm32l0xx_ll_usb.c ****       PCD_CLEAR_RX_DTOG(USBx, ep->num);
 642              		.loc 1 241 7 discriminator 6 view .LVU184
 643 0168 0135     		adds	r5, r5, #1
 644              	.LVL63:
 645              	.L24:
 241:Drivers/STM32L0xx_HAL_Driver/Src/stm32l0xx_ll_usb.c ****       PCD_CLEAR_RX_DTOG(USBx, ep->num);
 646              		.loc 1 241 7 discriminator 8 view .LVU185
 647 016a AD02     		lsls	r5, r5, #10
 648              	.LVL64:
 241:Drivers/STM32L0xx_HAL_Driver/Src/stm32l0xx_ll_usb.c ****       PCD_CLEAR_RX_DTOG(USBx, ep->num);
 649              		.loc 1 241 7 is_stmt 0 discriminator 8 view .LVU186
 650 016c ADB2     		uxth	r5, r5
 651 016e 1580     		strh	r5, [r2]
 241:Drivers/STM32L0xx_HAL_Driver/Src/stm32l0xx_ll_usb.c ****       PCD_CLEAR_RX_DTOG(USBx, ep->num);
 652              		.loc 1 241 7 is_stmt 1 discriminator 8 view .LVU187
 653 0170 DAE7     		b	.L22
 654              	.LVL65:
 655              	.L23:
 241:Drivers/STM32L0xx_HAL_Driver/Src/stm32l0xx_ll_usb.c ****       PCD_CLEAR_RX_DTOG(USBx, ep->num);
 656              		.loc 1 241 7 discriminator 5 view .LVU188
 241:Drivers/STM32L0xx_HAL_Driver/Src/stm32l0xx_ll_usb.c ****       PCD_CLEAR_RX_DTOG(USBx, ep->num);
 657              		.loc 1 241 7 discriminator 5 view .LVU189
 658 0172 6509     		lsrs	r5, r4, #5
 659              	.LVL66:
 241:Drivers/STM32L0xx_HAL_Driver/Src/stm32l0xx_ll_usb.c ****       PCD_CLEAR_RX_DTOG(USBx, ep->num);
 660              		.loc 1 241 7 discriminator 5 view .LVU190
 661 0174 E406     		lsls	r4, r4, #27
 662 0176 00D1     		bne	.L25
 241:Drivers/STM32L0xx_HAL_Driver/Src/stm32l0xx_ll_usb.c ****       PCD_CLEAR_RX_DTOG(USBx, ep->num);
 663              		.loc 1 241 7 discriminator 10 view .LVU191
 664 0178 013D     		subs	r5, r5, #1
 665              	.LVL67:
 666              	.L25:
 241:Drivers/STM32L0xx_HAL_Driver/Src/stm32l0xx_ll_usb.c ****       PCD_CLEAR_RX_DTOG(USBx, ep->num);
 667              		.loc 1 241 7 discriminator 12 view .LVU192
 668 017a AD02     		lsls	r5, r5, #10
ARM GAS  /tmp/ccSuEEYJ.s 			page 18


 669              	.LVL68:
 241:Drivers/STM32L0xx_HAL_Driver/Src/stm32l0xx_ll_usb.c ****       PCD_CLEAR_RX_DTOG(USBx, ep->num);
 670              		.loc 1 241 7 is_stmt 0 discriminator 12 view .LVU193
 671 017c ADB2     		uxth	r5, r5
 672 017e 564C     		ldr	r4, .L37+32
 673 0180 2543     		orrs	r5, r4
 674 0182 ADB2     		uxth	r5, r5
 675 0184 1580     		strh	r5, [r2]
 676 0186 CFE7     		b	.L22
 677              	.LVL69:
 678              	.L16:
 241:Drivers/STM32L0xx_HAL_Driver/Src/stm32l0xx_ll_usb.c ****       PCD_CLEAR_RX_DTOG(USBx, ep->num);
 679              		.loc 1 241 7 discriminator 12 view .LVU194
 680              	.LBE11:
 681              	.LBE15:
 252:Drivers/STM32L0xx_HAL_Driver/Src/stm32l0xx_ll_usb.c **** 
 682              		.loc 1 252 5 is_stmt 1 view .LVU195
 683              	.LBB16:
 252:Drivers/STM32L0xx_HAL_Driver/Src/stm32l0xx_ll_usb.c **** 
 684              		.loc 1 252 5 view .LVU196
 252:Drivers/STM32L0xx_HAL_Driver/Src/stm32l0xx_ll_usb.c **** 
 685              		.loc 1 252 5 view .LVU197
 686 0188 0A78     		ldrb	r2, [r1]
 687 018a 9200     		lsls	r2, r2, #2
 688 018c 9A18     		adds	r2, r3, r2
 689 018e 1488     		ldrh	r4, [r2]
 690 0190 4B4D     		ldr	r5, .L37+8
 691 0192 2540     		ands	r5, r4
 692              	.LVL70:
 252:Drivers/STM32L0xx_HAL_Driver/Src/stm32l0xx_ll_usb.c **** 
 693              		.loc 1 252 5 view .LVU198
 694 0194 534C     		ldr	r4, .L37+44
 695 0196 2C43     		orrs	r4, r5
 696 0198 A4B2     		uxth	r4, r4
 697 019a 1480     		strh	r4, [r2]
 698              	.LBE16:
 252:Drivers/STM32L0xx_HAL_Driver/Src/stm32l0xx_ll_usb.c **** 
 699              		.loc 1 252 5 view .LVU199
 255:Drivers/STM32L0xx_HAL_Driver/Src/stm32l0xx_ll_usb.c **** 
 700              		.loc 1 255 5 view .LVU200
 255:Drivers/STM32L0xx_HAL_Driver/Src/stm32l0xx_ll_usb.c **** 
 701              		.loc 1 255 5 view .LVU201
 255:Drivers/STM32L0xx_HAL_Driver/Src/stm32l0xx_ll_usb.c **** 
 702              		.loc 1 255 5 view .LVU202
 703              	.LBB17:
 255:Drivers/STM32L0xx_HAL_Driver/Src/stm32l0xx_ll_usb.c **** 
 704              		.loc 1 255 5 view .LVU203
 255:Drivers/STM32L0xx_HAL_Driver/Src/stm32l0xx_ll_usb.c **** 
 705              		.loc 1 255 5 view .LVU204
 706              	.LVL71:
 255:Drivers/STM32L0xx_HAL_Driver/Src/stm32l0xx_ll_usb.c **** 
 707              		.loc 1 255 5 view .LVU205
 708 019c 5026     		movs	r6, #80
 709 019e 9D5B     		ldrh	r5, [r3, r6]
 710              	.LVL72:
 255:Drivers/STM32L0xx_HAL_Driver/Src/stm32l0xx_ll_usb.c **** 
 711              		.loc 1 255 5 is_stmt 0 view .LVU206
ARM GAS  /tmp/ccSuEEYJ.s 			page 19


 712 01a0 5D19     		adds	r5, r3, r5
 713              	.LVL73:
 255:Drivers/STM32L0xx_HAL_Driver/Src/stm32l0xx_ll_usb.c **** 
 714              		.loc 1 255 5 is_stmt 1 view .LVU207
 715 01a2 0A78     		ldrb	r2, [r1]
 716 01a4 D200     		lsls	r2, r2, #3
 717 01a6 5219     		adds	r2, r2, r5
 718 01a8 8024     		movs	r4, #128
 719 01aa E400     		lsls	r4, r4, #3
 720 01ac A446     		mov	ip, r4
 721 01ae 6244     		add	r2, r2, ip
 722              	.LVL74:
 255:Drivers/STM32L0xx_HAL_Driver/Src/stm32l0xx_ll_usb.c **** 
 723              		.loc 1 255 5 view .LVU208
 724 01b0 0C89     		ldrh	r4, [r1, #8]
 725 01b2 6408     		lsrs	r4, r4, #1
 726 01b4 6400     		lsls	r4, r4, #1
 727 01b6 1480     		strh	r4, [r2]
 728              	.LBE17:
 255:Drivers/STM32L0xx_HAL_Driver/Src/stm32l0xx_ll_usb.c **** 
 729              		.loc 1 255 5 view .LVU209
 255:Drivers/STM32L0xx_HAL_Driver/Src/stm32l0xx_ll_usb.c **** 
 730              		.loc 1 255 5 view .LVU210
 255:Drivers/STM32L0xx_HAL_Driver/Src/stm32l0xx_ll_usb.c **** 
 731              		.loc 1 255 5 view .LVU211
 255:Drivers/STM32L0xx_HAL_Driver/Src/stm32l0xx_ll_usb.c **** 
 732              		.loc 1 255 5 view .LVU212
 733              	.LBB18:
 255:Drivers/STM32L0xx_HAL_Driver/Src/stm32l0xx_ll_usb.c **** 
 734              		.loc 1 255 5 view .LVU213
 255:Drivers/STM32L0xx_HAL_Driver/Src/stm32l0xx_ll_usb.c **** 
 735              		.loc 1 255 5 view .LVU214
 736              	.LVL75:
 255:Drivers/STM32L0xx_HAL_Driver/Src/stm32l0xx_ll_usb.c **** 
 737              		.loc 1 255 5 view .LVU215
 738 01b8 9D5B     		ldrh	r5, [r3, r6]
 739              	.LVL76:
 255:Drivers/STM32L0xx_HAL_Driver/Src/stm32l0xx_ll_usb.c **** 
 740              		.loc 1 255 5 is_stmt 0 view .LVU216
 741 01ba 5D19     		adds	r5, r3, r5
 742              	.LVL77:
 255:Drivers/STM32L0xx_HAL_Driver/Src/stm32l0xx_ll_usb.c **** 
 743              		.loc 1 255 5 is_stmt 1 view .LVU217
 744 01bc 0A78     		ldrb	r2, [r1]
 745              	.LVL78:
 255:Drivers/STM32L0xx_HAL_Driver/Src/stm32l0xx_ll_usb.c **** 
 746              		.loc 1 255 5 is_stmt 0 view .LVU218
 747 01be D200     		lsls	r2, r2, #3
 748 01c0 5219     		adds	r2, r2, r5
 749 01c2 424C     		ldr	r4, .L37+20
 750 01c4 A446     		mov	ip, r4
 751 01c6 6244     		add	r2, r2, ip
 752              	.LVL79:
 255:Drivers/STM32L0xx_HAL_Driver/Src/stm32l0xx_ll_usb.c **** 
 753              		.loc 1 255 5 is_stmt 1 view .LVU219
 754 01c8 4C89     		ldrh	r4, [r1, #10]
 755 01ca 6408     		lsrs	r4, r4, #1
ARM GAS  /tmp/ccSuEEYJ.s 			page 20


 756 01cc 6400     		lsls	r4, r4, #1
 757 01ce 1480     		strh	r4, [r2]
 758              	.LBE18:
 255:Drivers/STM32L0xx_HAL_Driver/Src/stm32l0xx_ll_usb.c **** 
 759              		.loc 1 255 5 view .LVU220
 255:Drivers/STM32L0xx_HAL_Driver/Src/stm32l0xx_ll_usb.c **** 
 760              		.loc 1 255 5 view .LVU221
 255:Drivers/STM32L0xx_HAL_Driver/Src/stm32l0xx_ll_usb.c **** 
 761              		.loc 1 255 5 view .LVU222
 257:Drivers/STM32L0xx_HAL_Driver/Src/stm32l0xx_ll_usb.c ****     {
 762              		.loc 1 257 5 view .LVU223
 257:Drivers/STM32L0xx_HAL_Driver/Src/stm32l0xx_ll_usb.c ****     {
 763              		.loc 1 257 11 is_stmt 0 view .LVU224
 764 01d0 4A78     		ldrb	r2, [r1, #1]
 765              	.LVL80:
 257:Drivers/STM32L0xx_HAL_Driver/Src/stm32l0xx_ll_usb.c ****     {
 766              		.loc 1 257 8 view .LVU225
 767 01d2 002A     		cmp	r2, #0
 768 01d4 30D1     		bne	.L27
 260:Drivers/STM32L0xx_HAL_Driver/Src/stm32l0xx_ll_usb.c ****       PCD_CLEAR_TX_DTOG(USBx, ep->num);
 769              		.loc 1 260 7 is_stmt 1 view .LVU226
 770              	.LBB19:
 260:Drivers/STM32L0xx_HAL_Driver/Src/stm32l0xx_ll_usb.c ****       PCD_CLEAR_TX_DTOG(USBx, ep->num);
 771              		.loc 1 260 7 view .LVU227
 260:Drivers/STM32L0xx_HAL_Driver/Src/stm32l0xx_ll_usb.c ****       PCD_CLEAR_TX_DTOG(USBx, ep->num);
 772              		.loc 1 260 7 view .LVU228
 773 01d6 0A78     		ldrb	r2, [r1]
 774 01d8 9200     		lsls	r2, r2, #2
 775 01da 9A18     		adds	r2, r3, r2
 776 01dc 1488     		ldrh	r4, [r2]
 777              	.LVL81:
 260:Drivers/STM32L0xx_HAL_Driver/Src/stm32l0xx_ll_usb.c ****       PCD_CLEAR_TX_DTOG(USBx, ep->num);
 778              		.loc 1 260 7 view .LVU229
 779 01de 6404     		lsls	r4, r4, #17
 780 01e0 06D5     		bpl	.L28
 781              	.LVL82:
 260:Drivers/STM32L0xx_HAL_Driver/Src/stm32l0xx_ll_usb.c ****       PCD_CLEAR_TX_DTOG(USBx, ep->num);
 782              		.loc 1 260 7 discriminator 1 view .LVU230
 783              	.LBB20:
 260:Drivers/STM32L0xx_HAL_Driver/Src/stm32l0xx_ll_usb.c ****       PCD_CLEAR_TX_DTOG(USBx, ep->num);
 784              		.loc 1 260 7 discriminator 1 view .LVU231
 260:Drivers/STM32L0xx_HAL_Driver/Src/stm32l0xx_ll_usb.c ****       PCD_CLEAR_TX_DTOG(USBx, ep->num);
 785              		.loc 1 260 7 discriminator 1 view .LVU232
 786 01e2 1488     		ldrh	r4, [r2]
 787 01e4 364D     		ldr	r5, .L37+8
 788              	.LVL83:
 260:Drivers/STM32L0xx_HAL_Driver/Src/stm32l0xx_ll_usb.c ****       PCD_CLEAR_TX_DTOG(USBx, ep->num);
 789              		.loc 1 260 7 is_stmt 0 discriminator 1 view .LVU233
 790 01e6 2540     		ands	r5, r4
 791              	.LVL84:
 260:Drivers/STM32L0xx_HAL_Driver/Src/stm32l0xx_ll_usb.c ****       PCD_CLEAR_TX_DTOG(USBx, ep->num);
 792              		.loc 1 260 7 is_stmt 1 discriminator 1 view .LVU234
 793 01e8 3C4C     		ldr	r4, .L37+36
 794 01ea 2C43     		orrs	r4, r5
 795 01ec A4B2     		uxth	r4, r4
 796 01ee 1480     		strh	r4, [r2]
 797              	.LVL85:
ARM GAS  /tmp/ccSuEEYJ.s 			page 21


 798              	.L28:
 260:Drivers/STM32L0xx_HAL_Driver/Src/stm32l0xx_ll_usb.c ****       PCD_CLEAR_TX_DTOG(USBx, ep->num);
 799              		.loc 1 260 7 is_stmt 0 discriminator 1 view .LVU235
 800              	.LBE20:
 260:Drivers/STM32L0xx_HAL_Driver/Src/stm32l0xx_ll_usb.c ****       PCD_CLEAR_TX_DTOG(USBx, ep->num);
 801              		.loc 1 260 7 is_stmt 1 discriminator 3 view .LVU236
 802              	.LBE19:
 260:Drivers/STM32L0xx_HAL_Driver/Src/stm32l0xx_ll_usb.c ****       PCD_CLEAR_TX_DTOG(USBx, ep->num);
 803              		.loc 1 260 7 discriminator 3 view .LVU237
 261:Drivers/STM32L0xx_HAL_Driver/Src/stm32l0xx_ll_usb.c **** 
 804              		.loc 1 261 7 discriminator 3 view .LVU238
 805              	.LBB21:
 261:Drivers/STM32L0xx_HAL_Driver/Src/stm32l0xx_ll_usb.c **** 
 806              		.loc 1 261 7 discriminator 3 view .LVU239
 261:Drivers/STM32L0xx_HAL_Driver/Src/stm32l0xx_ll_usb.c **** 
 807              		.loc 1 261 7 discriminator 3 view .LVU240
 808 01f0 0A78     		ldrb	r2, [r1]
 809 01f2 9200     		lsls	r2, r2, #2
 810 01f4 9A18     		adds	r2, r3, r2
 811 01f6 1488     		ldrh	r4, [r2]
 812              	.LVL86:
 261:Drivers/STM32L0xx_HAL_Driver/Src/stm32l0xx_ll_usb.c **** 
 813              		.loc 1 261 7 discriminator 3 view .LVU241
 814 01f8 6406     		lsls	r4, r4, #25
 815 01fa 06D5     		bpl	.L29
 816              	.LVL87:
 261:Drivers/STM32L0xx_HAL_Driver/Src/stm32l0xx_ll_usb.c **** 
 817              		.loc 1 261 7 discriminator 1 view .LVU242
 818              	.LBB22:
 261:Drivers/STM32L0xx_HAL_Driver/Src/stm32l0xx_ll_usb.c **** 
 819              		.loc 1 261 7 discriminator 1 view .LVU243
 261:Drivers/STM32L0xx_HAL_Driver/Src/stm32l0xx_ll_usb.c **** 
 820              		.loc 1 261 7 discriminator 1 view .LVU244
 821 01fc 1488     		ldrh	r4, [r2]
 822 01fe 304D     		ldr	r5, .L37+8
 823 0200 2540     		ands	r5, r4
 824              	.LVL88:
 261:Drivers/STM32L0xx_HAL_Driver/Src/stm32l0xx_ll_usb.c **** 
 825              		.loc 1 261 7 discriminator 1 view .LVU245
 826 0202 304C     		ldr	r4, .L37+12
 827 0204 2C43     		orrs	r4, r5
 828 0206 A4B2     		uxth	r4, r4
 829 0208 1480     		strh	r4, [r2]
 830              	.LVL89:
 831              	.L29:
 261:Drivers/STM32L0xx_HAL_Driver/Src/stm32l0xx_ll_usb.c **** 
 832              		.loc 1 261 7 is_stmt 0 discriminator 1 view .LVU246
 833              	.LBE22:
 261:Drivers/STM32L0xx_HAL_Driver/Src/stm32l0xx_ll_usb.c **** 
 834              		.loc 1 261 7 is_stmt 1 discriminator 3 view .LVU247
 835              	.LBE21:
 261:Drivers/STM32L0xx_HAL_Driver/Src/stm32l0xx_ll_usb.c **** 
 836              		.loc 1 261 7 discriminator 3 view .LVU248
 263:Drivers/STM32L0xx_HAL_Driver/Src/stm32l0xx_ll_usb.c ****       PCD_SET_EP_TX_STATUS(USBx, ep->num, USB_EP_TX_DIS);
 837              		.loc 1 263 7 discriminator 3 view .LVU249
 838              	.LBB23:
 263:Drivers/STM32L0xx_HAL_Driver/Src/stm32l0xx_ll_usb.c ****       PCD_SET_EP_TX_STATUS(USBx, ep->num, USB_EP_TX_DIS);
ARM GAS  /tmp/ccSuEEYJ.s 			page 22


 839              		.loc 1 263 7 discriminator 3 view .LVU250
 263:Drivers/STM32L0xx_HAL_Driver/Src/stm32l0xx_ll_usb.c ****       PCD_SET_EP_TX_STATUS(USBx, ep->num, USB_EP_TX_DIS);
 840              		.loc 1 263 7 discriminator 3 view .LVU251
 841 020a 0C78     		ldrb	r4, [r1]
 842 020c A400     		lsls	r4, r4, #2
 843 020e 1C19     		adds	r4, r3, r4
 844 0210 2288     		ldrh	r2, [r4]
 845 0212 334D     		ldr	r5, .L37+40
 846 0214 1540     		ands	r5, r2
 847              	.LVL90:
 263:Drivers/STM32L0xx_HAL_Driver/Src/stm32l0xx_ll_usb.c ****       PCD_SET_EP_TX_STATUS(USBx, ep->num, USB_EP_TX_DIS);
 848              		.loc 1 263 7 discriminator 3 view .LVU252
 263:Drivers/STM32L0xx_HAL_Driver/Src/stm32l0xx_ll_usb.c ****       PCD_SET_EP_TX_STATUS(USBx, ep->num, USB_EP_TX_DIS);
 849              		.loc 1 263 7 discriminator 3 view .LVU253
 263:Drivers/STM32L0xx_HAL_Driver/Src/stm32l0xx_ll_usb.c ****       PCD_SET_EP_TX_STATUS(USBx, ep->num, USB_EP_TX_DIS);
 850              		.loc 1 263 7 discriminator 3 view .LVU254
 263:Drivers/STM32L0xx_HAL_Driver/Src/stm32l0xx_ll_usb.c ****       PCD_SET_EP_TX_STATUS(USBx, ep->num, USB_EP_TX_DIS);
 851              		.loc 1 263 7 discriminator 3 view .LVU255
 852 0216 C022     		movs	r2, #192
 853 0218 9201     		lsls	r2, r2, #6
 854 021a 6A40     		eors	r2, r5
 855              	.LVL91:
 263:Drivers/STM32L0xx_HAL_Driver/Src/stm32l0xx_ll_usb.c ****       PCD_SET_EP_TX_STATUS(USBx, ep->num, USB_EP_TX_DIS);
 856              		.loc 1 263 7 discriminator 3 view .LVU256
 857 021c 274D     		ldr	r5, .L37+4
 858 021e 2A43     		orrs	r2, r5
 859              	.LVL92:
 263:Drivers/STM32L0xx_HAL_Driver/Src/stm32l0xx_ll_usb.c ****       PCD_SET_EP_TX_STATUS(USBx, ep->num, USB_EP_TX_DIS);
 860              		.loc 1 263 7 is_stmt 0 discriminator 3 view .LVU257
 861 0220 92B2     		uxth	r2, r2
 862 0222 2280     		strh	r2, [r4]
 863              	.LBE23:
 263:Drivers/STM32L0xx_HAL_Driver/Src/stm32l0xx_ll_usb.c ****       PCD_SET_EP_TX_STATUS(USBx, ep->num, USB_EP_TX_DIS);
 864              		.loc 1 263 7 is_stmt 1 discriminator 3 view .LVU258
 264:Drivers/STM32L0xx_HAL_Driver/Src/stm32l0xx_ll_usb.c ****     }
 865              		.loc 1 264 7 discriminator 3 view .LVU259
 866              	.LBB24:
 264:Drivers/STM32L0xx_HAL_Driver/Src/stm32l0xx_ll_usb.c ****     }
 867              		.loc 1 264 7 discriminator 3 view .LVU260
 264:Drivers/STM32L0xx_HAL_Driver/Src/stm32l0xx_ll_usb.c ****     }
 868              		.loc 1 264 7 discriminator 3 view .LVU261
 869 0224 0A78     		ldrb	r2, [r1]
 870 0226 9200     		lsls	r2, r2, #2
 871 0228 9B18     		adds	r3, r3, r2
 872              	.LVL93:
 264:Drivers/STM32L0xx_HAL_Driver/Src/stm32l0xx_ll_usb.c ****     }
 873              		.loc 1 264 7 is_stmt 0 discriminator 3 view .LVU262
 874 022a 1A88     		ldrh	r2, [r3]
 875 022c 2649     		ldr	r1, .L37+16
 876              	.LVL94:
 264:Drivers/STM32L0xx_HAL_Driver/Src/stm32l0xx_ll_usb.c ****     }
 877              		.loc 1 264 7 discriminator 3 view .LVU263
 878 022e 0A40     		ands	r2, r1
 879              	.LVL95:
 264:Drivers/STM32L0xx_HAL_Driver/Src/stm32l0xx_ll_usb.c ****     }
 880              		.loc 1 264 7 is_stmt 1 discriminator 3 view .LVU264
 264:Drivers/STM32L0xx_HAL_Driver/Src/stm32l0xx_ll_usb.c ****     }
ARM GAS  /tmp/ccSuEEYJ.s 			page 23


 881              		.loc 1 264 7 discriminator 3 view .LVU265
 264:Drivers/STM32L0xx_HAL_Driver/Src/stm32l0xx_ll_usb.c ****     }
 882              		.loc 1 264 7 discriminator 3 view .LVU266
 883 0230 2A43     		orrs	r2, r5
 884              	.LVL96:
 264:Drivers/STM32L0xx_HAL_Driver/Src/stm32l0xx_ll_usb.c ****     }
 885              		.loc 1 264 7 is_stmt 0 discriminator 3 view .LVU267
 886 0232 92B2     		uxth	r2, r2
 887 0234 1A80     		strh	r2, [r3]
 888              	.LBE24:
 264:Drivers/STM32L0xx_HAL_Driver/Src/stm32l0xx_ll_usb.c ****     }
 889              		.loc 1 264 7 is_stmt 1 discriminator 3 view .LVU268
 890 0236 91E7     		b	.L20
 891              	.LVL97:
 892              	.L27:
 269:Drivers/STM32L0xx_HAL_Driver/Src/stm32l0xx_ll_usb.c ****       PCD_CLEAR_TX_DTOG(USBx, ep->num);
 893              		.loc 1 269 7 view .LVU269
 894              	.LBB25:
 269:Drivers/STM32L0xx_HAL_Driver/Src/stm32l0xx_ll_usb.c ****       PCD_CLEAR_TX_DTOG(USBx, ep->num);
 895              		.loc 1 269 7 view .LVU270
 269:Drivers/STM32L0xx_HAL_Driver/Src/stm32l0xx_ll_usb.c ****       PCD_CLEAR_TX_DTOG(USBx, ep->num);
 896              		.loc 1 269 7 view .LVU271
 897 0238 0A78     		ldrb	r2, [r1]
 898 023a 9200     		lsls	r2, r2, #2
 899 023c 9A18     		adds	r2, r3, r2
 900 023e 1488     		ldrh	r4, [r2]
 901              	.LVL98:
 269:Drivers/STM32L0xx_HAL_Driver/Src/stm32l0xx_ll_usb.c ****       PCD_CLEAR_TX_DTOG(USBx, ep->num);
 902              		.loc 1 269 7 view .LVU272
 903 0240 6404     		lsls	r4, r4, #17
 904 0242 06D5     		bpl	.L30
 905              	.LVL99:
 269:Drivers/STM32L0xx_HAL_Driver/Src/stm32l0xx_ll_usb.c ****       PCD_CLEAR_TX_DTOG(USBx, ep->num);
 906              		.loc 1 269 7 discriminator 1 view .LVU273
 907              	.LBB26:
 269:Drivers/STM32L0xx_HAL_Driver/Src/stm32l0xx_ll_usb.c ****       PCD_CLEAR_TX_DTOG(USBx, ep->num);
 908              		.loc 1 269 7 discriminator 1 view .LVU274
 269:Drivers/STM32L0xx_HAL_Driver/Src/stm32l0xx_ll_usb.c ****       PCD_CLEAR_TX_DTOG(USBx, ep->num);
 909              		.loc 1 269 7 discriminator 1 view .LVU275
 910 0244 1488     		ldrh	r4, [r2]
 911 0246 1E4D     		ldr	r5, .L37+8
 912              	.LVL100:
 269:Drivers/STM32L0xx_HAL_Driver/Src/stm32l0xx_ll_usb.c ****       PCD_CLEAR_TX_DTOG(USBx, ep->num);
 913              		.loc 1 269 7 is_stmt 0 discriminator 1 view .LVU276
 914 0248 2540     		ands	r5, r4
 915              	.LVL101:
 269:Drivers/STM32L0xx_HAL_Driver/Src/stm32l0xx_ll_usb.c ****       PCD_CLEAR_TX_DTOG(USBx, ep->num);
 916              		.loc 1 269 7 is_stmt 1 discriminator 1 view .LVU277
 917 024a 244C     		ldr	r4, .L37+36
 918 024c 2C43     		orrs	r4, r5
 919 024e A4B2     		uxth	r4, r4
 920 0250 1480     		strh	r4, [r2]
 921              	.LVL102:
 922              	.L30:
 269:Drivers/STM32L0xx_HAL_Driver/Src/stm32l0xx_ll_usb.c ****       PCD_CLEAR_TX_DTOG(USBx, ep->num);
 923              		.loc 1 269 7 is_stmt 0 discriminator 1 view .LVU278
 924              	.LBE26:
ARM GAS  /tmp/ccSuEEYJ.s 			page 24


 269:Drivers/STM32L0xx_HAL_Driver/Src/stm32l0xx_ll_usb.c ****       PCD_CLEAR_TX_DTOG(USBx, ep->num);
 925              		.loc 1 269 7 is_stmt 1 discriminator 3 view .LVU279
 926              	.LBE25:
 269:Drivers/STM32L0xx_HAL_Driver/Src/stm32l0xx_ll_usb.c ****       PCD_CLEAR_TX_DTOG(USBx, ep->num);
 927              		.loc 1 269 7 discriminator 3 view .LVU280
 270:Drivers/STM32L0xx_HAL_Driver/Src/stm32l0xx_ll_usb.c **** 
 928              		.loc 1 270 7 discriminator 3 view .LVU281
 929              	.LBB27:
 270:Drivers/STM32L0xx_HAL_Driver/Src/stm32l0xx_ll_usb.c **** 
 930              		.loc 1 270 7 discriminator 3 view .LVU282
 270:Drivers/STM32L0xx_HAL_Driver/Src/stm32l0xx_ll_usb.c **** 
 931              		.loc 1 270 7 discriminator 3 view .LVU283
 932 0252 0A78     		ldrb	r2, [r1]
 933 0254 9200     		lsls	r2, r2, #2
 934 0256 9A18     		adds	r2, r3, r2
 935 0258 1488     		ldrh	r4, [r2]
 936              	.LVL103:
 270:Drivers/STM32L0xx_HAL_Driver/Src/stm32l0xx_ll_usb.c **** 
 937              		.loc 1 270 7 discriminator 3 view .LVU284
 938 025a 6406     		lsls	r4, r4, #25
 939 025c 06D5     		bpl	.L31
 940              	.LVL104:
 270:Drivers/STM32L0xx_HAL_Driver/Src/stm32l0xx_ll_usb.c **** 
 941              		.loc 1 270 7 discriminator 1 view .LVU285
 942              	.LBB28:
 270:Drivers/STM32L0xx_HAL_Driver/Src/stm32l0xx_ll_usb.c **** 
 943              		.loc 1 270 7 discriminator 1 view .LVU286
 270:Drivers/STM32L0xx_HAL_Driver/Src/stm32l0xx_ll_usb.c **** 
 944              		.loc 1 270 7 discriminator 1 view .LVU287
 945 025e 1488     		ldrh	r4, [r2]
 946 0260 174D     		ldr	r5, .L37+8
 947 0262 2540     		ands	r5, r4
 948              	.LVL105:
 270:Drivers/STM32L0xx_HAL_Driver/Src/stm32l0xx_ll_usb.c **** 
 949              		.loc 1 270 7 discriminator 1 view .LVU288
 950 0264 174C     		ldr	r4, .L37+12
 951 0266 2C43     		orrs	r4, r5
 952 0268 A4B2     		uxth	r4, r4
 953 026a 1480     		strh	r4, [r2]
 954              	.LVL106:
 955              	.L31:
 270:Drivers/STM32L0xx_HAL_Driver/Src/stm32l0xx_ll_usb.c **** 
 956              		.loc 1 270 7 is_stmt 0 discriminator 1 view .LVU289
 957              	.LBE28:
 270:Drivers/STM32L0xx_HAL_Driver/Src/stm32l0xx_ll_usb.c **** 
 958              		.loc 1 270 7 is_stmt 1 discriminator 3 view .LVU290
 959              	.LBE27:
 270:Drivers/STM32L0xx_HAL_Driver/Src/stm32l0xx_ll_usb.c **** 
 960              		.loc 1 270 7 discriminator 3 view .LVU291
 272:Drivers/STM32L0xx_HAL_Driver/Src/stm32l0xx_ll_usb.c ****       {
 961              		.loc 1 272 7 discriminator 3 view .LVU292
 272:Drivers/STM32L0xx_HAL_Driver/Src/stm32l0xx_ll_usb.c ****       {
 962              		.loc 1 272 13 is_stmt 0 discriminator 3 view .LVU293
 963 026c CA78     		ldrb	r2, [r1, #3]
 272:Drivers/STM32L0xx_HAL_Driver/Src/stm32l0xx_ll_usb.c ****       {
 964              		.loc 1 272 10 discriminator 3 view .LVU294
 965 026e 012A     		cmp	r2, #1
ARM GAS  /tmp/ccSuEEYJ.s 			page 25


 966 0270 17D0     		beq	.L32
 275:Drivers/STM32L0xx_HAL_Driver/Src/stm32l0xx_ll_usb.c ****       }
 967              		.loc 1 275 9 is_stmt 1 view .LVU295
 968              	.LBB29:
 275:Drivers/STM32L0xx_HAL_Driver/Src/stm32l0xx_ll_usb.c ****       }
 969              		.loc 1 275 9 view .LVU296
 275:Drivers/STM32L0xx_HAL_Driver/Src/stm32l0xx_ll_usb.c ****       }
 970              		.loc 1 275 9 view .LVU297
 971 0272 0C78     		ldrb	r4, [r1]
 972 0274 A400     		lsls	r4, r4, #2
 973 0276 1C19     		adds	r4, r3, r4
 974 0278 2288     		ldrh	r2, [r4]
 975 027a 134D     		ldr	r5, .L37+16
 976 027c 2A40     		ands	r2, r5
 977              	.LVL107:
 275:Drivers/STM32L0xx_HAL_Driver/Src/stm32l0xx_ll_usb.c ****       }
 978              		.loc 1 275 9 view .LVU298
 275:Drivers/STM32L0xx_HAL_Driver/Src/stm32l0xx_ll_usb.c ****       }
 979              		.loc 1 275 9 view .LVU299
 275:Drivers/STM32L0xx_HAL_Driver/Src/stm32l0xx_ll_usb.c ****       }
 980              		.loc 1 275 9 view .LVU300
 981 027e 2025     		movs	r5, #32
 982 0280 6A40     		eors	r2, r5
 983              	.LVL108:
 275:Drivers/STM32L0xx_HAL_Driver/Src/stm32l0xx_ll_usb.c ****       }
 984              		.loc 1 275 9 is_stmt 0 view .LVU301
 985 0282 92B2     		uxth	r2, r2
 986              	.LVL109:
 275:Drivers/STM32L0xx_HAL_Driver/Src/stm32l0xx_ll_usb.c ****       }
 987              		.loc 1 275 9 is_stmt 1 view .LVU302
 988 0284 0D4D     		ldr	r5, .L37+4
 989 0286 2A43     		orrs	r2, r5
 990              	.LVL110:
 275:Drivers/STM32L0xx_HAL_Driver/Src/stm32l0xx_ll_usb.c ****       }
 991              		.loc 1 275 9 is_stmt 0 view .LVU303
 992 0288 92B2     		uxth	r2, r2
 993 028a 2280     		strh	r2, [r4]
 994              	.LBE29:
 275:Drivers/STM32L0xx_HAL_Driver/Src/stm32l0xx_ll_usb.c ****       }
 995              		.loc 1 275 9 is_stmt 1 view .LVU304
 996              	.L33:
 280:Drivers/STM32L0xx_HAL_Driver/Src/stm32l0xx_ll_usb.c ****       }
 997              		.loc 1 280 9 discriminator 7 view .LVU305
 283:Drivers/STM32L0xx_HAL_Driver/Src/stm32l0xx_ll_usb.c ****     }
 998              		.loc 1 283 7 discriminator 7 view .LVU306
 999              	.LBB30:
 283:Drivers/STM32L0xx_HAL_Driver/Src/stm32l0xx_ll_usb.c ****     }
 1000              		.loc 1 283 7 discriminator 7 view .LVU307
 283:Drivers/STM32L0xx_HAL_Driver/Src/stm32l0xx_ll_usb.c ****     }
 1001              		.loc 1 283 7 discriminator 7 view .LVU308
 1002 028c 0A78     		ldrb	r2, [r1]
 1003 028e 9200     		lsls	r2, r2, #2
 1004 0290 9B18     		adds	r3, r3, r2
 1005              	.LVL111:
 283:Drivers/STM32L0xx_HAL_Driver/Src/stm32l0xx_ll_usb.c ****     }
 1006              		.loc 1 283 7 is_stmt 0 discriminator 7 view .LVU309
 1007 0292 1A88     		ldrh	r2, [r3]
ARM GAS  /tmp/ccSuEEYJ.s 			page 26


 1008 0294 1249     		ldr	r1, .L37+40
 1009              	.LVL112:
 283:Drivers/STM32L0xx_HAL_Driver/Src/stm32l0xx_ll_usb.c ****     }
 1010              		.loc 1 283 7 discriminator 7 view .LVU310
 1011 0296 1140     		ands	r1, r2
 1012              	.LVL113:
 283:Drivers/STM32L0xx_HAL_Driver/Src/stm32l0xx_ll_usb.c ****     }
 1013              		.loc 1 283 7 is_stmt 1 discriminator 7 view .LVU311
 283:Drivers/STM32L0xx_HAL_Driver/Src/stm32l0xx_ll_usb.c ****     }
 1014              		.loc 1 283 7 discriminator 7 view .LVU312
 283:Drivers/STM32L0xx_HAL_Driver/Src/stm32l0xx_ll_usb.c ****     }
 1015              		.loc 1 283 7 discriminator 7 view .LVU313
 1016 0298 084A     		ldr	r2, .L37+4
 1017 029a 0A43     		orrs	r2, r1
 1018 029c 92B2     		uxth	r2, r2
 1019 029e 1A80     		strh	r2, [r3]
 1020 02a0 5CE7     		b	.L20
 1021              	.LVL114:
 1022              	.L32:
 283:Drivers/STM32L0xx_HAL_Driver/Src/stm32l0xx_ll_usb.c ****     }
 1023              		.loc 1 283 7 is_stmt 0 discriminator 7 view .LVU314
 1024              	.LBE30:
 280:Drivers/STM32L0xx_HAL_Driver/Src/stm32l0xx_ll_usb.c ****       }
 1025              		.loc 1 280 9 is_stmt 1 view .LVU315
 1026              	.LBB31:
 280:Drivers/STM32L0xx_HAL_Driver/Src/stm32l0xx_ll_usb.c ****       }
 1027              		.loc 1 280 9 view .LVU316
 280:Drivers/STM32L0xx_HAL_Driver/Src/stm32l0xx_ll_usb.c ****       }
 1028              		.loc 1 280 9 view .LVU317
 1029 02a2 0A78     		ldrb	r2, [r1]
 1030 02a4 9200     		lsls	r2, r2, #2
 1031 02a6 9A18     		adds	r2, r3, r2
 1032 02a8 1488     		ldrh	r4, [r2]
 1033 02aa 074D     		ldr	r5, .L37+16
 1034 02ac 2540     		ands	r5, r4
 1035              	.LVL115:
 280:Drivers/STM32L0xx_HAL_Driver/Src/stm32l0xx_ll_usb.c ****       }
 1036              		.loc 1 280 9 view .LVU318
 280:Drivers/STM32L0xx_HAL_Driver/Src/stm32l0xx_ll_usb.c ****       }
 1037              		.loc 1 280 9 view .LVU319
 280:Drivers/STM32L0xx_HAL_Driver/Src/stm32l0xx_ll_usb.c ****       }
 1038              		.loc 1 280 9 view .LVU320
 1039 02ae 034C     		ldr	r4, .L37+4
 1040 02b0 2C43     		orrs	r4, r5
 1041 02b2 A4B2     		uxth	r4, r4
 1042 02b4 1480     		strh	r4, [r2]
 1043 02b6 E9E7     		b	.L33
 1044              	.L38:
 1045              		.align	2
 1046              	.L37:
 1047 02b8 8F89FFFF 		.word	-30321
 1048 02bc 8080FFFF 		.word	-32640
 1049 02c0 8F8FFFFF 		.word	-28785
 1050 02c4 C080FFFF 		.word	-32576
 1051 02c8 BF8FFFFF 		.word	-28737
 1052 02cc 04040000 		.word	1028
 1053 02d0 06040000 		.word	1030
ARM GAS  /tmp/ccSuEEYJ.s 			page 27


 1054 02d4 FF83FFFF 		.word	-31745
 1055 02d8 0080FFFF 		.word	-32768
 1056 02dc 80C0FFFF 		.word	-16256
 1057 02e0 8FBFFFFF 		.word	-16497
 1058 02e4 8081FFFF 		.word	-32384
 1059              	.LBE31:
 1060              		.cfi_endproc
 1061              	.LFE39:
 1063              		.section	.text.USB_DeactivateEndpoint,"ax",%progbits
 1064              		.align	1
 1065              		.global	USB_DeactivateEndpoint
 1066              		.syntax unified
 1067              		.code	16
 1068              		.thumb_func
 1070              	USB_DeactivateEndpoint:
 1071              	.LVL116:
 1072              	.LFB40:
 289:Drivers/STM32L0xx_HAL_Driver/Src/stm32l0xx_ll_usb.c **** 
 290:Drivers/STM32L0xx_HAL_Driver/Src/stm32l0xx_ll_usb.c **** /**
 291:Drivers/STM32L0xx_HAL_Driver/Src/stm32l0xx_ll_usb.c ****   * @brief  De-activate and de-initialize an endpoint
 292:Drivers/STM32L0xx_HAL_Driver/Src/stm32l0xx_ll_usb.c ****   * @param  USBx Selected device
 293:Drivers/STM32L0xx_HAL_Driver/Src/stm32l0xx_ll_usb.c ****   * @param  ep pointer to endpoint structure
 294:Drivers/STM32L0xx_HAL_Driver/Src/stm32l0xx_ll_usb.c ****   * @retval HAL status
 295:Drivers/STM32L0xx_HAL_Driver/Src/stm32l0xx_ll_usb.c ****   */
 296:Drivers/STM32L0xx_HAL_Driver/Src/stm32l0xx_ll_usb.c **** HAL_StatusTypeDef USB_DeactivateEndpoint(USB_TypeDef *USBx, USB_EPTypeDef *ep)
 297:Drivers/STM32L0xx_HAL_Driver/Src/stm32l0xx_ll_usb.c **** {
 1073              		.loc 1 297 1 view -0
 1074              		.cfi_startproc
 1075              		@ args = 0, pretend = 0, frame = 0
 1076              		@ frame_needed = 0, uses_anonymous_args = 0
 1077              		.loc 1 297 1 is_stmt 0 view .LVU322
 1078 0000 10B5     		push	{r4, lr}
 1079              	.LCFI3:
 1080              		.cfi_def_cfa_offset 8
 1081              		.cfi_offset 4, -8
 1082              		.cfi_offset 14, -4
 298:Drivers/STM32L0xx_HAL_Driver/Src/stm32l0xx_ll_usb.c ****   if (ep->doublebuffer == 0U)
 1083              		.loc 1 298 3 is_stmt 1 view .LVU323
 1084              		.loc 1 298 9 is_stmt 0 view .LVU324
 1085 0002 0B7B     		ldrb	r3, [r1, #12]
 1086              		.loc 1 298 6 view .LVU325
 1087 0004 002B     		cmp	r3, #0
 1088 0006 33D1     		bne	.L40
 299:Drivers/STM32L0xx_HAL_Driver/Src/stm32l0xx_ll_usb.c ****   {
 300:Drivers/STM32L0xx_HAL_Driver/Src/stm32l0xx_ll_usb.c ****     if (ep->is_in != 0U)
 1089              		.loc 1 300 5 is_stmt 1 view .LVU326
 1090              		.loc 1 300 11 is_stmt 0 view .LVU327
 1091 0008 4B78     		ldrb	r3, [r1, #1]
 1092              		.loc 1 300 8 view .LVU328
 1093 000a 002B     		cmp	r3, #0
 1094 000c 18D0     		beq	.L41
 301:Drivers/STM32L0xx_HAL_Driver/Src/stm32l0xx_ll_usb.c ****     {
 302:Drivers/STM32L0xx_HAL_Driver/Src/stm32l0xx_ll_usb.c ****       PCD_CLEAR_TX_DTOG(USBx, ep->num);
 1095              		.loc 1 302 7 is_stmt 1 view .LVU329
 1096              	.LBB32:
 1097              		.loc 1 302 7 view .LVU330
 1098              		.loc 1 302 7 view .LVU331
ARM GAS  /tmp/ccSuEEYJ.s 			page 28


 1099 000e 0B78     		ldrb	r3, [r1]
 1100 0010 9B00     		lsls	r3, r3, #2
 1101 0012 C318     		adds	r3, r0, r3
 1102 0014 1A88     		ldrh	r2, [r3]
 1103              	.LVL117:
 1104              		.loc 1 302 7 view .LVU332
 1105 0016 5206     		lsls	r2, r2, #25
 1106 0018 06D5     		bpl	.L42
 1107              	.LVL118:
 1108              		.loc 1 302 7 discriminator 1 view .LVU333
 1109              	.LBB33:
 1110              		.loc 1 302 7 discriminator 1 view .LVU334
 1111              		.loc 1 302 7 discriminator 1 view .LVU335
 1112 001a 1A88     		ldrh	r2, [r3]
 1113 001c 4E4C     		ldr	r4, .L50
 1114 001e 1440     		ands	r4, r2
 1115              	.LVL119:
 1116              		.loc 1 302 7 discriminator 1 view .LVU336
 1117 0020 4E4A     		ldr	r2, .L50+4
 1118 0022 2243     		orrs	r2, r4
 1119 0024 92B2     		uxth	r2, r2
 1120 0026 1A80     		strh	r2, [r3]
 1121              	.LVL120:
 1122              	.L42:
 1123              		.loc 1 302 7 is_stmt 0 discriminator 1 view .LVU337
 1124              	.LBE33:
 1125              		.loc 1 302 7 is_stmt 1 discriminator 3 view .LVU338
 1126              	.LBE32:
 1127              		.loc 1 302 7 discriminator 3 view .LVU339
 303:Drivers/STM32L0xx_HAL_Driver/Src/stm32l0xx_ll_usb.c **** 
 304:Drivers/STM32L0xx_HAL_Driver/Src/stm32l0xx_ll_usb.c ****       /* Configure DISABLE status for the Endpoint*/
 305:Drivers/STM32L0xx_HAL_Driver/Src/stm32l0xx_ll_usb.c ****       PCD_SET_EP_TX_STATUS(USBx, ep->num, USB_EP_TX_DIS);
 1128              		.loc 1 305 7 discriminator 3 view .LVU340
 1129              	.LBB34:
 1130              		.loc 1 305 7 discriminator 3 view .LVU341
 1131              		.loc 1 305 7 discriminator 3 view .LVU342
 1132 0028 0B78     		ldrb	r3, [r1]
 1133 002a 9B00     		lsls	r3, r3, #2
 1134 002c C018     		adds	r0, r0, r3
 1135              	.LVL121:
 1136              		.loc 1 305 7 is_stmt 0 discriminator 3 view .LVU343
 1137 002e 0388     		ldrh	r3, [r0]
 1138 0030 4B4A     		ldr	r2, .L50+8
 1139 0032 1A40     		ands	r2, r3
 1140              	.LVL122:
 1141              		.loc 1 305 7 is_stmt 1 discriminator 3 view .LVU344
 1142              		.loc 1 305 7 discriminator 3 view .LVU345
 1143              		.loc 1 305 7 discriminator 3 view .LVU346
 1144 0034 4B4B     		ldr	r3, .L50+12
 1145 0036 1343     		orrs	r3, r2
 1146 0038 9BB2     		uxth	r3, r3
 1147 003a 0380     		strh	r3, [r0]
 1148              	.LBE34:
 1149              		.loc 1 305 7 discriminator 3 view .LVU347
 1150              	.LVL123:
 1151              	.L43:
 306:Drivers/STM32L0xx_HAL_Driver/Src/stm32l0xx_ll_usb.c ****     }
ARM GAS  /tmp/ccSuEEYJ.s 			page 29


 307:Drivers/STM32L0xx_HAL_Driver/Src/stm32l0xx_ll_usb.c ****     else
 308:Drivers/STM32L0xx_HAL_Driver/Src/stm32l0xx_ll_usb.c ****     {
 309:Drivers/STM32L0xx_HAL_Driver/Src/stm32l0xx_ll_usb.c ****       PCD_CLEAR_RX_DTOG(USBx, ep->num);
 310:Drivers/STM32L0xx_HAL_Driver/Src/stm32l0xx_ll_usb.c **** 
 311:Drivers/STM32L0xx_HAL_Driver/Src/stm32l0xx_ll_usb.c ****       /* Configure DISABLE status for the Endpoint*/
 312:Drivers/STM32L0xx_HAL_Driver/Src/stm32l0xx_ll_usb.c ****       PCD_SET_EP_RX_STATUS(USBx, ep->num, USB_EP_RX_DIS);
 313:Drivers/STM32L0xx_HAL_Driver/Src/stm32l0xx_ll_usb.c ****     }
 314:Drivers/STM32L0xx_HAL_Driver/Src/stm32l0xx_ll_usb.c ****   }
 315:Drivers/STM32L0xx_HAL_Driver/Src/stm32l0xx_ll_usb.c ****   /*Double Buffer*/
 316:Drivers/STM32L0xx_HAL_Driver/Src/stm32l0xx_ll_usb.c ****   else
 317:Drivers/STM32L0xx_HAL_Driver/Src/stm32l0xx_ll_usb.c ****   {
 318:Drivers/STM32L0xx_HAL_Driver/Src/stm32l0xx_ll_usb.c ****     if (ep->is_in == 0U)
 319:Drivers/STM32L0xx_HAL_Driver/Src/stm32l0xx_ll_usb.c ****     {
 320:Drivers/STM32L0xx_HAL_Driver/Src/stm32l0xx_ll_usb.c ****       /* Clear the data toggle bits for the endpoint IN/OUT*/
 321:Drivers/STM32L0xx_HAL_Driver/Src/stm32l0xx_ll_usb.c ****       PCD_CLEAR_RX_DTOG(USBx, ep->num);
 322:Drivers/STM32L0xx_HAL_Driver/Src/stm32l0xx_ll_usb.c ****       PCD_CLEAR_TX_DTOG(USBx, ep->num);
 323:Drivers/STM32L0xx_HAL_Driver/Src/stm32l0xx_ll_usb.c **** 
 324:Drivers/STM32L0xx_HAL_Driver/Src/stm32l0xx_ll_usb.c ****       /* Reset value of the data toggle bits for the endpoint out*/
 325:Drivers/STM32L0xx_HAL_Driver/Src/stm32l0xx_ll_usb.c ****       PCD_TX_DTOG(USBx, ep->num);
 326:Drivers/STM32L0xx_HAL_Driver/Src/stm32l0xx_ll_usb.c **** 
 327:Drivers/STM32L0xx_HAL_Driver/Src/stm32l0xx_ll_usb.c ****       PCD_SET_EP_RX_STATUS(USBx, ep->num, USB_EP_RX_DIS);
 328:Drivers/STM32L0xx_HAL_Driver/Src/stm32l0xx_ll_usb.c ****       PCD_SET_EP_TX_STATUS(USBx, ep->num, USB_EP_TX_DIS);
 329:Drivers/STM32L0xx_HAL_Driver/Src/stm32l0xx_ll_usb.c ****     }
 330:Drivers/STM32L0xx_HAL_Driver/Src/stm32l0xx_ll_usb.c ****     else
 331:Drivers/STM32L0xx_HAL_Driver/Src/stm32l0xx_ll_usb.c ****     {
 332:Drivers/STM32L0xx_HAL_Driver/Src/stm32l0xx_ll_usb.c ****       /* Clear the data toggle bits for the endpoint IN/OUT*/
 333:Drivers/STM32L0xx_HAL_Driver/Src/stm32l0xx_ll_usb.c ****       PCD_CLEAR_RX_DTOG(USBx, ep->num);
 334:Drivers/STM32L0xx_HAL_Driver/Src/stm32l0xx_ll_usb.c ****       PCD_CLEAR_TX_DTOG(USBx, ep->num);
 335:Drivers/STM32L0xx_HAL_Driver/Src/stm32l0xx_ll_usb.c ****       PCD_RX_DTOG(USBx, ep->num);
 336:Drivers/STM32L0xx_HAL_Driver/Src/stm32l0xx_ll_usb.c **** 
 337:Drivers/STM32L0xx_HAL_Driver/Src/stm32l0xx_ll_usb.c ****       /* Configure DISABLE status for the Endpoint*/
 338:Drivers/STM32L0xx_HAL_Driver/Src/stm32l0xx_ll_usb.c ****       PCD_SET_EP_TX_STATUS(USBx, ep->num, USB_EP_TX_DIS);
 339:Drivers/STM32L0xx_HAL_Driver/Src/stm32l0xx_ll_usb.c ****       PCD_SET_EP_RX_STATUS(USBx, ep->num, USB_EP_RX_DIS);
 1152              		.loc 1 339 7 discriminator 7 view .LVU348
 340:Drivers/STM32L0xx_HAL_Driver/Src/stm32l0xx_ll_usb.c ****     }
 341:Drivers/STM32L0xx_HAL_Driver/Src/stm32l0xx_ll_usb.c ****   }
 342:Drivers/STM32L0xx_HAL_Driver/Src/stm32l0xx_ll_usb.c **** 
 343:Drivers/STM32L0xx_HAL_Driver/Src/stm32l0xx_ll_usb.c ****   return HAL_OK;
 1153              		.loc 1 343 3 discriminator 7 view .LVU349
 344:Drivers/STM32L0xx_HAL_Driver/Src/stm32l0xx_ll_usb.c **** }
 1154              		.loc 1 344 1 is_stmt 0 discriminator 7 view .LVU350
 1155 003c 0020     		movs	r0, #0
 1156              		@ sp needed
 1157 003e 10BD     		pop	{r4, pc}
 1158              	.LVL124:
 1159              	.L41:
 309:Drivers/STM32L0xx_HAL_Driver/Src/stm32l0xx_ll_usb.c **** 
 1160              		.loc 1 309 7 is_stmt 1 view .LVU351
 1161              	.LBB35:
 309:Drivers/STM32L0xx_HAL_Driver/Src/stm32l0xx_ll_usb.c **** 
 1162              		.loc 1 309 7 view .LVU352
 309:Drivers/STM32L0xx_HAL_Driver/Src/stm32l0xx_ll_usb.c **** 
 1163              		.loc 1 309 7 view .LVU353
 1164 0040 0B78     		ldrb	r3, [r1]
 1165 0042 9B00     		lsls	r3, r3, #2
 1166 0044 C318     		adds	r3, r0, r3
 1167 0046 1A88     		ldrh	r2, [r3]
ARM GAS  /tmp/ccSuEEYJ.s 			page 30


 1168              	.LVL125:
 309:Drivers/STM32L0xx_HAL_Driver/Src/stm32l0xx_ll_usb.c **** 
 1169              		.loc 1 309 7 view .LVU354
 1170 0048 5204     		lsls	r2, r2, #17
 1171 004a 06D5     		bpl	.L44
 1172              	.LVL126:
 309:Drivers/STM32L0xx_HAL_Driver/Src/stm32l0xx_ll_usb.c **** 
 1173              		.loc 1 309 7 discriminator 1 view .LVU355
 1174              	.LBB36:
 309:Drivers/STM32L0xx_HAL_Driver/Src/stm32l0xx_ll_usb.c **** 
 1175              		.loc 1 309 7 discriminator 1 view .LVU356
 309:Drivers/STM32L0xx_HAL_Driver/Src/stm32l0xx_ll_usb.c **** 
 1176              		.loc 1 309 7 discriminator 1 view .LVU357
 1177 004c 1A88     		ldrh	r2, [r3]
 1178 004e 424C     		ldr	r4, .L50
 1179 0050 1440     		ands	r4, r2
 1180              	.LVL127:
 309:Drivers/STM32L0xx_HAL_Driver/Src/stm32l0xx_ll_usb.c **** 
 1181              		.loc 1 309 7 discriminator 1 view .LVU358
 1182 0052 454A     		ldr	r2, .L50+16
 1183 0054 2243     		orrs	r2, r4
 1184 0056 92B2     		uxth	r2, r2
 1185 0058 1A80     		strh	r2, [r3]
 1186              	.LVL128:
 1187              	.L44:
 309:Drivers/STM32L0xx_HAL_Driver/Src/stm32l0xx_ll_usb.c **** 
 1188              		.loc 1 309 7 is_stmt 0 discriminator 1 view .LVU359
 1189              	.LBE36:
 309:Drivers/STM32L0xx_HAL_Driver/Src/stm32l0xx_ll_usb.c **** 
 1190              		.loc 1 309 7 is_stmt 1 discriminator 3 view .LVU360
 1191              	.LBE35:
 309:Drivers/STM32L0xx_HAL_Driver/Src/stm32l0xx_ll_usb.c **** 
 1192              		.loc 1 309 7 discriminator 3 view .LVU361
 312:Drivers/STM32L0xx_HAL_Driver/Src/stm32l0xx_ll_usb.c ****     }
 1193              		.loc 1 312 7 discriminator 3 view .LVU362
 1194              	.LBB37:
 312:Drivers/STM32L0xx_HAL_Driver/Src/stm32l0xx_ll_usb.c ****     }
 1195              		.loc 1 312 7 discriminator 3 view .LVU363
 312:Drivers/STM32L0xx_HAL_Driver/Src/stm32l0xx_ll_usb.c ****     }
 1196              		.loc 1 312 7 discriminator 3 view .LVU364
 1197 005a 0B78     		ldrb	r3, [r1]
 1198 005c 9B00     		lsls	r3, r3, #2
 1199 005e C018     		adds	r0, r0, r3
 1200              	.LVL129:
 312:Drivers/STM32L0xx_HAL_Driver/Src/stm32l0xx_ll_usb.c ****     }
 1201              		.loc 1 312 7 is_stmt 0 discriminator 3 view .LVU365
 1202 0060 0388     		ldrh	r3, [r0]
 1203 0062 424A     		ldr	r2, .L50+20
 1204 0064 1A40     		ands	r2, r3
 1205              	.LVL130:
 312:Drivers/STM32L0xx_HAL_Driver/Src/stm32l0xx_ll_usb.c ****     }
 1206              		.loc 1 312 7 is_stmt 1 discriminator 3 view .LVU366
 312:Drivers/STM32L0xx_HAL_Driver/Src/stm32l0xx_ll_usb.c ****     }
 1207              		.loc 1 312 7 discriminator 3 view .LVU367
 312:Drivers/STM32L0xx_HAL_Driver/Src/stm32l0xx_ll_usb.c ****     }
 1208              		.loc 1 312 7 discriminator 3 view .LVU368
 1209 0066 3F4B     		ldr	r3, .L50+12
ARM GAS  /tmp/ccSuEEYJ.s 			page 31


 1210 0068 1343     		orrs	r3, r2
 1211 006a 9BB2     		uxth	r3, r3
 1212 006c 0380     		strh	r3, [r0]
 1213 006e E5E7     		b	.L43
 1214              	.LVL131:
 1215              	.L40:
 312:Drivers/STM32L0xx_HAL_Driver/Src/stm32l0xx_ll_usb.c ****     }
 1216              		.loc 1 312 7 is_stmt 0 discriminator 3 view .LVU369
 1217              	.LBE37:
 318:Drivers/STM32L0xx_HAL_Driver/Src/stm32l0xx_ll_usb.c ****     {
 1218              		.loc 1 318 5 is_stmt 1 view .LVU370
 318:Drivers/STM32L0xx_HAL_Driver/Src/stm32l0xx_ll_usb.c ****     {
 1219              		.loc 1 318 11 is_stmt 0 view .LVU371
 1220 0070 4B78     		ldrb	r3, [r1, #1]
 318:Drivers/STM32L0xx_HAL_Driver/Src/stm32l0xx_ll_usb.c ****     {
 1221              		.loc 1 318 8 view .LVU372
 1222 0072 002B     		cmp	r3, #0
 1223 0074 37D1     		bne	.L45
 321:Drivers/STM32L0xx_HAL_Driver/Src/stm32l0xx_ll_usb.c ****       PCD_CLEAR_TX_DTOG(USBx, ep->num);
 1224              		.loc 1 321 7 is_stmt 1 view .LVU373
 1225              	.LBB38:
 321:Drivers/STM32L0xx_HAL_Driver/Src/stm32l0xx_ll_usb.c ****       PCD_CLEAR_TX_DTOG(USBx, ep->num);
 1226              		.loc 1 321 7 view .LVU374
 321:Drivers/STM32L0xx_HAL_Driver/Src/stm32l0xx_ll_usb.c ****       PCD_CLEAR_TX_DTOG(USBx, ep->num);
 1227              		.loc 1 321 7 view .LVU375
 1228 0076 0B78     		ldrb	r3, [r1]
 1229 0078 9B00     		lsls	r3, r3, #2
 1230 007a C318     		adds	r3, r0, r3
 1231 007c 1A88     		ldrh	r2, [r3]
 1232              	.LVL132:
 321:Drivers/STM32L0xx_HAL_Driver/Src/stm32l0xx_ll_usb.c ****       PCD_CLEAR_TX_DTOG(USBx, ep->num);
 1233              		.loc 1 321 7 view .LVU376
 1234 007e 5204     		lsls	r2, r2, #17
 1235 0080 06D5     		bpl	.L46
 1236              	.LVL133:
 321:Drivers/STM32L0xx_HAL_Driver/Src/stm32l0xx_ll_usb.c ****       PCD_CLEAR_TX_DTOG(USBx, ep->num);
 1237              		.loc 1 321 7 discriminator 1 view .LVU377
 1238              	.LBB39:
 321:Drivers/STM32L0xx_HAL_Driver/Src/stm32l0xx_ll_usb.c ****       PCD_CLEAR_TX_DTOG(USBx, ep->num);
 1239              		.loc 1 321 7 discriminator 1 view .LVU378
 321:Drivers/STM32L0xx_HAL_Driver/Src/stm32l0xx_ll_usb.c ****       PCD_CLEAR_TX_DTOG(USBx, ep->num);
 1240              		.loc 1 321 7 discriminator 1 view .LVU379
 1241 0082 1A88     		ldrh	r2, [r3]
 1242 0084 344C     		ldr	r4, .L50
 1243 0086 1440     		ands	r4, r2
 1244              	.LVL134:
 321:Drivers/STM32L0xx_HAL_Driver/Src/stm32l0xx_ll_usb.c ****       PCD_CLEAR_TX_DTOG(USBx, ep->num);
 1245              		.loc 1 321 7 discriminator 1 view .LVU380
 1246 0088 374A     		ldr	r2, .L50+16
 1247 008a 2243     		orrs	r2, r4
 1248 008c 92B2     		uxth	r2, r2
 1249 008e 1A80     		strh	r2, [r3]
 1250              	.LVL135:
 1251              	.L46:
 321:Drivers/STM32L0xx_HAL_Driver/Src/stm32l0xx_ll_usb.c ****       PCD_CLEAR_TX_DTOG(USBx, ep->num);
 1252              		.loc 1 321 7 is_stmt 0 discriminator 1 view .LVU381
 1253              	.LBE39:
ARM GAS  /tmp/ccSuEEYJ.s 			page 32


 321:Drivers/STM32L0xx_HAL_Driver/Src/stm32l0xx_ll_usb.c ****       PCD_CLEAR_TX_DTOG(USBx, ep->num);
 1254              		.loc 1 321 7 is_stmt 1 discriminator 3 view .LVU382
 1255              	.LBE38:
 321:Drivers/STM32L0xx_HAL_Driver/Src/stm32l0xx_ll_usb.c ****       PCD_CLEAR_TX_DTOG(USBx, ep->num);
 1256              		.loc 1 321 7 discriminator 3 view .LVU383
 322:Drivers/STM32L0xx_HAL_Driver/Src/stm32l0xx_ll_usb.c **** 
 1257              		.loc 1 322 7 discriminator 3 view .LVU384
 1258              	.LBB40:
 322:Drivers/STM32L0xx_HAL_Driver/Src/stm32l0xx_ll_usb.c **** 
 1259              		.loc 1 322 7 discriminator 3 view .LVU385
 322:Drivers/STM32L0xx_HAL_Driver/Src/stm32l0xx_ll_usb.c **** 
 1260              		.loc 1 322 7 discriminator 3 view .LVU386
 1261 0090 0B78     		ldrb	r3, [r1]
 1262 0092 9B00     		lsls	r3, r3, #2
 1263 0094 C318     		adds	r3, r0, r3
 1264 0096 1A88     		ldrh	r2, [r3]
 1265              	.LVL136:
 322:Drivers/STM32L0xx_HAL_Driver/Src/stm32l0xx_ll_usb.c **** 
 1266              		.loc 1 322 7 discriminator 3 view .LVU387
 1267 0098 5206     		lsls	r2, r2, #25
 1268 009a 06D5     		bpl	.L47
 1269              	.LVL137:
 322:Drivers/STM32L0xx_HAL_Driver/Src/stm32l0xx_ll_usb.c **** 
 1270              		.loc 1 322 7 discriminator 1 view .LVU388
 1271              	.LBB41:
 322:Drivers/STM32L0xx_HAL_Driver/Src/stm32l0xx_ll_usb.c **** 
 1272              		.loc 1 322 7 discriminator 1 view .LVU389
 322:Drivers/STM32L0xx_HAL_Driver/Src/stm32l0xx_ll_usb.c **** 
 1273              		.loc 1 322 7 discriminator 1 view .LVU390
 1274 009c 1A88     		ldrh	r2, [r3]
 1275 009e 2E4C     		ldr	r4, .L50
 1276 00a0 1440     		ands	r4, r2
 1277              	.LVL138:
 322:Drivers/STM32L0xx_HAL_Driver/Src/stm32l0xx_ll_usb.c **** 
 1278              		.loc 1 322 7 discriminator 1 view .LVU391
 1279 00a2 2E4A     		ldr	r2, .L50+4
 1280 00a4 2243     		orrs	r2, r4
 1281 00a6 92B2     		uxth	r2, r2
 1282 00a8 1A80     		strh	r2, [r3]
 1283              	.LVL139:
 1284              	.L47:
 322:Drivers/STM32L0xx_HAL_Driver/Src/stm32l0xx_ll_usb.c **** 
 1285              		.loc 1 322 7 is_stmt 0 discriminator 1 view .LVU392
 1286              	.LBE41:
 322:Drivers/STM32L0xx_HAL_Driver/Src/stm32l0xx_ll_usb.c **** 
 1287              		.loc 1 322 7 is_stmt 1 discriminator 3 view .LVU393
 1288              	.LBE40:
 322:Drivers/STM32L0xx_HAL_Driver/Src/stm32l0xx_ll_usb.c **** 
 1289              		.loc 1 322 7 discriminator 3 view .LVU394
 325:Drivers/STM32L0xx_HAL_Driver/Src/stm32l0xx_ll_usb.c **** 
 1290              		.loc 1 325 7 discriminator 3 view .LVU395
 1291              	.LBB42:
 325:Drivers/STM32L0xx_HAL_Driver/Src/stm32l0xx_ll_usb.c **** 
 1292              		.loc 1 325 7 discriminator 3 view .LVU396
 325:Drivers/STM32L0xx_HAL_Driver/Src/stm32l0xx_ll_usb.c **** 
 1293              		.loc 1 325 7 discriminator 3 view .LVU397
 1294 00aa 0B78     		ldrb	r3, [r1]
ARM GAS  /tmp/ccSuEEYJ.s 			page 33


 1295 00ac 9B00     		lsls	r3, r3, #2
 1296 00ae C318     		adds	r3, r0, r3
 1297 00b0 1A88     		ldrh	r2, [r3]
 1298 00b2 294C     		ldr	r4, .L50
 1299 00b4 1440     		ands	r4, r2
 1300              	.LVL140:
 325:Drivers/STM32L0xx_HAL_Driver/Src/stm32l0xx_ll_usb.c **** 
 1301              		.loc 1 325 7 discriminator 3 view .LVU398
 1302 00b6 294A     		ldr	r2, .L50+4
 1303 00b8 2243     		orrs	r2, r4
 1304 00ba 92B2     		uxth	r2, r2
 1305 00bc 1A80     		strh	r2, [r3]
 1306              	.LBE42:
 325:Drivers/STM32L0xx_HAL_Driver/Src/stm32l0xx_ll_usb.c **** 
 1307              		.loc 1 325 7 discriminator 3 view .LVU399
 327:Drivers/STM32L0xx_HAL_Driver/Src/stm32l0xx_ll_usb.c ****       PCD_SET_EP_TX_STATUS(USBx, ep->num, USB_EP_TX_DIS);
 1308              		.loc 1 327 7 discriminator 3 view .LVU400
 1309              	.LBB43:
 327:Drivers/STM32L0xx_HAL_Driver/Src/stm32l0xx_ll_usb.c ****       PCD_SET_EP_TX_STATUS(USBx, ep->num, USB_EP_TX_DIS);
 1310              		.loc 1 327 7 discriminator 3 view .LVU401
 327:Drivers/STM32L0xx_HAL_Driver/Src/stm32l0xx_ll_usb.c ****       PCD_SET_EP_TX_STATUS(USBx, ep->num, USB_EP_TX_DIS);
 1311              		.loc 1 327 7 discriminator 3 view .LVU402
 1312 00be 0C78     		ldrb	r4, [r1]
 1313              	.LVL141:
 327:Drivers/STM32L0xx_HAL_Driver/Src/stm32l0xx_ll_usb.c ****       PCD_SET_EP_TX_STATUS(USBx, ep->num, USB_EP_TX_DIS);
 1314              		.loc 1 327 7 is_stmt 0 discriminator 3 view .LVU403
 1315 00c0 A400     		lsls	r4, r4, #2
 1316 00c2 0419     		adds	r4, r0, r4
 1317 00c4 2388     		ldrh	r3, [r4]
 1318 00c6 294A     		ldr	r2, .L50+20
 1319 00c8 1340     		ands	r3, r2
 1320              	.LVL142:
 327:Drivers/STM32L0xx_HAL_Driver/Src/stm32l0xx_ll_usb.c ****       PCD_SET_EP_TX_STATUS(USBx, ep->num, USB_EP_TX_DIS);
 1321              		.loc 1 327 7 is_stmt 1 discriminator 3 view .LVU404
 327:Drivers/STM32L0xx_HAL_Driver/Src/stm32l0xx_ll_usb.c ****       PCD_SET_EP_TX_STATUS(USBx, ep->num, USB_EP_TX_DIS);
 1322              		.loc 1 327 7 discriminator 3 view .LVU405
 327:Drivers/STM32L0xx_HAL_Driver/Src/stm32l0xx_ll_usb.c ****       PCD_SET_EP_TX_STATUS(USBx, ep->num, USB_EP_TX_DIS);
 1323              		.loc 1 327 7 discriminator 3 view .LVU406
 1324 00ca 264A     		ldr	r2, .L50+12
 1325 00cc 1343     		orrs	r3, r2
 1326              	.LVL143:
 327:Drivers/STM32L0xx_HAL_Driver/Src/stm32l0xx_ll_usb.c ****       PCD_SET_EP_TX_STATUS(USBx, ep->num, USB_EP_TX_DIS);
 1327              		.loc 1 327 7 is_stmt 0 discriminator 3 view .LVU407
 1328 00ce 9BB2     		uxth	r3, r3
 1329 00d0 2380     		strh	r3, [r4]
 1330              	.LBE43:
 327:Drivers/STM32L0xx_HAL_Driver/Src/stm32l0xx_ll_usb.c ****       PCD_SET_EP_TX_STATUS(USBx, ep->num, USB_EP_TX_DIS);
 1331              		.loc 1 327 7 is_stmt 1 discriminator 3 view .LVU408
 328:Drivers/STM32L0xx_HAL_Driver/Src/stm32l0xx_ll_usb.c ****     }
 1332              		.loc 1 328 7 discriminator 3 view .LVU409
 1333              	.LBB44:
 328:Drivers/STM32L0xx_HAL_Driver/Src/stm32l0xx_ll_usb.c ****     }
 1334              		.loc 1 328 7 discriminator 3 view .LVU410
 328:Drivers/STM32L0xx_HAL_Driver/Src/stm32l0xx_ll_usb.c ****     }
 1335              		.loc 1 328 7 discriminator 3 view .LVU411
 1336 00d2 0B78     		ldrb	r3, [r1]
 1337 00d4 9B00     		lsls	r3, r3, #2
ARM GAS  /tmp/ccSuEEYJ.s 			page 34


 1338 00d6 C018     		adds	r0, r0, r3
 1339              	.LVL144:
 328:Drivers/STM32L0xx_HAL_Driver/Src/stm32l0xx_ll_usb.c ****     }
 1340              		.loc 1 328 7 is_stmt 0 discriminator 3 view .LVU412
 1341 00d8 0388     		ldrh	r3, [r0]
 1342 00da 2149     		ldr	r1, .L50+8
 1343              	.LVL145:
 328:Drivers/STM32L0xx_HAL_Driver/Src/stm32l0xx_ll_usb.c ****     }
 1344              		.loc 1 328 7 discriminator 3 view .LVU413
 1345 00dc 0B40     		ands	r3, r1
 1346              	.LVL146:
 328:Drivers/STM32L0xx_HAL_Driver/Src/stm32l0xx_ll_usb.c ****     }
 1347              		.loc 1 328 7 is_stmt 1 discriminator 3 view .LVU414
 328:Drivers/STM32L0xx_HAL_Driver/Src/stm32l0xx_ll_usb.c ****     }
 1348              		.loc 1 328 7 discriminator 3 view .LVU415
 328:Drivers/STM32L0xx_HAL_Driver/Src/stm32l0xx_ll_usb.c ****     }
 1349              		.loc 1 328 7 discriminator 3 view .LVU416
 1350 00de 1A43     		orrs	r2, r3
 1351 00e0 92B2     		uxth	r2, r2
 1352 00e2 0280     		strh	r2, [r0]
 1353              	.LBE44:
 328:Drivers/STM32L0xx_HAL_Driver/Src/stm32l0xx_ll_usb.c ****     }
 1354              		.loc 1 328 7 discriminator 3 view .LVU417
 1355 00e4 AAE7     		b	.L43
 1356              	.LVL147:
 1357              	.L45:
 333:Drivers/STM32L0xx_HAL_Driver/Src/stm32l0xx_ll_usb.c ****       PCD_CLEAR_TX_DTOG(USBx, ep->num);
 1358              		.loc 1 333 7 view .LVU418
 1359              	.LBB45:
 333:Drivers/STM32L0xx_HAL_Driver/Src/stm32l0xx_ll_usb.c ****       PCD_CLEAR_TX_DTOG(USBx, ep->num);
 1360              		.loc 1 333 7 view .LVU419
 333:Drivers/STM32L0xx_HAL_Driver/Src/stm32l0xx_ll_usb.c ****       PCD_CLEAR_TX_DTOG(USBx, ep->num);
 1361              		.loc 1 333 7 view .LVU420
 1362 00e6 0B78     		ldrb	r3, [r1]
 1363 00e8 9B00     		lsls	r3, r3, #2
 1364 00ea C318     		adds	r3, r0, r3
 1365 00ec 1A88     		ldrh	r2, [r3]
 1366              	.LVL148:
 333:Drivers/STM32L0xx_HAL_Driver/Src/stm32l0xx_ll_usb.c ****       PCD_CLEAR_TX_DTOG(USBx, ep->num);
 1367              		.loc 1 333 7 view .LVU421
 1368 00ee 5204     		lsls	r2, r2, #17
 1369 00f0 06D5     		bpl	.L48
 1370              	.LVL149:
 333:Drivers/STM32L0xx_HAL_Driver/Src/stm32l0xx_ll_usb.c ****       PCD_CLEAR_TX_DTOG(USBx, ep->num);
 1371              		.loc 1 333 7 discriminator 1 view .LVU422
 1372              	.LBB46:
 333:Drivers/STM32L0xx_HAL_Driver/Src/stm32l0xx_ll_usb.c ****       PCD_CLEAR_TX_DTOG(USBx, ep->num);
 1373              		.loc 1 333 7 discriminator 1 view .LVU423
 333:Drivers/STM32L0xx_HAL_Driver/Src/stm32l0xx_ll_usb.c ****       PCD_CLEAR_TX_DTOG(USBx, ep->num);
 1374              		.loc 1 333 7 discriminator 1 view .LVU424
 1375 00f2 1A88     		ldrh	r2, [r3]
 1376 00f4 184C     		ldr	r4, .L50
 1377 00f6 1440     		ands	r4, r2
 1378              	.LVL150:
 333:Drivers/STM32L0xx_HAL_Driver/Src/stm32l0xx_ll_usb.c ****       PCD_CLEAR_TX_DTOG(USBx, ep->num);
 1379              		.loc 1 333 7 discriminator 1 view .LVU425
 1380 00f8 1B4A     		ldr	r2, .L50+16
ARM GAS  /tmp/ccSuEEYJ.s 			page 35


 1381 00fa 2243     		orrs	r2, r4
 1382 00fc 92B2     		uxth	r2, r2
 1383 00fe 1A80     		strh	r2, [r3]
 1384              	.LVL151:
 1385              	.L48:
 333:Drivers/STM32L0xx_HAL_Driver/Src/stm32l0xx_ll_usb.c ****       PCD_CLEAR_TX_DTOG(USBx, ep->num);
 1386              		.loc 1 333 7 is_stmt 0 discriminator 1 view .LVU426
 1387              	.LBE46:
 333:Drivers/STM32L0xx_HAL_Driver/Src/stm32l0xx_ll_usb.c ****       PCD_CLEAR_TX_DTOG(USBx, ep->num);
 1388              		.loc 1 333 7 is_stmt 1 discriminator 3 view .LVU427
 1389              	.LBE45:
 333:Drivers/STM32L0xx_HAL_Driver/Src/stm32l0xx_ll_usb.c ****       PCD_CLEAR_TX_DTOG(USBx, ep->num);
 1390              		.loc 1 333 7 discriminator 3 view .LVU428
 334:Drivers/STM32L0xx_HAL_Driver/Src/stm32l0xx_ll_usb.c ****       PCD_RX_DTOG(USBx, ep->num);
 1391              		.loc 1 334 7 discriminator 3 view .LVU429
 1392              	.LBB47:
 334:Drivers/STM32L0xx_HAL_Driver/Src/stm32l0xx_ll_usb.c ****       PCD_RX_DTOG(USBx, ep->num);
 1393              		.loc 1 334 7 discriminator 3 view .LVU430
 334:Drivers/STM32L0xx_HAL_Driver/Src/stm32l0xx_ll_usb.c ****       PCD_RX_DTOG(USBx, ep->num);
 1394              		.loc 1 334 7 discriminator 3 view .LVU431
 1395 0100 0B78     		ldrb	r3, [r1]
 1396 0102 9B00     		lsls	r3, r3, #2
 1397 0104 C318     		adds	r3, r0, r3
 1398 0106 1A88     		ldrh	r2, [r3]
 1399              	.LVL152:
 334:Drivers/STM32L0xx_HAL_Driver/Src/stm32l0xx_ll_usb.c ****       PCD_RX_DTOG(USBx, ep->num);
 1400              		.loc 1 334 7 discriminator 3 view .LVU432
 1401 0108 5206     		lsls	r2, r2, #25
 1402 010a 06D5     		bpl	.L49
 1403              	.LVL153:
 334:Drivers/STM32L0xx_HAL_Driver/Src/stm32l0xx_ll_usb.c ****       PCD_RX_DTOG(USBx, ep->num);
 1404              		.loc 1 334 7 discriminator 1 view .LVU433
 1405              	.LBB48:
 334:Drivers/STM32L0xx_HAL_Driver/Src/stm32l0xx_ll_usb.c ****       PCD_RX_DTOG(USBx, ep->num);
 1406              		.loc 1 334 7 discriminator 1 view .LVU434
 334:Drivers/STM32L0xx_HAL_Driver/Src/stm32l0xx_ll_usb.c ****       PCD_RX_DTOG(USBx, ep->num);
 1407              		.loc 1 334 7 discriminator 1 view .LVU435
 1408 010c 1A88     		ldrh	r2, [r3]
 1409 010e 124C     		ldr	r4, .L50
 1410 0110 1440     		ands	r4, r2
 1411              	.LVL154:
 334:Drivers/STM32L0xx_HAL_Driver/Src/stm32l0xx_ll_usb.c ****       PCD_RX_DTOG(USBx, ep->num);
 1412              		.loc 1 334 7 discriminator 1 view .LVU436
 1413 0112 124A     		ldr	r2, .L50+4
 1414 0114 2243     		orrs	r2, r4
 1415 0116 92B2     		uxth	r2, r2
 1416 0118 1A80     		strh	r2, [r3]
 1417              	.LVL155:
 1418              	.L49:
 334:Drivers/STM32L0xx_HAL_Driver/Src/stm32l0xx_ll_usb.c ****       PCD_RX_DTOG(USBx, ep->num);
 1419              		.loc 1 334 7 is_stmt 0 discriminator 1 view .LVU437
 1420              	.LBE48:
 334:Drivers/STM32L0xx_HAL_Driver/Src/stm32l0xx_ll_usb.c ****       PCD_RX_DTOG(USBx, ep->num);
 1421              		.loc 1 334 7 is_stmt 1 discriminator 3 view .LVU438
 1422              	.LBE47:
 334:Drivers/STM32L0xx_HAL_Driver/Src/stm32l0xx_ll_usb.c ****       PCD_RX_DTOG(USBx, ep->num);
 1423              		.loc 1 334 7 discriminator 3 view .LVU439
ARM GAS  /tmp/ccSuEEYJ.s 			page 36


 335:Drivers/STM32L0xx_HAL_Driver/Src/stm32l0xx_ll_usb.c **** 
 1424              		.loc 1 335 7 discriminator 3 view .LVU440
 1425              	.LBB49:
 335:Drivers/STM32L0xx_HAL_Driver/Src/stm32l0xx_ll_usb.c **** 
 1426              		.loc 1 335 7 discriminator 3 view .LVU441
 335:Drivers/STM32L0xx_HAL_Driver/Src/stm32l0xx_ll_usb.c **** 
 1427              		.loc 1 335 7 discriminator 3 view .LVU442
 1428 011a 0B78     		ldrb	r3, [r1]
 1429 011c 9B00     		lsls	r3, r3, #2
 1430 011e C318     		adds	r3, r0, r3
 1431 0120 1A88     		ldrh	r2, [r3]
 1432 0122 0D4C     		ldr	r4, .L50
 1433 0124 1440     		ands	r4, r2
 1434              	.LVL156:
 335:Drivers/STM32L0xx_HAL_Driver/Src/stm32l0xx_ll_usb.c **** 
 1435              		.loc 1 335 7 discriminator 3 view .LVU443
 1436 0126 104A     		ldr	r2, .L50+16
 1437 0128 2243     		orrs	r2, r4
 1438 012a 92B2     		uxth	r2, r2
 1439 012c 1A80     		strh	r2, [r3]
 1440              	.LBE49:
 335:Drivers/STM32L0xx_HAL_Driver/Src/stm32l0xx_ll_usb.c **** 
 1441              		.loc 1 335 7 discriminator 3 view .LVU444
 338:Drivers/STM32L0xx_HAL_Driver/Src/stm32l0xx_ll_usb.c ****       PCD_SET_EP_RX_STATUS(USBx, ep->num, USB_EP_RX_DIS);
 1442              		.loc 1 338 7 discriminator 3 view .LVU445
 1443              	.LBB50:
 338:Drivers/STM32L0xx_HAL_Driver/Src/stm32l0xx_ll_usb.c ****       PCD_SET_EP_RX_STATUS(USBx, ep->num, USB_EP_RX_DIS);
 1444              		.loc 1 338 7 discriminator 3 view .LVU446
 338:Drivers/STM32L0xx_HAL_Driver/Src/stm32l0xx_ll_usb.c ****       PCD_SET_EP_RX_STATUS(USBx, ep->num, USB_EP_RX_DIS);
 1445              		.loc 1 338 7 discriminator 3 view .LVU447
 1446 012e 0C78     		ldrb	r4, [r1]
 1447              	.LVL157:
 338:Drivers/STM32L0xx_HAL_Driver/Src/stm32l0xx_ll_usb.c ****       PCD_SET_EP_RX_STATUS(USBx, ep->num, USB_EP_RX_DIS);
 1448              		.loc 1 338 7 is_stmt 0 discriminator 3 view .LVU448
 1449 0130 A400     		lsls	r4, r4, #2
 1450 0132 0419     		adds	r4, r0, r4
 1451 0134 2388     		ldrh	r3, [r4]
 1452 0136 0A4A     		ldr	r2, .L50+8
 1453 0138 1340     		ands	r3, r2
 1454              	.LVL158:
 338:Drivers/STM32L0xx_HAL_Driver/Src/stm32l0xx_ll_usb.c ****       PCD_SET_EP_RX_STATUS(USBx, ep->num, USB_EP_RX_DIS);
 1455              		.loc 1 338 7 is_stmt 1 discriminator 3 view .LVU449
 338:Drivers/STM32L0xx_HAL_Driver/Src/stm32l0xx_ll_usb.c ****       PCD_SET_EP_RX_STATUS(USBx, ep->num, USB_EP_RX_DIS);
 1456              		.loc 1 338 7 discriminator 3 view .LVU450
 338:Drivers/STM32L0xx_HAL_Driver/Src/stm32l0xx_ll_usb.c ****       PCD_SET_EP_RX_STATUS(USBx, ep->num, USB_EP_RX_DIS);
 1457              		.loc 1 338 7 discriminator 3 view .LVU451
 1458 013a 0A4A     		ldr	r2, .L50+12
 1459 013c 1343     		orrs	r3, r2
 1460              	.LVL159:
 338:Drivers/STM32L0xx_HAL_Driver/Src/stm32l0xx_ll_usb.c ****       PCD_SET_EP_RX_STATUS(USBx, ep->num, USB_EP_RX_DIS);
 1461              		.loc 1 338 7 is_stmt 0 discriminator 3 view .LVU452
 1462 013e 9BB2     		uxth	r3, r3
 1463 0140 2380     		strh	r3, [r4]
 1464              	.LBE50:
 338:Drivers/STM32L0xx_HAL_Driver/Src/stm32l0xx_ll_usb.c ****       PCD_SET_EP_RX_STATUS(USBx, ep->num, USB_EP_RX_DIS);
 1465              		.loc 1 338 7 is_stmt 1 discriminator 3 view .LVU453
 339:Drivers/STM32L0xx_HAL_Driver/Src/stm32l0xx_ll_usb.c ****     }
ARM GAS  /tmp/ccSuEEYJ.s 			page 37


 1466              		.loc 1 339 7 discriminator 3 view .LVU454
 1467              	.LBB51:
 339:Drivers/STM32L0xx_HAL_Driver/Src/stm32l0xx_ll_usb.c ****     }
 1468              		.loc 1 339 7 discriminator 3 view .LVU455
 339:Drivers/STM32L0xx_HAL_Driver/Src/stm32l0xx_ll_usb.c ****     }
 1469              		.loc 1 339 7 discriminator 3 view .LVU456
 1470 0142 0B78     		ldrb	r3, [r1]
 1471 0144 9B00     		lsls	r3, r3, #2
 1472 0146 C018     		adds	r0, r0, r3
 1473              	.LVL160:
 339:Drivers/STM32L0xx_HAL_Driver/Src/stm32l0xx_ll_usb.c ****     }
 1474              		.loc 1 339 7 is_stmt 0 discriminator 3 view .LVU457
 1475 0148 0388     		ldrh	r3, [r0]
 1476 014a 0849     		ldr	r1, .L50+20
 1477              	.LVL161:
 339:Drivers/STM32L0xx_HAL_Driver/Src/stm32l0xx_ll_usb.c ****     }
 1478              		.loc 1 339 7 discriminator 3 view .LVU458
 1479 014c 0B40     		ands	r3, r1
 1480              	.LVL162:
 339:Drivers/STM32L0xx_HAL_Driver/Src/stm32l0xx_ll_usb.c ****     }
 1481              		.loc 1 339 7 is_stmt 1 discriminator 3 view .LVU459
 339:Drivers/STM32L0xx_HAL_Driver/Src/stm32l0xx_ll_usb.c ****     }
 1482              		.loc 1 339 7 discriminator 3 view .LVU460
 339:Drivers/STM32L0xx_HAL_Driver/Src/stm32l0xx_ll_usb.c ****     }
 1483              		.loc 1 339 7 discriminator 3 view .LVU461
 1484 014e 1A43     		orrs	r2, r3
 1485 0150 92B2     		uxth	r2, r2
 1486 0152 0280     		strh	r2, [r0]
 1487 0154 72E7     		b	.L43
 1488              	.L51:
 1489 0156 C046     		.align	2
 1490              	.L50:
 1491 0158 8F8FFFFF 		.word	-28785
 1492 015c C080FFFF 		.word	-32576
 1493 0160 BF8FFFFF 		.word	-28737
 1494 0164 8080FFFF 		.word	-32640
 1495 0168 80C0FFFF 		.word	-16256
 1496 016c 8FBFFFFF 		.word	-16497
 1497              	.LBE51:
 1498              		.cfi_endproc
 1499              	.LFE40:
 1501              		.section	.text.USB_EPSetStall,"ax",%progbits
 1502              		.align	1
 1503              		.global	USB_EPSetStall
 1504              		.syntax unified
 1505              		.code	16
 1506              		.thumb_func
 1508              	USB_EPSetStall:
 1509              	.LVL163:
 1510              	.LFB42:
 345:Drivers/STM32L0xx_HAL_Driver/Src/stm32l0xx_ll_usb.c **** 
 346:Drivers/STM32L0xx_HAL_Driver/Src/stm32l0xx_ll_usb.c **** /**
 347:Drivers/STM32L0xx_HAL_Driver/Src/stm32l0xx_ll_usb.c ****   * @brief  USB_EPStartXfer setup and starts a transfer over an EP
 348:Drivers/STM32L0xx_HAL_Driver/Src/stm32l0xx_ll_usb.c ****   * @param  USBx Selected device
 349:Drivers/STM32L0xx_HAL_Driver/Src/stm32l0xx_ll_usb.c ****   * @param  ep pointer to endpoint structure
 350:Drivers/STM32L0xx_HAL_Driver/Src/stm32l0xx_ll_usb.c ****   * @retval HAL status
 351:Drivers/STM32L0xx_HAL_Driver/Src/stm32l0xx_ll_usb.c ****   */
ARM GAS  /tmp/ccSuEEYJ.s 			page 38


 352:Drivers/STM32L0xx_HAL_Driver/Src/stm32l0xx_ll_usb.c **** HAL_StatusTypeDef USB_EPStartXfer(USB_TypeDef *USBx, USB_EPTypeDef *ep)
 353:Drivers/STM32L0xx_HAL_Driver/Src/stm32l0xx_ll_usb.c **** {
 354:Drivers/STM32L0xx_HAL_Driver/Src/stm32l0xx_ll_usb.c ****   uint32_t len;
 355:Drivers/STM32L0xx_HAL_Driver/Src/stm32l0xx_ll_usb.c ****   uint16_t pmabuffer;
 356:Drivers/STM32L0xx_HAL_Driver/Src/stm32l0xx_ll_usb.c ****   uint16_t wEPVal;
 357:Drivers/STM32L0xx_HAL_Driver/Src/stm32l0xx_ll_usb.c **** 
 358:Drivers/STM32L0xx_HAL_Driver/Src/stm32l0xx_ll_usb.c ****   /* IN endpoint */
 359:Drivers/STM32L0xx_HAL_Driver/Src/stm32l0xx_ll_usb.c ****   if (ep->is_in == 1U)
 360:Drivers/STM32L0xx_HAL_Driver/Src/stm32l0xx_ll_usb.c ****   {
 361:Drivers/STM32L0xx_HAL_Driver/Src/stm32l0xx_ll_usb.c ****     /*Multi packet transfer*/
 362:Drivers/STM32L0xx_HAL_Driver/Src/stm32l0xx_ll_usb.c ****     if (ep->xfer_len > ep->maxpacket)
 363:Drivers/STM32L0xx_HAL_Driver/Src/stm32l0xx_ll_usb.c ****     {
 364:Drivers/STM32L0xx_HAL_Driver/Src/stm32l0xx_ll_usb.c ****       len = ep->maxpacket;
 365:Drivers/STM32L0xx_HAL_Driver/Src/stm32l0xx_ll_usb.c ****     }
 366:Drivers/STM32L0xx_HAL_Driver/Src/stm32l0xx_ll_usb.c ****     else
 367:Drivers/STM32L0xx_HAL_Driver/Src/stm32l0xx_ll_usb.c ****     {
 368:Drivers/STM32L0xx_HAL_Driver/Src/stm32l0xx_ll_usb.c ****       len = ep->xfer_len;
 369:Drivers/STM32L0xx_HAL_Driver/Src/stm32l0xx_ll_usb.c ****     }
 370:Drivers/STM32L0xx_HAL_Driver/Src/stm32l0xx_ll_usb.c **** 
 371:Drivers/STM32L0xx_HAL_Driver/Src/stm32l0xx_ll_usb.c ****     /* configure and validate Tx endpoint */
 372:Drivers/STM32L0xx_HAL_Driver/Src/stm32l0xx_ll_usb.c ****     if (ep->doublebuffer == 0U)
 373:Drivers/STM32L0xx_HAL_Driver/Src/stm32l0xx_ll_usb.c ****     {
 374:Drivers/STM32L0xx_HAL_Driver/Src/stm32l0xx_ll_usb.c ****       USB_WritePMA(USBx, ep->xfer_buff, ep->pmaadress, (uint16_t)len);
 375:Drivers/STM32L0xx_HAL_Driver/Src/stm32l0xx_ll_usb.c ****       PCD_SET_EP_TX_CNT(USBx, ep->num, len);
 376:Drivers/STM32L0xx_HAL_Driver/Src/stm32l0xx_ll_usb.c ****     }
 377:Drivers/STM32L0xx_HAL_Driver/Src/stm32l0xx_ll_usb.c ****     else
 378:Drivers/STM32L0xx_HAL_Driver/Src/stm32l0xx_ll_usb.c ****     {
 379:Drivers/STM32L0xx_HAL_Driver/Src/stm32l0xx_ll_usb.c ****       /* double buffer bulk management */
 380:Drivers/STM32L0xx_HAL_Driver/Src/stm32l0xx_ll_usb.c ****       if (ep->type == EP_TYPE_BULK)
 381:Drivers/STM32L0xx_HAL_Driver/Src/stm32l0xx_ll_usb.c ****       {
 382:Drivers/STM32L0xx_HAL_Driver/Src/stm32l0xx_ll_usb.c ****         if (ep->xfer_len_db > ep->maxpacket)
 383:Drivers/STM32L0xx_HAL_Driver/Src/stm32l0xx_ll_usb.c ****         {
 384:Drivers/STM32L0xx_HAL_Driver/Src/stm32l0xx_ll_usb.c ****           /* enable double buffer */
 385:Drivers/STM32L0xx_HAL_Driver/Src/stm32l0xx_ll_usb.c ****           PCD_SET_EP_DBUF(USBx, ep->num);
 386:Drivers/STM32L0xx_HAL_Driver/Src/stm32l0xx_ll_usb.c **** 
 387:Drivers/STM32L0xx_HAL_Driver/Src/stm32l0xx_ll_usb.c ****           /* each Time to write in PMA xfer_len_db will */
 388:Drivers/STM32L0xx_HAL_Driver/Src/stm32l0xx_ll_usb.c ****           ep->xfer_len_db -= len;
 389:Drivers/STM32L0xx_HAL_Driver/Src/stm32l0xx_ll_usb.c **** 
 390:Drivers/STM32L0xx_HAL_Driver/Src/stm32l0xx_ll_usb.c ****           /* Fill the two first buffer in the Buffer0 & Buffer1 */
 391:Drivers/STM32L0xx_HAL_Driver/Src/stm32l0xx_ll_usb.c ****           if ((PCD_GET_ENDPOINT(USBx, ep->num) & USB_EP_DTOG_TX) != 0U)
 392:Drivers/STM32L0xx_HAL_Driver/Src/stm32l0xx_ll_usb.c ****           {
 393:Drivers/STM32L0xx_HAL_Driver/Src/stm32l0xx_ll_usb.c ****             /* Set the Double buffer counter for pmabuffer1 */
 394:Drivers/STM32L0xx_HAL_Driver/Src/stm32l0xx_ll_usb.c ****             PCD_SET_EP_DBUF1_CNT(USBx, ep->num, ep->is_in, len);
 395:Drivers/STM32L0xx_HAL_Driver/Src/stm32l0xx_ll_usb.c ****             pmabuffer = ep->pmaaddr1;
 396:Drivers/STM32L0xx_HAL_Driver/Src/stm32l0xx_ll_usb.c **** 
 397:Drivers/STM32L0xx_HAL_Driver/Src/stm32l0xx_ll_usb.c ****             /* Write the user buffer to USB PMA */
 398:Drivers/STM32L0xx_HAL_Driver/Src/stm32l0xx_ll_usb.c ****             USB_WritePMA(USBx, ep->xfer_buff, pmabuffer, (uint16_t)len);
 399:Drivers/STM32L0xx_HAL_Driver/Src/stm32l0xx_ll_usb.c ****             ep->xfer_buff += len;
 400:Drivers/STM32L0xx_HAL_Driver/Src/stm32l0xx_ll_usb.c **** 
 401:Drivers/STM32L0xx_HAL_Driver/Src/stm32l0xx_ll_usb.c ****             if (ep->xfer_len_db > ep->maxpacket)
 402:Drivers/STM32L0xx_HAL_Driver/Src/stm32l0xx_ll_usb.c ****             {
 403:Drivers/STM32L0xx_HAL_Driver/Src/stm32l0xx_ll_usb.c ****               ep->xfer_len_db -= len;
 404:Drivers/STM32L0xx_HAL_Driver/Src/stm32l0xx_ll_usb.c ****             }
 405:Drivers/STM32L0xx_HAL_Driver/Src/stm32l0xx_ll_usb.c ****             else
 406:Drivers/STM32L0xx_HAL_Driver/Src/stm32l0xx_ll_usb.c ****             {
 407:Drivers/STM32L0xx_HAL_Driver/Src/stm32l0xx_ll_usb.c ****               len = ep->xfer_len_db;
 408:Drivers/STM32L0xx_HAL_Driver/Src/stm32l0xx_ll_usb.c ****               ep->xfer_len_db = 0U;
ARM GAS  /tmp/ccSuEEYJ.s 			page 39


 409:Drivers/STM32L0xx_HAL_Driver/Src/stm32l0xx_ll_usb.c ****             }
 410:Drivers/STM32L0xx_HAL_Driver/Src/stm32l0xx_ll_usb.c **** 
 411:Drivers/STM32L0xx_HAL_Driver/Src/stm32l0xx_ll_usb.c ****             /* Set the Double buffer counter for pmabuffer0 */
 412:Drivers/STM32L0xx_HAL_Driver/Src/stm32l0xx_ll_usb.c ****             PCD_SET_EP_DBUF0_CNT(USBx, ep->num, ep->is_in, len);
 413:Drivers/STM32L0xx_HAL_Driver/Src/stm32l0xx_ll_usb.c ****             pmabuffer = ep->pmaaddr0;
 414:Drivers/STM32L0xx_HAL_Driver/Src/stm32l0xx_ll_usb.c **** 
 415:Drivers/STM32L0xx_HAL_Driver/Src/stm32l0xx_ll_usb.c ****             /* Write the user buffer to USB PMA */
 416:Drivers/STM32L0xx_HAL_Driver/Src/stm32l0xx_ll_usb.c ****             USB_WritePMA(USBx, ep->xfer_buff, pmabuffer, (uint16_t)len);
 417:Drivers/STM32L0xx_HAL_Driver/Src/stm32l0xx_ll_usb.c ****           }
 418:Drivers/STM32L0xx_HAL_Driver/Src/stm32l0xx_ll_usb.c ****           else
 419:Drivers/STM32L0xx_HAL_Driver/Src/stm32l0xx_ll_usb.c ****           {
 420:Drivers/STM32L0xx_HAL_Driver/Src/stm32l0xx_ll_usb.c ****             /* Set the Double buffer counter for pmabuffer0 */
 421:Drivers/STM32L0xx_HAL_Driver/Src/stm32l0xx_ll_usb.c ****             PCD_SET_EP_DBUF0_CNT(USBx, ep->num, ep->is_in, len);
 422:Drivers/STM32L0xx_HAL_Driver/Src/stm32l0xx_ll_usb.c ****             pmabuffer = ep->pmaaddr0;
 423:Drivers/STM32L0xx_HAL_Driver/Src/stm32l0xx_ll_usb.c **** 
 424:Drivers/STM32L0xx_HAL_Driver/Src/stm32l0xx_ll_usb.c ****             /* Write the user buffer to USB PMA */
 425:Drivers/STM32L0xx_HAL_Driver/Src/stm32l0xx_ll_usb.c ****             USB_WritePMA(USBx, ep->xfer_buff, pmabuffer, (uint16_t)len);
 426:Drivers/STM32L0xx_HAL_Driver/Src/stm32l0xx_ll_usb.c ****             ep->xfer_buff += len;
 427:Drivers/STM32L0xx_HAL_Driver/Src/stm32l0xx_ll_usb.c **** 
 428:Drivers/STM32L0xx_HAL_Driver/Src/stm32l0xx_ll_usb.c ****             if (ep->xfer_len_db > ep->maxpacket)
 429:Drivers/STM32L0xx_HAL_Driver/Src/stm32l0xx_ll_usb.c ****             {
 430:Drivers/STM32L0xx_HAL_Driver/Src/stm32l0xx_ll_usb.c ****               ep->xfer_len_db -= len;
 431:Drivers/STM32L0xx_HAL_Driver/Src/stm32l0xx_ll_usb.c ****             }
 432:Drivers/STM32L0xx_HAL_Driver/Src/stm32l0xx_ll_usb.c ****             else
 433:Drivers/STM32L0xx_HAL_Driver/Src/stm32l0xx_ll_usb.c ****             {
 434:Drivers/STM32L0xx_HAL_Driver/Src/stm32l0xx_ll_usb.c ****               len = ep->xfer_len_db;
 435:Drivers/STM32L0xx_HAL_Driver/Src/stm32l0xx_ll_usb.c ****               ep->xfer_len_db = 0U;
 436:Drivers/STM32L0xx_HAL_Driver/Src/stm32l0xx_ll_usb.c ****             }
 437:Drivers/STM32L0xx_HAL_Driver/Src/stm32l0xx_ll_usb.c **** 
 438:Drivers/STM32L0xx_HAL_Driver/Src/stm32l0xx_ll_usb.c ****             /* Set the Double buffer counter for pmabuffer1 */
 439:Drivers/STM32L0xx_HAL_Driver/Src/stm32l0xx_ll_usb.c ****             PCD_SET_EP_DBUF1_CNT(USBx, ep->num, ep->is_in, len);
 440:Drivers/STM32L0xx_HAL_Driver/Src/stm32l0xx_ll_usb.c ****             pmabuffer = ep->pmaaddr1;
 441:Drivers/STM32L0xx_HAL_Driver/Src/stm32l0xx_ll_usb.c **** 
 442:Drivers/STM32L0xx_HAL_Driver/Src/stm32l0xx_ll_usb.c ****             /* Write the user buffer to USB PMA */
 443:Drivers/STM32L0xx_HAL_Driver/Src/stm32l0xx_ll_usb.c ****             USB_WritePMA(USBx, ep->xfer_buff, pmabuffer, (uint16_t)len);
 444:Drivers/STM32L0xx_HAL_Driver/Src/stm32l0xx_ll_usb.c ****           }
 445:Drivers/STM32L0xx_HAL_Driver/Src/stm32l0xx_ll_usb.c ****         }
 446:Drivers/STM32L0xx_HAL_Driver/Src/stm32l0xx_ll_usb.c ****         /* auto Switch to single buffer mode when transfer <Mps no need to manage in double buffer 
 447:Drivers/STM32L0xx_HAL_Driver/Src/stm32l0xx_ll_usb.c ****         else
 448:Drivers/STM32L0xx_HAL_Driver/Src/stm32l0xx_ll_usb.c ****         {
 449:Drivers/STM32L0xx_HAL_Driver/Src/stm32l0xx_ll_usb.c ****           len = ep->xfer_len_db;
 450:Drivers/STM32L0xx_HAL_Driver/Src/stm32l0xx_ll_usb.c **** 
 451:Drivers/STM32L0xx_HAL_Driver/Src/stm32l0xx_ll_usb.c ****           /* disable double buffer mode */
 452:Drivers/STM32L0xx_HAL_Driver/Src/stm32l0xx_ll_usb.c ****           PCD_CLEAR_EP_DBUF(USBx, ep->num);
 453:Drivers/STM32L0xx_HAL_Driver/Src/stm32l0xx_ll_usb.c **** 
 454:Drivers/STM32L0xx_HAL_Driver/Src/stm32l0xx_ll_usb.c ****           /* Set Tx count with nbre of byte to be transmitted */
 455:Drivers/STM32L0xx_HAL_Driver/Src/stm32l0xx_ll_usb.c ****           PCD_SET_EP_TX_CNT(USBx, ep->num, len);
 456:Drivers/STM32L0xx_HAL_Driver/Src/stm32l0xx_ll_usb.c ****           pmabuffer = ep->pmaaddr0;
 457:Drivers/STM32L0xx_HAL_Driver/Src/stm32l0xx_ll_usb.c **** 
 458:Drivers/STM32L0xx_HAL_Driver/Src/stm32l0xx_ll_usb.c ****           /* Write the user buffer to USB PMA */
 459:Drivers/STM32L0xx_HAL_Driver/Src/stm32l0xx_ll_usb.c ****           USB_WritePMA(USBx, ep->xfer_buff, pmabuffer, (uint16_t)len);
 460:Drivers/STM32L0xx_HAL_Driver/Src/stm32l0xx_ll_usb.c ****         }
 461:Drivers/STM32L0xx_HAL_Driver/Src/stm32l0xx_ll_usb.c ****       }/* end if bulk double buffer */
 462:Drivers/STM32L0xx_HAL_Driver/Src/stm32l0xx_ll_usb.c **** 
 463:Drivers/STM32L0xx_HAL_Driver/Src/stm32l0xx_ll_usb.c ****       /* manage isochronous double buffer IN mode */
 464:Drivers/STM32L0xx_HAL_Driver/Src/stm32l0xx_ll_usb.c ****       else
 465:Drivers/STM32L0xx_HAL_Driver/Src/stm32l0xx_ll_usb.c ****       {
ARM GAS  /tmp/ccSuEEYJ.s 			page 40


 466:Drivers/STM32L0xx_HAL_Driver/Src/stm32l0xx_ll_usb.c ****         /* Write the data to the USB endpoint */
 467:Drivers/STM32L0xx_HAL_Driver/Src/stm32l0xx_ll_usb.c ****         if ((PCD_GET_ENDPOINT(USBx, ep->num) & USB_EP_DTOG_TX) != 0U)
 468:Drivers/STM32L0xx_HAL_Driver/Src/stm32l0xx_ll_usb.c ****         {
 469:Drivers/STM32L0xx_HAL_Driver/Src/stm32l0xx_ll_usb.c ****           /* Set the Double buffer counter for pmabuffer1 */
 470:Drivers/STM32L0xx_HAL_Driver/Src/stm32l0xx_ll_usb.c ****           PCD_SET_EP_DBUF1_CNT(USBx, ep->num, ep->is_in, len);
 471:Drivers/STM32L0xx_HAL_Driver/Src/stm32l0xx_ll_usb.c ****           pmabuffer = ep->pmaaddr1;
 472:Drivers/STM32L0xx_HAL_Driver/Src/stm32l0xx_ll_usb.c ****         }
 473:Drivers/STM32L0xx_HAL_Driver/Src/stm32l0xx_ll_usb.c ****         else
 474:Drivers/STM32L0xx_HAL_Driver/Src/stm32l0xx_ll_usb.c ****         {
 475:Drivers/STM32L0xx_HAL_Driver/Src/stm32l0xx_ll_usb.c ****           /* Set the Double buffer counter for pmabuffer0 */
 476:Drivers/STM32L0xx_HAL_Driver/Src/stm32l0xx_ll_usb.c ****           PCD_SET_EP_DBUF0_CNT(USBx, ep->num, ep->is_in, len);
 477:Drivers/STM32L0xx_HAL_Driver/Src/stm32l0xx_ll_usb.c ****           pmabuffer = ep->pmaaddr0;
 478:Drivers/STM32L0xx_HAL_Driver/Src/stm32l0xx_ll_usb.c ****         }
 479:Drivers/STM32L0xx_HAL_Driver/Src/stm32l0xx_ll_usb.c **** 
 480:Drivers/STM32L0xx_HAL_Driver/Src/stm32l0xx_ll_usb.c ****         USB_WritePMA(USBx, ep->xfer_buff, pmabuffer, (uint16_t)len);
 481:Drivers/STM32L0xx_HAL_Driver/Src/stm32l0xx_ll_usb.c ****         PCD_FreeUserBuffer(USBx, ep->num, ep->is_in);
 482:Drivers/STM32L0xx_HAL_Driver/Src/stm32l0xx_ll_usb.c ****       }
 483:Drivers/STM32L0xx_HAL_Driver/Src/stm32l0xx_ll_usb.c ****     }
 484:Drivers/STM32L0xx_HAL_Driver/Src/stm32l0xx_ll_usb.c **** 
 485:Drivers/STM32L0xx_HAL_Driver/Src/stm32l0xx_ll_usb.c ****     PCD_SET_EP_TX_STATUS(USBx, ep->num, USB_EP_TX_VALID);
 486:Drivers/STM32L0xx_HAL_Driver/Src/stm32l0xx_ll_usb.c ****   }
 487:Drivers/STM32L0xx_HAL_Driver/Src/stm32l0xx_ll_usb.c ****   else /* OUT endpoint */
 488:Drivers/STM32L0xx_HAL_Driver/Src/stm32l0xx_ll_usb.c ****   {
 489:Drivers/STM32L0xx_HAL_Driver/Src/stm32l0xx_ll_usb.c ****     if (ep->doublebuffer == 0U)
 490:Drivers/STM32L0xx_HAL_Driver/Src/stm32l0xx_ll_usb.c ****     {
 491:Drivers/STM32L0xx_HAL_Driver/Src/stm32l0xx_ll_usb.c ****       /* Multi packet transfer */
 492:Drivers/STM32L0xx_HAL_Driver/Src/stm32l0xx_ll_usb.c ****       if (ep->xfer_len > ep->maxpacket)
 493:Drivers/STM32L0xx_HAL_Driver/Src/stm32l0xx_ll_usb.c ****       {
 494:Drivers/STM32L0xx_HAL_Driver/Src/stm32l0xx_ll_usb.c ****         len = ep->maxpacket;
 495:Drivers/STM32L0xx_HAL_Driver/Src/stm32l0xx_ll_usb.c ****         ep->xfer_len -= len;
 496:Drivers/STM32L0xx_HAL_Driver/Src/stm32l0xx_ll_usb.c ****       }
 497:Drivers/STM32L0xx_HAL_Driver/Src/stm32l0xx_ll_usb.c ****       else
 498:Drivers/STM32L0xx_HAL_Driver/Src/stm32l0xx_ll_usb.c ****       {
 499:Drivers/STM32L0xx_HAL_Driver/Src/stm32l0xx_ll_usb.c ****         len = ep->xfer_len;
 500:Drivers/STM32L0xx_HAL_Driver/Src/stm32l0xx_ll_usb.c ****         ep->xfer_len = 0U;
 501:Drivers/STM32L0xx_HAL_Driver/Src/stm32l0xx_ll_usb.c ****       }
 502:Drivers/STM32L0xx_HAL_Driver/Src/stm32l0xx_ll_usb.c ****       /* configure and validate Rx endpoint */
 503:Drivers/STM32L0xx_HAL_Driver/Src/stm32l0xx_ll_usb.c ****       PCD_SET_EP_RX_CNT(USBx, ep->num, len);
 504:Drivers/STM32L0xx_HAL_Driver/Src/stm32l0xx_ll_usb.c ****     }
 505:Drivers/STM32L0xx_HAL_Driver/Src/stm32l0xx_ll_usb.c ****     else
 506:Drivers/STM32L0xx_HAL_Driver/Src/stm32l0xx_ll_usb.c ****     {
 507:Drivers/STM32L0xx_HAL_Driver/Src/stm32l0xx_ll_usb.c ****       /* First Transfer Coming From HAL_PCD_EP_Receive & From ISR */
 508:Drivers/STM32L0xx_HAL_Driver/Src/stm32l0xx_ll_usb.c ****       /* Set the Double buffer counter */
 509:Drivers/STM32L0xx_HAL_Driver/Src/stm32l0xx_ll_usb.c ****       if (ep->type == EP_TYPE_BULK)
 510:Drivers/STM32L0xx_HAL_Driver/Src/stm32l0xx_ll_usb.c ****       {
 511:Drivers/STM32L0xx_HAL_Driver/Src/stm32l0xx_ll_usb.c ****         PCD_SET_EP_DBUF_CNT(USBx, ep->num, ep->is_in, ep->maxpacket);
 512:Drivers/STM32L0xx_HAL_Driver/Src/stm32l0xx_ll_usb.c **** 
 513:Drivers/STM32L0xx_HAL_Driver/Src/stm32l0xx_ll_usb.c ****         /* Coming from ISR */
 514:Drivers/STM32L0xx_HAL_Driver/Src/stm32l0xx_ll_usb.c ****         if (ep->xfer_count != 0U)
 515:Drivers/STM32L0xx_HAL_Driver/Src/stm32l0xx_ll_usb.c ****         {
 516:Drivers/STM32L0xx_HAL_Driver/Src/stm32l0xx_ll_usb.c ****           /* update last value to check if there is blocking state */
 517:Drivers/STM32L0xx_HAL_Driver/Src/stm32l0xx_ll_usb.c ****           wEPVal = PCD_GET_ENDPOINT(USBx, ep->num);
 518:Drivers/STM32L0xx_HAL_Driver/Src/stm32l0xx_ll_usb.c **** 
 519:Drivers/STM32L0xx_HAL_Driver/Src/stm32l0xx_ll_usb.c ****           /*Blocking State */
 520:Drivers/STM32L0xx_HAL_Driver/Src/stm32l0xx_ll_usb.c ****           if ((((wEPVal & USB_EP_DTOG_RX) != 0U) && ((wEPVal & USB_EP_DTOG_TX) != 0U)) ||
 521:Drivers/STM32L0xx_HAL_Driver/Src/stm32l0xx_ll_usb.c ****               (((wEPVal & USB_EP_DTOG_RX) == 0U) && ((wEPVal & USB_EP_DTOG_TX) == 0U)))
 522:Drivers/STM32L0xx_HAL_Driver/Src/stm32l0xx_ll_usb.c ****           {
ARM GAS  /tmp/ccSuEEYJ.s 			page 41


 523:Drivers/STM32L0xx_HAL_Driver/Src/stm32l0xx_ll_usb.c ****             PCD_FreeUserBuffer(USBx, ep->num, 0U);
 524:Drivers/STM32L0xx_HAL_Driver/Src/stm32l0xx_ll_usb.c ****           }
 525:Drivers/STM32L0xx_HAL_Driver/Src/stm32l0xx_ll_usb.c ****         }
 526:Drivers/STM32L0xx_HAL_Driver/Src/stm32l0xx_ll_usb.c ****       }
 527:Drivers/STM32L0xx_HAL_Driver/Src/stm32l0xx_ll_usb.c ****       /* iso out double */
 528:Drivers/STM32L0xx_HAL_Driver/Src/stm32l0xx_ll_usb.c ****       else if (ep->type == EP_TYPE_ISOC)
 529:Drivers/STM32L0xx_HAL_Driver/Src/stm32l0xx_ll_usb.c ****       {
 530:Drivers/STM32L0xx_HAL_Driver/Src/stm32l0xx_ll_usb.c ****         /* Multi packet transfer */
 531:Drivers/STM32L0xx_HAL_Driver/Src/stm32l0xx_ll_usb.c ****         if (ep->xfer_len > ep->maxpacket)
 532:Drivers/STM32L0xx_HAL_Driver/Src/stm32l0xx_ll_usb.c ****         {
 533:Drivers/STM32L0xx_HAL_Driver/Src/stm32l0xx_ll_usb.c ****           len = ep->maxpacket;
 534:Drivers/STM32L0xx_HAL_Driver/Src/stm32l0xx_ll_usb.c ****           ep->xfer_len -= len;
 535:Drivers/STM32L0xx_HAL_Driver/Src/stm32l0xx_ll_usb.c ****         }
 536:Drivers/STM32L0xx_HAL_Driver/Src/stm32l0xx_ll_usb.c ****         else
 537:Drivers/STM32L0xx_HAL_Driver/Src/stm32l0xx_ll_usb.c ****         {
 538:Drivers/STM32L0xx_HAL_Driver/Src/stm32l0xx_ll_usb.c ****           len = ep->xfer_len;
 539:Drivers/STM32L0xx_HAL_Driver/Src/stm32l0xx_ll_usb.c ****           ep->xfer_len = 0U;
 540:Drivers/STM32L0xx_HAL_Driver/Src/stm32l0xx_ll_usb.c ****         }
 541:Drivers/STM32L0xx_HAL_Driver/Src/stm32l0xx_ll_usb.c ****         PCD_SET_EP_DBUF_CNT(USBx, ep->num, ep->is_in, len);
 542:Drivers/STM32L0xx_HAL_Driver/Src/stm32l0xx_ll_usb.c ****       }
 543:Drivers/STM32L0xx_HAL_Driver/Src/stm32l0xx_ll_usb.c ****       else
 544:Drivers/STM32L0xx_HAL_Driver/Src/stm32l0xx_ll_usb.c ****       {
 545:Drivers/STM32L0xx_HAL_Driver/Src/stm32l0xx_ll_usb.c ****         return HAL_ERROR;
 546:Drivers/STM32L0xx_HAL_Driver/Src/stm32l0xx_ll_usb.c ****       }
 547:Drivers/STM32L0xx_HAL_Driver/Src/stm32l0xx_ll_usb.c ****     }
 548:Drivers/STM32L0xx_HAL_Driver/Src/stm32l0xx_ll_usb.c **** 
 549:Drivers/STM32L0xx_HAL_Driver/Src/stm32l0xx_ll_usb.c ****     PCD_SET_EP_RX_STATUS(USBx, ep->num, USB_EP_RX_VALID);
 550:Drivers/STM32L0xx_HAL_Driver/Src/stm32l0xx_ll_usb.c ****   }
 551:Drivers/STM32L0xx_HAL_Driver/Src/stm32l0xx_ll_usb.c **** 
 552:Drivers/STM32L0xx_HAL_Driver/Src/stm32l0xx_ll_usb.c ****   return HAL_OK;
 553:Drivers/STM32L0xx_HAL_Driver/Src/stm32l0xx_ll_usb.c **** }
 554:Drivers/STM32L0xx_HAL_Driver/Src/stm32l0xx_ll_usb.c **** 
 555:Drivers/STM32L0xx_HAL_Driver/Src/stm32l0xx_ll_usb.c **** 
 556:Drivers/STM32L0xx_HAL_Driver/Src/stm32l0xx_ll_usb.c **** /**
 557:Drivers/STM32L0xx_HAL_Driver/Src/stm32l0xx_ll_usb.c ****   * @brief  USB_EPSetStall set a stall condition over an EP
 558:Drivers/STM32L0xx_HAL_Driver/Src/stm32l0xx_ll_usb.c ****   * @param  USBx Selected device
 559:Drivers/STM32L0xx_HAL_Driver/Src/stm32l0xx_ll_usb.c ****   * @param  ep pointer to endpoint structure
 560:Drivers/STM32L0xx_HAL_Driver/Src/stm32l0xx_ll_usb.c ****   * @retval HAL status
 561:Drivers/STM32L0xx_HAL_Driver/Src/stm32l0xx_ll_usb.c ****   */
 562:Drivers/STM32L0xx_HAL_Driver/Src/stm32l0xx_ll_usb.c **** HAL_StatusTypeDef USB_EPSetStall(USB_TypeDef *USBx, USB_EPTypeDef *ep)
 563:Drivers/STM32L0xx_HAL_Driver/Src/stm32l0xx_ll_usb.c **** {
 1511              		.loc 1 563 1 view -0
 1512              		.cfi_startproc
 1513              		@ args = 0, pretend = 0, frame = 0
 1514              		@ frame_needed = 0, uses_anonymous_args = 0
 1515              		@ link register save eliminated.
 564:Drivers/STM32L0xx_HAL_Driver/Src/stm32l0xx_ll_usb.c ****   if (ep->is_in != 0U)
 1516              		.loc 1 564 3 view .LVU463
 1517              		.loc 1 564 9 is_stmt 0 view .LVU464
 1518 0000 4B78     		ldrb	r3, [r1, #1]
 1519              		.loc 1 564 6 view .LVU465
 1520 0002 002B     		cmp	r3, #0
 1521 0004 0ED0     		beq	.L53
 565:Drivers/STM32L0xx_HAL_Driver/Src/stm32l0xx_ll_usb.c ****   {
 566:Drivers/STM32L0xx_HAL_Driver/Src/stm32l0xx_ll_usb.c ****     PCD_SET_EP_TX_STATUS(USBx, ep->num, USB_EP_TX_STALL);
 1522              		.loc 1 566 5 is_stmt 1 view .LVU466
 1523              	.LBB52:
ARM GAS  /tmp/ccSuEEYJ.s 			page 42


 1524              		.loc 1 566 5 view .LVU467
 1525              		.loc 1 566 5 view .LVU468
 1526 0006 0B78     		ldrb	r3, [r1]
 1527 0008 9B00     		lsls	r3, r3, #2
 1528 000a C018     		adds	r0, r0, r3
 1529              	.LVL164:
 1530              		.loc 1 566 5 is_stmt 0 view .LVU469
 1531 000c 0388     		ldrh	r3, [r0]
 1532 000e 0C4A     		ldr	r2, .L55
 1533 0010 1340     		ands	r3, r2
 1534              	.LVL165:
 1535              		.loc 1 566 5 is_stmt 1 view .LVU470
 1536              		.loc 1 566 5 view .LVU471
 1537 0012 1022     		movs	r2, #16
 1538 0014 5340     		eors	r3, r2
 1539              	.LVL166:
 1540              		.loc 1 566 5 is_stmt 0 view .LVU472
 1541 0016 9BB2     		uxth	r3, r3
 1542              	.LVL167:
 1543              		.loc 1 566 5 is_stmt 1 view .LVU473
 1544              		.loc 1 566 5 view .LVU474
 1545 0018 0A4A     		ldr	r2, .L55+4
 1546 001a 1343     		orrs	r3, r2
 1547              	.LVL168:
 1548              		.loc 1 566 5 is_stmt 0 view .LVU475
 1549 001c 9BB2     		uxth	r3, r3
 1550 001e 0380     		strh	r3, [r0]
 1551              	.LBE52:
 1552              		.loc 1 566 5 is_stmt 1 view .LVU476
 1553              	.L54:
 567:Drivers/STM32L0xx_HAL_Driver/Src/stm32l0xx_ll_usb.c ****   }
 568:Drivers/STM32L0xx_HAL_Driver/Src/stm32l0xx_ll_usb.c ****   else
 569:Drivers/STM32L0xx_HAL_Driver/Src/stm32l0xx_ll_usb.c ****   {
 570:Drivers/STM32L0xx_HAL_Driver/Src/stm32l0xx_ll_usb.c ****     PCD_SET_EP_RX_STATUS(USBx, ep->num, USB_EP_RX_STALL);
 1554              		.loc 1 570 5 discriminator 7 view .LVU477
 571:Drivers/STM32L0xx_HAL_Driver/Src/stm32l0xx_ll_usb.c ****   }
 572:Drivers/STM32L0xx_HAL_Driver/Src/stm32l0xx_ll_usb.c **** 
 573:Drivers/STM32L0xx_HAL_Driver/Src/stm32l0xx_ll_usb.c ****   return HAL_OK;
 1555              		.loc 1 573 3 discriminator 7 view .LVU478
 574:Drivers/STM32L0xx_HAL_Driver/Src/stm32l0xx_ll_usb.c **** }
 1556              		.loc 1 574 1 is_stmt 0 discriminator 7 view .LVU479
 1557 0020 0020     		movs	r0, #0
 1558              		@ sp needed
 1559 0022 7047     		bx	lr
 1560              	.LVL169:
 1561              	.L53:
 570:Drivers/STM32L0xx_HAL_Driver/Src/stm32l0xx_ll_usb.c ****   }
 1562              		.loc 1 570 5 is_stmt 1 view .LVU480
 1563              	.LBB53:
 570:Drivers/STM32L0xx_HAL_Driver/Src/stm32l0xx_ll_usb.c ****   }
 1564              		.loc 1 570 5 view .LVU481
 570:Drivers/STM32L0xx_HAL_Driver/Src/stm32l0xx_ll_usb.c ****   }
 1565              		.loc 1 570 5 view .LVU482
 1566 0024 0B78     		ldrb	r3, [r1]
 1567 0026 9B00     		lsls	r3, r3, #2
 1568 0028 C018     		adds	r0, r0, r3
 1569              	.LVL170:
ARM GAS  /tmp/ccSuEEYJ.s 			page 43


 570:Drivers/STM32L0xx_HAL_Driver/Src/stm32l0xx_ll_usb.c ****   }
 1570              		.loc 1 570 5 is_stmt 0 view .LVU483
 1571 002a 0288     		ldrh	r2, [r0]
 1572 002c 064B     		ldr	r3, .L55+8
 1573 002e 1A40     		ands	r2, r3
 1574              	.LVL171:
 570:Drivers/STM32L0xx_HAL_Driver/Src/stm32l0xx_ll_usb.c ****   }
 1575              		.loc 1 570 5 is_stmt 1 view .LVU484
 570:Drivers/STM32L0xx_HAL_Driver/Src/stm32l0xx_ll_usb.c ****   }
 1576              		.loc 1 570 5 view .LVU485
 1577 0030 8023     		movs	r3, #128
 1578 0032 5B01     		lsls	r3, r3, #5
 1579 0034 5A40     		eors	r2, r3
 1580              	.LVL172:
 570:Drivers/STM32L0xx_HAL_Driver/Src/stm32l0xx_ll_usb.c ****   }
 1581              		.loc 1 570 5 view .LVU486
 570:Drivers/STM32L0xx_HAL_Driver/Src/stm32l0xx_ll_usb.c ****   }
 1582              		.loc 1 570 5 view .LVU487
 1583 0036 034B     		ldr	r3, .L55+4
 1584 0038 1343     		orrs	r3, r2
 1585 003a 9BB2     		uxth	r3, r3
 1586 003c 0380     		strh	r3, [r0]
 1587 003e EFE7     		b	.L54
 1588              	.L56:
 1589              		.align	2
 1590              	.L55:
 1591 0040 BF8FFFFF 		.word	-28737
 1592 0044 8080FFFF 		.word	-32640
 1593 0048 8FBFFFFF 		.word	-16497
 1594              	.LBE53:
 1595              		.cfi_endproc
 1596              	.LFE42:
 1598              		.section	.text.USB_EPClearStall,"ax",%progbits
 1599              		.align	1
 1600              		.global	USB_EPClearStall
 1601              		.syntax unified
 1602              		.code	16
 1603              		.thumb_func
 1605              	USB_EPClearStall:
 1606              	.LVL173:
 1607              	.LFB43:
 575:Drivers/STM32L0xx_HAL_Driver/Src/stm32l0xx_ll_usb.c **** 
 576:Drivers/STM32L0xx_HAL_Driver/Src/stm32l0xx_ll_usb.c **** /**
 577:Drivers/STM32L0xx_HAL_Driver/Src/stm32l0xx_ll_usb.c ****   * @brief  USB_EPClearStall Clear a stall condition over an EP
 578:Drivers/STM32L0xx_HAL_Driver/Src/stm32l0xx_ll_usb.c ****   * @param  USBx Selected device
 579:Drivers/STM32L0xx_HAL_Driver/Src/stm32l0xx_ll_usb.c ****   * @param  ep pointer to endpoint structure
 580:Drivers/STM32L0xx_HAL_Driver/Src/stm32l0xx_ll_usb.c ****   * @retval HAL status
 581:Drivers/STM32L0xx_HAL_Driver/Src/stm32l0xx_ll_usb.c ****   */
 582:Drivers/STM32L0xx_HAL_Driver/Src/stm32l0xx_ll_usb.c **** HAL_StatusTypeDef USB_EPClearStall(USB_TypeDef *USBx, USB_EPTypeDef *ep)
 583:Drivers/STM32L0xx_HAL_Driver/Src/stm32l0xx_ll_usb.c **** {
 1608              		.loc 1 583 1 view -0
 1609              		.cfi_startproc
 1610              		@ args = 0, pretend = 0, frame = 0
 1611              		@ frame_needed = 0, uses_anonymous_args = 0
 1612              		.loc 1 583 1 is_stmt 0 view .LVU489
 1613 0000 10B5     		push	{r4, lr}
 1614              	.LCFI4:
ARM GAS  /tmp/ccSuEEYJ.s 			page 44


 1615              		.cfi_def_cfa_offset 8
 1616              		.cfi_offset 4, -8
 1617              		.cfi_offset 14, -4
 584:Drivers/STM32L0xx_HAL_Driver/Src/stm32l0xx_ll_usb.c ****   if (ep->doublebuffer == 0U)
 1618              		.loc 1 584 3 is_stmt 1 view .LVU490
 1619              		.loc 1 584 9 is_stmt 0 view .LVU491
 1620 0002 0B7B     		ldrb	r3, [r1, #12]
 1621              		.loc 1 584 6 view .LVU492
 1622 0004 002B     		cmp	r3, #0
 1623 0006 3AD1     		bne	.L58
 585:Drivers/STM32L0xx_HAL_Driver/Src/stm32l0xx_ll_usb.c ****   {
 586:Drivers/STM32L0xx_HAL_Driver/Src/stm32l0xx_ll_usb.c ****     if (ep->is_in != 0U)
 1624              		.loc 1 586 5 is_stmt 1 view .LVU493
 1625              		.loc 1 586 11 is_stmt 0 view .LVU494
 1626 0008 4B78     		ldrb	r3, [r1, #1]
 1627              		.loc 1 586 8 view .LVU495
 1628 000a 002B     		cmp	r3, #0
 1629 000c 1DD0     		beq	.L59
 587:Drivers/STM32L0xx_HAL_Driver/Src/stm32l0xx_ll_usb.c ****     {
 588:Drivers/STM32L0xx_HAL_Driver/Src/stm32l0xx_ll_usb.c ****       PCD_CLEAR_TX_DTOG(USBx, ep->num);
 1630              		.loc 1 588 7 is_stmt 1 view .LVU496
 1631              	.LBB54:
 1632              		.loc 1 588 7 view .LVU497
 1633              		.loc 1 588 7 view .LVU498
 1634 000e 0B78     		ldrb	r3, [r1]
 1635 0010 9B00     		lsls	r3, r3, #2
 1636 0012 C318     		adds	r3, r0, r3
 1637 0014 1A88     		ldrh	r2, [r3]
 1638              	.LVL174:
 1639              		.loc 1 588 7 view .LVU499
 1640 0016 5206     		lsls	r2, r2, #25
 1641 0018 06D5     		bpl	.L60
 1642              	.LVL175:
 1643              		.loc 1 588 7 discriminator 1 view .LVU500
 1644              	.LBB55:
 1645              		.loc 1 588 7 discriminator 1 view .LVU501
 1646              		.loc 1 588 7 discriminator 1 view .LVU502
 1647 001a 1A88     		ldrh	r2, [r3]
 1648 001c 194C     		ldr	r4, .L62
 1649 001e 1440     		ands	r4, r2
 1650              	.LVL176:
 1651              		.loc 1 588 7 discriminator 1 view .LVU503
 1652 0020 194A     		ldr	r2, .L62+4
 1653 0022 2243     		orrs	r2, r4
 1654 0024 92B2     		uxth	r2, r2
 1655 0026 1A80     		strh	r2, [r3]
 1656              	.LVL177:
 1657              	.L60:
 1658              		.loc 1 588 7 is_stmt 0 discriminator 1 view .LVU504
 1659              	.LBE55:
 1660              		.loc 1 588 7 is_stmt 1 discriminator 3 view .LVU505
 1661              	.LBE54:
 1662              		.loc 1 588 7 discriminator 3 view .LVU506
 589:Drivers/STM32L0xx_HAL_Driver/Src/stm32l0xx_ll_usb.c **** 
 590:Drivers/STM32L0xx_HAL_Driver/Src/stm32l0xx_ll_usb.c ****       if (ep->type != EP_TYPE_ISOC)
 1663              		.loc 1 590 7 discriminator 3 view .LVU507
 1664              		.loc 1 590 13 is_stmt 0 discriminator 3 view .LVU508
ARM GAS  /tmp/ccSuEEYJ.s 			page 45


 1665 0028 CB78     		ldrb	r3, [r1, #3]
 1666              		.loc 1 590 10 discriminator 3 view .LVU509
 1667 002a 012B     		cmp	r3, #1
 1668 002c 27D0     		beq	.L58
 591:Drivers/STM32L0xx_HAL_Driver/Src/stm32l0xx_ll_usb.c ****       {
 592:Drivers/STM32L0xx_HAL_Driver/Src/stm32l0xx_ll_usb.c ****         /* Configure NAK status for the Endpoint */
 593:Drivers/STM32L0xx_HAL_Driver/Src/stm32l0xx_ll_usb.c ****         PCD_SET_EP_TX_STATUS(USBx, ep->num, USB_EP_TX_NAK);
 1669              		.loc 1 593 9 is_stmt 1 view .LVU510
 1670              	.LBB56:
 1671              		.loc 1 593 9 view .LVU511
 1672              		.loc 1 593 9 view .LVU512
 1673 002e 0B78     		ldrb	r3, [r1]
 1674 0030 9B00     		lsls	r3, r3, #2
 1675 0032 C018     		adds	r0, r0, r3
 1676              	.LVL178:
 1677              		.loc 1 593 9 is_stmt 0 view .LVU513
 1678 0034 0388     		ldrh	r3, [r0]
 1679 0036 154A     		ldr	r2, .L62+8
 1680 0038 1340     		ands	r3, r2
 1681              	.LVL179:
 1682              		.loc 1 593 9 is_stmt 1 view .LVU514
 1683              		.loc 1 593 9 view .LVU515
 1684              		.loc 1 593 9 view .LVU516
 1685 003a 2022     		movs	r2, #32
 1686 003c 5340     		eors	r3, r2
 1687              	.LVL180:
 1688              		.loc 1 593 9 is_stmt 0 view .LVU517
 1689 003e 9BB2     		uxth	r3, r3
 1690              	.LVL181:
 1691              		.loc 1 593 9 is_stmt 1 view .LVU518
 1692 0040 134A     		ldr	r2, .L62+12
 1693 0042 1343     		orrs	r3, r2
 1694              	.LVL182:
 1695              		.loc 1 593 9 is_stmt 0 view .LVU519
 1696 0044 9BB2     		uxth	r3, r3
 1697 0046 0380     		strh	r3, [r0]
 1698 0048 19E0     		b	.L58
 1699              	.LVL183:
 1700              	.L59:
 1701              		.loc 1 593 9 view .LVU520
 1702              	.LBE56:
 594:Drivers/STM32L0xx_HAL_Driver/Src/stm32l0xx_ll_usb.c ****       }
 595:Drivers/STM32L0xx_HAL_Driver/Src/stm32l0xx_ll_usb.c ****     }
 596:Drivers/STM32L0xx_HAL_Driver/Src/stm32l0xx_ll_usb.c ****     else
 597:Drivers/STM32L0xx_HAL_Driver/Src/stm32l0xx_ll_usb.c ****     {
 598:Drivers/STM32L0xx_HAL_Driver/Src/stm32l0xx_ll_usb.c ****       PCD_CLEAR_RX_DTOG(USBx, ep->num);
 1703              		.loc 1 598 7 is_stmt 1 view .LVU521
 1704              	.LBB57:
 1705              		.loc 1 598 7 view .LVU522
 1706              		.loc 1 598 7 view .LVU523
 1707 004a 0B78     		ldrb	r3, [r1]
 1708 004c 9B00     		lsls	r3, r3, #2
 1709 004e C318     		adds	r3, r0, r3
 1710 0050 1A88     		ldrh	r2, [r3]
 1711              	.LVL184:
 1712              		.loc 1 598 7 view .LVU524
 1713 0052 5204     		lsls	r2, r2, #17
ARM GAS  /tmp/ccSuEEYJ.s 			page 46


 1714 0054 06D5     		bpl	.L61
 1715              	.LVL185:
 1716              		.loc 1 598 7 discriminator 1 view .LVU525
 1717              	.LBB58:
 1718              		.loc 1 598 7 discriminator 1 view .LVU526
 1719              		.loc 1 598 7 discriminator 1 view .LVU527
 1720 0056 1A88     		ldrh	r2, [r3]
 1721 0058 0A4C     		ldr	r4, .L62
 1722 005a 1440     		ands	r4, r2
 1723              	.LVL186:
 1724              		.loc 1 598 7 discriminator 1 view .LVU528
 1725 005c 0D4A     		ldr	r2, .L62+16
 1726 005e 2243     		orrs	r2, r4
 1727 0060 92B2     		uxth	r2, r2
 1728 0062 1A80     		strh	r2, [r3]
 1729              	.LVL187:
 1730              	.L61:
 1731              		.loc 1 598 7 is_stmt 0 discriminator 1 view .LVU529
 1732              	.LBE58:
 1733              		.loc 1 598 7 is_stmt 1 discriminator 3 view .LVU530
 1734              	.LBE57:
 1735              		.loc 1 598 7 discriminator 3 view .LVU531
 599:Drivers/STM32L0xx_HAL_Driver/Src/stm32l0xx_ll_usb.c **** 
 600:Drivers/STM32L0xx_HAL_Driver/Src/stm32l0xx_ll_usb.c ****       /* Configure VALID status for the Endpoint */
 601:Drivers/STM32L0xx_HAL_Driver/Src/stm32l0xx_ll_usb.c ****       PCD_SET_EP_RX_STATUS(USBx, ep->num, USB_EP_RX_VALID);
 1736              		.loc 1 601 7 discriminator 3 view .LVU532
 1737              	.LBB59:
 1738              		.loc 1 601 7 discriminator 3 view .LVU533
 1739              		.loc 1 601 7 discriminator 3 view .LVU534
 1740 0064 0B78     		ldrb	r3, [r1]
 1741 0066 9B00     		lsls	r3, r3, #2
 1742 0068 C018     		adds	r0, r0, r3
 1743              	.LVL188:
 1744              		.loc 1 601 7 is_stmt 0 discriminator 3 view .LVU535
 1745 006a 0288     		ldrh	r2, [r0]
 1746 006c 0A4B     		ldr	r3, .L62+20
 1747 006e 1A40     		ands	r2, r3
 1748              	.LVL189:
 1749              		.loc 1 601 7 is_stmt 1 discriminator 3 view .LVU536
 1750              		.loc 1 601 7 discriminator 3 view .LVU537
 1751              		.loc 1 601 7 discriminator 3 view .LVU538
 1752              		.loc 1 601 7 discriminator 3 view .LVU539
 1753 0070 C023     		movs	r3, #192
 1754 0072 9B01     		lsls	r3, r3, #6
 1755 0074 5A40     		eors	r2, r3
 1756              	.LVL190:
 1757              		.loc 1 601 7 discriminator 3 view .LVU540
 1758 0076 064B     		ldr	r3, .L62+12
 1759 0078 1343     		orrs	r3, r2
 1760 007a 9BB2     		uxth	r3, r3
 1761 007c 0380     		strh	r3, [r0]
 1762              	.LVL191:
 1763              	.L58:
 1764              		.loc 1 601 7 is_stmt 0 discriminator 3 view .LVU541
 1765              	.LBE59:
 1766              		.loc 1 601 7 is_stmt 1 discriminator 7 view .LVU542
 602:Drivers/STM32L0xx_HAL_Driver/Src/stm32l0xx_ll_usb.c ****     }
ARM GAS  /tmp/ccSuEEYJ.s 			page 47


 603:Drivers/STM32L0xx_HAL_Driver/Src/stm32l0xx_ll_usb.c ****   }
 604:Drivers/STM32L0xx_HAL_Driver/Src/stm32l0xx_ll_usb.c **** 
 605:Drivers/STM32L0xx_HAL_Driver/Src/stm32l0xx_ll_usb.c ****   return HAL_OK;
 1767              		.loc 1 605 3 discriminator 7 view .LVU543
 606:Drivers/STM32L0xx_HAL_Driver/Src/stm32l0xx_ll_usb.c **** }
 1768              		.loc 1 606 1 is_stmt 0 discriminator 7 view .LVU544
 1769 007e 0020     		movs	r0, #0
 1770              		@ sp needed
 1771 0080 10BD     		pop	{r4, pc}
 1772              	.L63:
 1773 0082 C046     		.align	2
 1774              	.L62:
 1775 0084 8F8FFFFF 		.word	-28785
 1776 0088 C080FFFF 		.word	-32576
 1777 008c BF8FFFFF 		.word	-28737
 1778 0090 8080FFFF 		.word	-32640
 1779 0094 80C0FFFF 		.word	-16256
 1780 0098 8FBFFFFF 		.word	-16497
 1781              		.cfi_endproc
 1782              	.LFE43:
 1784              		.section	.text.USB_StopDevice,"ax",%progbits
 1785              		.align	1
 1786              		.global	USB_StopDevice
 1787              		.syntax unified
 1788              		.code	16
 1789              		.thumb_func
 1791              	USB_StopDevice:
 1792              	.LVL192:
 1793              	.LFB44:
 607:Drivers/STM32L0xx_HAL_Driver/Src/stm32l0xx_ll_usb.c **** 
 608:Drivers/STM32L0xx_HAL_Driver/Src/stm32l0xx_ll_usb.c **** /**
 609:Drivers/STM32L0xx_HAL_Driver/Src/stm32l0xx_ll_usb.c ****   * @brief  USB_StopDevice Stop the usb device mode
 610:Drivers/STM32L0xx_HAL_Driver/Src/stm32l0xx_ll_usb.c ****   * @param  USBx Selected device
 611:Drivers/STM32L0xx_HAL_Driver/Src/stm32l0xx_ll_usb.c ****   * @retval HAL status
 612:Drivers/STM32L0xx_HAL_Driver/Src/stm32l0xx_ll_usb.c ****   */
 613:Drivers/STM32L0xx_HAL_Driver/Src/stm32l0xx_ll_usb.c **** HAL_StatusTypeDef USB_StopDevice(USB_TypeDef *USBx)
 614:Drivers/STM32L0xx_HAL_Driver/Src/stm32l0xx_ll_usb.c **** {
 1794              		.loc 1 614 1 is_stmt 1 view -0
 1795              		.cfi_startproc
 1796              		@ args = 0, pretend = 0, frame = 0
 1797              		@ frame_needed = 0, uses_anonymous_args = 0
 1798              		@ link register save eliminated.
 615:Drivers/STM32L0xx_HAL_Driver/Src/stm32l0xx_ll_usb.c ****   /* disable all interrupts and force USB reset */
 616:Drivers/STM32L0xx_HAL_Driver/Src/stm32l0xx_ll_usb.c ****   USBx->CNTR = (uint16_t)USB_CNTR_FRES;
 1799              		.loc 1 616 3 view .LVU546
 1800              		.loc 1 616 14 is_stmt 0 view .LVU547
 1801 0000 4023     		movs	r3, #64
 1802 0002 0122     		movs	r2, #1
 1803 0004 C252     		strh	r2, [r0, r3]
 617:Drivers/STM32L0xx_HAL_Driver/Src/stm32l0xx_ll_usb.c **** 
 618:Drivers/STM32L0xx_HAL_Driver/Src/stm32l0xx_ll_usb.c ****   /* clear interrupt status register */
 619:Drivers/STM32L0xx_HAL_Driver/Src/stm32l0xx_ll_usb.c ****   USBx->ISTR = 0U;
 1804              		.loc 1 619 3 is_stmt 1 view .LVU548
 1805              		.loc 1 619 14 is_stmt 0 view .LVU549
 1806 0006 4332     		adds	r2, r2, #67
 1807 0008 0021     		movs	r1, #0
 1808 000a 8152     		strh	r1, [r0, r2]
ARM GAS  /tmp/ccSuEEYJ.s 			page 48


 620:Drivers/STM32L0xx_HAL_Driver/Src/stm32l0xx_ll_usb.c **** 
 621:Drivers/STM32L0xx_HAL_Driver/Src/stm32l0xx_ll_usb.c ****   /* switch-off device */
 622:Drivers/STM32L0xx_HAL_Driver/Src/stm32l0xx_ll_usb.c ****   USBx->CNTR = (uint16_t)(USB_CNTR_FRES | USB_CNTR_PDWN);
 1809              		.loc 1 622 3 is_stmt 1 view .LVU550
 1810              		.loc 1 622 14 is_stmt 0 view .LVU551
 1811 000c 413A     		subs	r2, r2, #65
 1812 000e C252     		strh	r2, [r0, r3]
 623:Drivers/STM32L0xx_HAL_Driver/Src/stm32l0xx_ll_usb.c **** 
 624:Drivers/STM32L0xx_HAL_Driver/Src/stm32l0xx_ll_usb.c ****   return HAL_OK;
 1813              		.loc 1 624 3 is_stmt 1 view .LVU552
 625:Drivers/STM32L0xx_HAL_Driver/Src/stm32l0xx_ll_usb.c **** }
 1814              		.loc 1 625 1 is_stmt 0 view .LVU553
 1815 0010 0020     		movs	r0, #0
 1816              	.LVL193:
 1817              		.loc 1 625 1 view .LVU554
 1818              		@ sp needed
 1819 0012 7047     		bx	lr
 1820              		.cfi_endproc
 1821              	.LFE44:
 1823              		.section	.text.USB_SetDevAddress,"ax",%progbits
 1824              		.align	1
 1825              		.global	USB_SetDevAddress
 1826              		.syntax unified
 1827              		.code	16
 1828              		.thumb_func
 1830              	USB_SetDevAddress:
 1831              	.LVL194:
 1832              	.LFB45:
 626:Drivers/STM32L0xx_HAL_Driver/Src/stm32l0xx_ll_usb.c **** 
 627:Drivers/STM32L0xx_HAL_Driver/Src/stm32l0xx_ll_usb.c **** /**
 628:Drivers/STM32L0xx_HAL_Driver/Src/stm32l0xx_ll_usb.c ****   * @brief  USB_SetDevAddress Stop the usb device mode
 629:Drivers/STM32L0xx_HAL_Driver/Src/stm32l0xx_ll_usb.c ****   * @param  USBx Selected device
 630:Drivers/STM32L0xx_HAL_Driver/Src/stm32l0xx_ll_usb.c ****   * @param  address new device address to be assigned
 631:Drivers/STM32L0xx_HAL_Driver/Src/stm32l0xx_ll_usb.c ****   *          This parameter can be a value from 0 to 255
 632:Drivers/STM32L0xx_HAL_Driver/Src/stm32l0xx_ll_usb.c ****   * @retval HAL status
 633:Drivers/STM32L0xx_HAL_Driver/Src/stm32l0xx_ll_usb.c ****   */
 634:Drivers/STM32L0xx_HAL_Driver/Src/stm32l0xx_ll_usb.c **** HAL_StatusTypeDef  USB_SetDevAddress(USB_TypeDef *USBx, uint8_t address)
 635:Drivers/STM32L0xx_HAL_Driver/Src/stm32l0xx_ll_usb.c **** {
 1833              		.loc 1 635 1 is_stmt 1 view -0
 1834              		.cfi_startproc
 1835              		@ args = 0, pretend = 0, frame = 0
 1836              		@ frame_needed = 0, uses_anonymous_args = 0
 1837              		@ link register save eliminated.
 636:Drivers/STM32L0xx_HAL_Driver/Src/stm32l0xx_ll_usb.c ****   if (address == 0U)
 1838              		.loc 1 636 3 view .LVU556
 1839              		.loc 1 636 6 is_stmt 0 view .LVU557
 1840 0000 0029     		cmp	r1, #0
 1841 0002 02D1     		bne	.L66
 637:Drivers/STM32L0xx_HAL_Driver/Src/stm32l0xx_ll_usb.c ****   {
 638:Drivers/STM32L0xx_HAL_Driver/Src/stm32l0xx_ll_usb.c ****     /* set device address and enable function */
 639:Drivers/STM32L0xx_HAL_Driver/Src/stm32l0xx_ll_usb.c ****     USBx->DADDR = (uint16_t)USB_DADDR_EF;
 1842              		.loc 1 639 5 is_stmt 1 view .LVU558
 1843              		.loc 1 639 17 is_stmt 0 view .LVU559
 1844 0004 4C23     		movs	r3, #76
 1845 0006 8022     		movs	r2, #128
 1846 0008 C252     		strh	r2, [r0, r3]
 1847              	.L66:
ARM GAS  /tmp/ccSuEEYJ.s 			page 49


 640:Drivers/STM32L0xx_HAL_Driver/Src/stm32l0xx_ll_usb.c ****   }
 641:Drivers/STM32L0xx_HAL_Driver/Src/stm32l0xx_ll_usb.c **** 
 642:Drivers/STM32L0xx_HAL_Driver/Src/stm32l0xx_ll_usb.c ****   return HAL_OK;
 1848              		.loc 1 642 3 is_stmt 1 view .LVU560
 643:Drivers/STM32L0xx_HAL_Driver/Src/stm32l0xx_ll_usb.c **** }
 1849              		.loc 1 643 1 is_stmt 0 view .LVU561
 1850 000a 0020     		movs	r0, #0
 1851              	.LVL195:
 1852              		.loc 1 643 1 view .LVU562
 1853              		@ sp needed
 1854 000c 7047     		bx	lr
 1855              		.cfi_endproc
 1856              	.LFE45:
 1858              		.section	.text.USB_DevConnect,"ax",%progbits
 1859              		.align	1
 1860              		.global	USB_DevConnect
 1861              		.syntax unified
 1862              		.code	16
 1863              		.thumb_func
 1865              	USB_DevConnect:
 1866              	.LVL196:
 1867              	.LFB46:
 644:Drivers/STM32L0xx_HAL_Driver/Src/stm32l0xx_ll_usb.c **** 
 645:Drivers/STM32L0xx_HAL_Driver/Src/stm32l0xx_ll_usb.c **** /**
 646:Drivers/STM32L0xx_HAL_Driver/Src/stm32l0xx_ll_usb.c ****   * @brief  USB_DevConnect Connect the USB device by enabling the pull-up/pull-down
 647:Drivers/STM32L0xx_HAL_Driver/Src/stm32l0xx_ll_usb.c ****   * @param  USBx Selected device
 648:Drivers/STM32L0xx_HAL_Driver/Src/stm32l0xx_ll_usb.c ****   * @retval HAL status
 649:Drivers/STM32L0xx_HAL_Driver/Src/stm32l0xx_ll_usb.c ****   */
 650:Drivers/STM32L0xx_HAL_Driver/Src/stm32l0xx_ll_usb.c **** HAL_StatusTypeDef  USB_DevConnect(USB_TypeDef *USBx)
 651:Drivers/STM32L0xx_HAL_Driver/Src/stm32l0xx_ll_usb.c **** {
 1868              		.loc 1 651 1 is_stmt 1 view -0
 1869              		.cfi_startproc
 1870              		@ args = 0, pretend = 0, frame = 0
 1871              		@ frame_needed = 0, uses_anonymous_args = 0
 1872              		@ link register save eliminated.
 652:Drivers/STM32L0xx_HAL_Driver/Src/stm32l0xx_ll_usb.c ****   /* Enabling DP Pull-UP bit to Connect internal PU resistor on USB DP line */
 653:Drivers/STM32L0xx_HAL_Driver/Src/stm32l0xx_ll_usb.c ****   USBx->BCDR |= (uint16_t)USB_BCDR_DPPU;
 1873              		.loc 1 653 3 view .LVU564
 1874              		.loc 1 653 14 is_stmt 0 view .LVU565
 1875 0000 5822     		movs	r2, #88
 1876 0002 835A     		ldrh	r3, [r0, r2]
 1877 0004 0249     		ldr	r1, .L68
 1878 0006 0B43     		orrs	r3, r1
 1879 0008 9BB2     		uxth	r3, r3
 1880 000a 8352     		strh	r3, [r0, r2]
 654:Drivers/STM32L0xx_HAL_Driver/Src/stm32l0xx_ll_usb.c **** 
 655:Drivers/STM32L0xx_HAL_Driver/Src/stm32l0xx_ll_usb.c ****   return HAL_OK;
 1881              		.loc 1 655 3 is_stmt 1 view .LVU566
 656:Drivers/STM32L0xx_HAL_Driver/Src/stm32l0xx_ll_usb.c **** }
 1882              		.loc 1 656 1 is_stmt 0 view .LVU567
 1883 000c 0020     		movs	r0, #0
 1884              	.LVL197:
 1885              		.loc 1 656 1 view .LVU568
 1886              		@ sp needed
 1887 000e 7047     		bx	lr
 1888              	.L69:
 1889              		.align	2
ARM GAS  /tmp/ccSuEEYJ.s 			page 50


 1890              	.L68:
 1891 0010 0080FFFF 		.word	-32768
 1892              		.cfi_endproc
 1893              	.LFE46:
 1895              		.section	.text.USB_DevDisconnect,"ax",%progbits
 1896              		.align	1
 1897              		.global	USB_DevDisconnect
 1898              		.syntax unified
 1899              		.code	16
 1900              		.thumb_func
 1902              	USB_DevDisconnect:
 1903              	.LVL198:
 1904              	.LFB47:
 657:Drivers/STM32L0xx_HAL_Driver/Src/stm32l0xx_ll_usb.c **** 
 658:Drivers/STM32L0xx_HAL_Driver/Src/stm32l0xx_ll_usb.c **** /**
 659:Drivers/STM32L0xx_HAL_Driver/Src/stm32l0xx_ll_usb.c ****   * @brief  USB_DevDisconnect Disconnect the USB device by disabling the pull-up/pull-down
 660:Drivers/STM32L0xx_HAL_Driver/Src/stm32l0xx_ll_usb.c ****   * @param  USBx Selected device
 661:Drivers/STM32L0xx_HAL_Driver/Src/stm32l0xx_ll_usb.c ****   * @retval HAL status
 662:Drivers/STM32L0xx_HAL_Driver/Src/stm32l0xx_ll_usb.c ****   */
 663:Drivers/STM32L0xx_HAL_Driver/Src/stm32l0xx_ll_usb.c **** HAL_StatusTypeDef  USB_DevDisconnect(USB_TypeDef *USBx)
 664:Drivers/STM32L0xx_HAL_Driver/Src/stm32l0xx_ll_usb.c **** {
 1905              		.loc 1 664 1 is_stmt 1 view -0
 1906              		.cfi_startproc
 1907              		@ args = 0, pretend = 0, frame = 0
 1908              		@ frame_needed = 0, uses_anonymous_args = 0
 1909              		@ link register save eliminated.
 665:Drivers/STM32L0xx_HAL_Driver/Src/stm32l0xx_ll_usb.c ****   /* Disable DP Pull-Up bit to disconnect the Internal PU resistor on USB DP line */
 666:Drivers/STM32L0xx_HAL_Driver/Src/stm32l0xx_ll_usb.c ****   USBx->BCDR &= (uint16_t)(~(USB_BCDR_DPPU));
 1910              		.loc 1 666 3 view .LVU570
 1911              		.loc 1 666 14 is_stmt 0 view .LVU571
 1912 0000 5822     		movs	r2, #88
 1913 0002 835A     		ldrh	r3, [r0, r2]
 1914 0004 5B04     		lsls	r3, r3, #17
 1915 0006 5B0C     		lsrs	r3, r3, #17
 1916 0008 8352     		strh	r3, [r0, r2]
 667:Drivers/STM32L0xx_HAL_Driver/Src/stm32l0xx_ll_usb.c **** 
 668:Drivers/STM32L0xx_HAL_Driver/Src/stm32l0xx_ll_usb.c ****   return HAL_OK;
 1917              		.loc 1 668 3 is_stmt 1 view .LVU572
 669:Drivers/STM32L0xx_HAL_Driver/Src/stm32l0xx_ll_usb.c **** }
 1918              		.loc 1 669 1 is_stmt 0 view .LVU573
 1919 000a 0020     		movs	r0, #0
 1920              	.LVL199:
 1921              		.loc 1 669 1 view .LVU574
 1922              		@ sp needed
 1923 000c 7047     		bx	lr
 1924              		.cfi_endproc
 1925              	.LFE47:
 1927              		.section	.text.USB_ReadInterrupts,"ax",%progbits
 1928              		.align	1
 1929              		.global	USB_ReadInterrupts
 1930              		.syntax unified
 1931              		.code	16
 1932              		.thumb_func
 1934              	USB_ReadInterrupts:
 1935              	.LVL200:
 1936              	.LFB48:
 670:Drivers/STM32L0xx_HAL_Driver/Src/stm32l0xx_ll_usb.c **** 
ARM GAS  /tmp/ccSuEEYJ.s 			page 51


 671:Drivers/STM32L0xx_HAL_Driver/Src/stm32l0xx_ll_usb.c **** /**
 672:Drivers/STM32L0xx_HAL_Driver/Src/stm32l0xx_ll_usb.c ****   * @brief  USB_ReadInterrupts return the global USB interrupt status
 673:Drivers/STM32L0xx_HAL_Driver/Src/stm32l0xx_ll_usb.c ****   * @param  USBx Selected device
 674:Drivers/STM32L0xx_HAL_Driver/Src/stm32l0xx_ll_usb.c ****   * @retval HAL status
 675:Drivers/STM32L0xx_HAL_Driver/Src/stm32l0xx_ll_usb.c ****   */
 676:Drivers/STM32L0xx_HAL_Driver/Src/stm32l0xx_ll_usb.c **** uint32_t  USB_ReadInterrupts(USB_TypeDef *USBx)
 677:Drivers/STM32L0xx_HAL_Driver/Src/stm32l0xx_ll_usb.c **** {
 1937              		.loc 1 677 1 is_stmt 1 view -0
 1938              		.cfi_startproc
 1939              		@ args = 0, pretend = 0, frame = 0
 1940              		@ frame_needed = 0, uses_anonymous_args = 0
 1941              		@ link register save eliminated.
 678:Drivers/STM32L0xx_HAL_Driver/Src/stm32l0xx_ll_usb.c ****   uint32_t tmpreg;
 1942              		.loc 1 678 3 view .LVU576
 679:Drivers/STM32L0xx_HAL_Driver/Src/stm32l0xx_ll_usb.c **** 
 680:Drivers/STM32L0xx_HAL_Driver/Src/stm32l0xx_ll_usb.c ****   tmpreg = USBx->ISTR;
 1943              		.loc 1 680 3 view .LVU577
 1944              		.loc 1 680 16 is_stmt 0 view .LVU578
 1945 0000 4423     		movs	r3, #68
 1946 0002 C05A     		ldrh	r0, [r0, r3]
 1947              	.LVL201:
 1948              		.loc 1 680 16 view .LVU579
 1949 0004 80B2     		uxth	r0, r0
 1950              	.LVL202:
 681:Drivers/STM32L0xx_HAL_Driver/Src/stm32l0xx_ll_usb.c ****   return tmpreg;
 1951              		.loc 1 681 3 is_stmt 1 view .LVU580
 682:Drivers/STM32L0xx_HAL_Driver/Src/stm32l0xx_ll_usb.c **** }
 1952              		.loc 1 682 1 is_stmt 0 view .LVU581
 1953              		@ sp needed
 1954 0006 7047     		bx	lr
 1955              		.cfi_endproc
 1956              	.LFE48:
 1958              		.section	.text.USB_ActivateRemoteWakeup,"ax",%progbits
 1959              		.align	1
 1960              		.global	USB_ActivateRemoteWakeup
 1961              		.syntax unified
 1962              		.code	16
 1963              		.thumb_func
 1965              	USB_ActivateRemoteWakeup:
 1966              	.LVL203:
 1967              	.LFB49:
 683:Drivers/STM32L0xx_HAL_Driver/Src/stm32l0xx_ll_usb.c **** 
 684:Drivers/STM32L0xx_HAL_Driver/Src/stm32l0xx_ll_usb.c **** /**
 685:Drivers/STM32L0xx_HAL_Driver/Src/stm32l0xx_ll_usb.c ****   * @brief  USB_ActivateRemoteWakeup : active remote wakeup signalling
 686:Drivers/STM32L0xx_HAL_Driver/Src/stm32l0xx_ll_usb.c ****   * @param  USBx Selected device
 687:Drivers/STM32L0xx_HAL_Driver/Src/stm32l0xx_ll_usb.c ****   * @retval HAL status
 688:Drivers/STM32L0xx_HAL_Driver/Src/stm32l0xx_ll_usb.c ****   */
 689:Drivers/STM32L0xx_HAL_Driver/Src/stm32l0xx_ll_usb.c **** HAL_StatusTypeDef USB_ActivateRemoteWakeup(USB_TypeDef *USBx)
 690:Drivers/STM32L0xx_HAL_Driver/Src/stm32l0xx_ll_usb.c **** {
 1968              		.loc 1 690 1 is_stmt 1 view -0
 1969              		.cfi_startproc
 1970              		@ args = 0, pretend = 0, frame = 0
 1971              		@ frame_needed = 0, uses_anonymous_args = 0
 1972              		@ link register save eliminated.
 691:Drivers/STM32L0xx_HAL_Driver/Src/stm32l0xx_ll_usb.c ****   USBx->CNTR |= (uint16_t)USB_CNTR_RESUME;
 1973              		.loc 1 691 3 view .LVU583
 1974              		.loc 1 691 14 is_stmt 0 view .LVU584
ARM GAS  /tmp/ccSuEEYJ.s 			page 52


 1975 0000 4022     		movs	r2, #64
 1976 0002 835A     		ldrh	r3, [r0, r2]
 1977 0004 1021     		movs	r1, #16
 1978 0006 0B43     		orrs	r3, r1
 1979 0008 9BB2     		uxth	r3, r3
 1980 000a 8352     		strh	r3, [r0, r2]
 692:Drivers/STM32L0xx_HAL_Driver/Src/stm32l0xx_ll_usb.c **** 
 693:Drivers/STM32L0xx_HAL_Driver/Src/stm32l0xx_ll_usb.c ****   return HAL_OK;
 1981              		.loc 1 693 3 is_stmt 1 view .LVU585
 694:Drivers/STM32L0xx_HAL_Driver/Src/stm32l0xx_ll_usb.c **** }
 1982              		.loc 1 694 1 is_stmt 0 view .LVU586
 1983 000c 0020     		movs	r0, #0
 1984              	.LVL204:
 1985              		.loc 1 694 1 view .LVU587
 1986              		@ sp needed
 1987 000e 7047     		bx	lr
 1988              		.cfi_endproc
 1989              	.LFE49:
 1991              		.section	.text.USB_DeActivateRemoteWakeup,"ax",%progbits
 1992              		.align	1
 1993              		.global	USB_DeActivateRemoteWakeup
 1994              		.syntax unified
 1995              		.code	16
 1996              		.thumb_func
 1998              	USB_DeActivateRemoteWakeup:
 1999              	.LVL205:
 2000              	.LFB50:
 695:Drivers/STM32L0xx_HAL_Driver/Src/stm32l0xx_ll_usb.c **** 
 696:Drivers/STM32L0xx_HAL_Driver/Src/stm32l0xx_ll_usb.c **** /**
 697:Drivers/STM32L0xx_HAL_Driver/Src/stm32l0xx_ll_usb.c ****   * @brief  USB_DeActivateRemoteWakeup de-active remote wakeup signalling
 698:Drivers/STM32L0xx_HAL_Driver/Src/stm32l0xx_ll_usb.c ****   * @param  USBx Selected device
 699:Drivers/STM32L0xx_HAL_Driver/Src/stm32l0xx_ll_usb.c ****   * @retval HAL status
 700:Drivers/STM32L0xx_HAL_Driver/Src/stm32l0xx_ll_usb.c ****   */
 701:Drivers/STM32L0xx_HAL_Driver/Src/stm32l0xx_ll_usb.c **** HAL_StatusTypeDef USB_DeActivateRemoteWakeup(USB_TypeDef *USBx)
 702:Drivers/STM32L0xx_HAL_Driver/Src/stm32l0xx_ll_usb.c **** {
 2001              		.loc 1 702 1 is_stmt 1 view -0
 2002              		.cfi_startproc
 2003              		@ args = 0, pretend = 0, frame = 0
 2004              		@ frame_needed = 0, uses_anonymous_args = 0
 2005              		@ link register save eliminated.
 703:Drivers/STM32L0xx_HAL_Driver/Src/stm32l0xx_ll_usb.c ****   USBx->CNTR &= (uint16_t)(~USB_CNTR_RESUME);
 2006              		.loc 1 703 3 view .LVU589
 2007              		.loc 1 703 14 is_stmt 0 view .LVU590
 2008 0000 4022     		movs	r2, #64
 2009 0002 835A     		ldrh	r3, [r0, r2]
 2010 0004 1021     		movs	r1, #16
 2011 0006 8B43     		bics	r3, r1
 2012 0008 8352     		strh	r3, [r0, r2]
 704:Drivers/STM32L0xx_HAL_Driver/Src/stm32l0xx_ll_usb.c **** 
 705:Drivers/STM32L0xx_HAL_Driver/Src/stm32l0xx_ll_usb.c ****   return HAL_OK;
 2013              		.loc 1 705 3 is_stmt 1 view .LVU591
 706:Drivers/STM32L0xx_HAL_Driver/Src/stm32l0xx_ll_usb.c **** }
 2014              		.loc 1 706 1 is_stmt 0 view .LVU592
 2015 000a 0020     		movs	r0, #0
 2016              	.LVL206:
 2017              		.loc 1 706 1 view .LVU593
 2018              		@ sp needed
ARM GAS  /tmp/ccSuEEYJ.s 			page 53


 2019 000c 7047     		bx	lr
 2020              		.cfi_endproc
 2021              	.LFE50:
 2023              		.section	.text.USB_WritePMA,"ax",%progbits
 2024              		.align	1
 2025              		.global	USB_WritePMA
 2026              		.syntax unified
 2027              		.code	16
 2028              		.thumb_func
 2030              	USB_WritePMA:
 2031              	.LVL207:
 2032              	.LFB51:
 707:Drivers/STM32L0xx_HAL_Driver/Src/stm32l0xx_ll_usb.c **** 
 708:Drivers/STM32L0xx_HAL_Driver/Src/stm32l0xx_ll_usb.c **** /**
 709:Drivers/STM32L0xx_HAL_Driver/Src/stm32l0xx_ll_usb.c ****   * @brief Copy a buffer from user memory area to packet memory area (PMA)
 710:Drivers/STM32L0xx_HAL_Driver/Src/stm32l0xx_ll_usb.c ****   * @param   USBx USB peripheral instance register address.
 711:Drivers/STM32L0xx_HAL_Driver/Src/stm32l0xx_ll_usb.c ****   * @param   pbUsrBuf pointer to user memory area.
 712:Drivers/STM32L0xx_HAL_Driver/Src/stm32l0xx_ll_usb.c ****   * @param   wPMABufAddr address into PMA.
 713:Drivers/STM32L0xx_HAL_Driver/Src/stm32l0xx_ll_usb.c ****   * @param   wNBytes no. of bytes to be copied.
 714:Drivers/STM32L0xx_HAL_Driver/Src/stm32l0xx_ll_usb.c ****   * @retval None
 715:Drivers/STM32L0xx_HAL_Driver/Src/stm32l0xx_ll_usb.c ****   */
 716:Drivers/STM32L0xx_HAL_Driver/Src/stm32l0xx_ll_usb.c **** void USB_WritePMA(USB_TypeDef *USBx, uint8_t *pbUsrBuf, uint16_t wPMABufAddr, uint16_t wNBytes)
 717:Drivers/STM32L0xx_HAL_Driver/Src/stm32l0xx_ll_usb.c **** {
 2033              		.loc 1 717 1 is_stmt 1 view -0
 2034              		.cfi_startproc
 2035              		@ args = 0, pretend = 0, frame = 0
 2036              		@ frame_needed = 0, uses_anonymous_args = 0
 2037              		.loc 1 717 1 is_stmt 0 view .LVU595
 2038 0000 10B5     		push	{r4, lr}
 2039              	.LCFI5:
 2040              		.cfi_def_cfa_offset 8
 2041              		.cfi_offset 4, -8
 2042              		.cfi_offset 14, -4
 718:Drivers/STM32L0xx_HAL_Driver/Src/stm32l0xx_ll_usb.c ****   uint32_t n = ((uint32_t)wNBytes + 1U) >> 1;
 2043              		.loc 1 718 3 is_stmt 1 view .LVU596
 2044              		.loc 1 718 35 is_stmt 0 view .LVU597
 2045 0002 0133     		adds	r3, r3, #1
 2046              	.LVL208:
 2047              		.loc 1 718 12 view .LVU598
 2048 0004 5C08     		lsrs	r4, r3, #1
 2049              	.LVL209:
 719:Drivers/STM32L0xx_HAL_Driver/Src/stm32l0xx_ll_usb.c ****   uint32_t BaseAddr = (uint32_t)USBx;
 2050              		.loc 1 719 3 is_stmt 1 view .LVU599
 720:Drivers/STM32L0xx_HAL_Driver/Src/stm32l0xx_ll_usb.c ****   uint32_t i, temp1, temp2;
 2051              		.loc 1 720 3 view .LVU600
 721:Drivers/STM32L0xx_HAL_Driver/Src/stm32l0xx_ll_usb.c ****   __IO uint16_t *pdwVal;
 2052              		.loc 1 721 3 view .LVU601
 722:Drivers/STM32L0xx_HAL_Driver/Src/stm32l0xx_ll_usb.c ****   uint8_t *pBuf = pbUsrBuf;
 2053              		.loc 1 722 3 view .LVU602
 723:Drivers/STM32L0xx_HAL_Driver/Src/stm32l0xx_ll_usb.c **** 
 724:Drivers/STM32L0xx_HAL_Driver/Src/stm32l0xx_ll_usb.c ****   pdwVal = (__IO uint16_t *)(BaseAddr + 0x400U + ((uint32_t)wPMABufAddr * PMA_ACCESS));
 2054              		.loc 1 724 3 view .LVU603
 2055              		.loc 1 724 48 is_stmt 0 view .LVU604
 2056 0006 1218     		adds	r2, r2, r0
 2057              	.LVL210:
 2058              		.loc 1 724 48 view .LVU605
 2059 0008 8023     		movs	r3, #128
ARM GAS  /tmp/ccSuEEYJ.s 			page 54


 2060 000a DB00     		lsls	r3, r3, #3
 2061 000c 9C46     		mov	ip, r3
 2062 000e 6244     		add	r2, r2, ip
 2063              	.LVL211:
 725:Drivers/STM32L0xx_HAL_Driver/Src/stm32l0xx_ll_usb.c **** 
 726:Drivers/STM32L0xx_HAL_Driver/Src/stm32l0xx_ll_usb.c ****   for (i = n; i != 0U; i--)
 2064              		.loc 1 726 3 is_stmt 1 view .LVU606
 2065              		.loc 1 726 3 is_stmt 0 view .LVU607
 2066 0010 07E0     		b	.L75
 2067              	.LVL212:
 2068              	.L76:
 727:Drivers/STM32L0xx_HAL_Driver/Src/stm32l0xx_ll_usb.c ****   {
 728:Drivers/STM32L0xx_HAL_Driver/Src/stm32l0xx_ll_usb.c ****     temp1 = *pBuf;
 2069              		.loc 1 728 5 is_stmt 1 discriminator 3 view .LVU608
 2070              		.loc 1 728 13 is_stmt 0 discriminator 3 view .LVU609
 2071 0012 0878     		ldrb	r0, [r1]
 2072              	.LVL213:
 729:Drivers/STM32L0xx_HAL_Driver/Src/stm32l0xx_ll_usb.c ****     pBuf++;
 2073              		.loc 1 729 5 is_stmt 1 discriminator 3 view .LVU610
 730:Drivers/STM32L0xx_HAL_Driver/Src/stm32l0xx_ll_usb.c ****     temp2 = temp1 | ((uint16_t)((uint16_t) *pBuf << 8));
 2074              		.loc 1 730 5 discriminator 3 view .LVU611
 2075              		.loc 1 730 44 is_stmt 0 discriminator 3 view .LVU612
 2076 0014 4B78     		ldrb	r3, [r1, #1]
 2077              		.loc 1 730 22 discriminator 3 view .LVU613
 2078 0016 1B02     		lsls	r3, r3, #8
 2079              	.LVL214:
 731:Drivers/STM32L0xx_HAL_Driver/Src/stm32l0xx_ll_usb.c ****     *pdwVal = (uint16_t)temp2;
 2080              		.loc 1 731 5 is_stmt 1 discriminator 3 view .LVU614
 2081              		.loc 1 731 15 is_stmt 0 discriminator 3 view .LVU615
 2082 0018 0343     		orrs	r3, r0
 2083              	.LVL215:
 2084              		.loc 1 731 13 discriminator 3 view .LVU616
 2085 001a 1380     		strh	r3, [r2]
 732:Drivers/STM32L0xx_HAL_Driver/Src/stm32l0xx_ll_usb.c ****     pdwVal++;
 2086              		.loc 1 732 5 is_stmt 1 discriminator 3 view .LVU617
 2087              		.loc 1 732 11 is_stmt 0 discriminator 3 view .LVU618
 2088 001c 0232     		adds	r2, r2, #2
 2089              	.LVL216:
 733:Drivers/STM32L0xx_HAL_Driver/Src/stm32l0xx_ll_usb.c **** 
 734:Drivers/STM32L0xx_HAL_Driver/Src/stm32l0xx_ll_usb.c **** #if PMA_ACCESS > 1U
 735:Drivers/STM32L0xx_HAL_Driver/Src/stm32l0xx_ll_usb.c ****     pdwVal++;
 736:Drivers/STM32L0xx_HAL_Driver/Src/stm32l0xx_ll_usb.c **** #endif
 737:Drivers/STM32L0xx_HAL_Driver/Src/stm32l0xx_ll_usb.c **** 
 738:Drivers/STM32L0xx_HAL_Driver/Src/stm32l0xx_ll_usb.c ****     pBuf++;
 2090              		.loc 1 738 5 is_stmt 1 discriminator 3 view .LVU619
 2091              		.loc 1 738 9 is_stmt 0 discriminator 3 view .LVU620
 2092 001e 0231     		adds	r1, r1, #2
 2093              	.LVL217:
 726:Drivers/STM32L0xx_HAL_Driver/Src/stm32l0xx_ll_usb.c ****   {
 2094              		.loc 1 726 24 is_stmt 1 discriminator 3 view .LVU621
 726:Drivers/STM32L0xx_HAL_Driver/Src/stm32l0xx_ll_usb.c ****   {
 2095              		.loc 1 726 25 is_stmt 0 discriminator 3 view .LVU622
 2096 0020 013C     		subs	r4, r4, #1
 2097              	.LVL218:
 2098              	.L75:
 726:Drivers/STM32L0xx_HAL_Driver/Src/stm32l0xx_ll_usb.c ****   {
 2099              		.loc 1 726 15 is_stmt 1 discriminator 1 view .LVU623
ARM GAS  /tmp/ccSuEEYJ.s 			page 55


 726:Drivers/STM32L0xx_HAL_Driver/Src/stm32l0xx_ll_usb.c ****   {
 2100              		.loc 1 726 3 is_stmt 0 discriminator 1 view .LVU624
 2101 0022 002C     		cmp	r4, #0
 2102 0024 F5D1     		bne	.L76
 739:Drivers/STM32L0xx_HAL_Driver/Src/stm32l0xx_ll_usb.c ****   }
 740:Drivers/STM32L0xx_HAL_Driver/Src/stm32l0xx_ll_usb.c **** }
 2103              		.loc 1 740 1 view .LVU625
 2104              		@ sp needed
 2105              	.LVL219:
 2106              		.loc 1 740 1 view .LVU626
 2107 0026 10BD     		pop	{r4, pc}
 2108              		.cfi_endproc
 2109              	.LFE51:
 2111              		.section	.text.USB_EPStartXfer,"ax",%progbits
 2112              		.align	1
 2113              		.global	USB_EPStartXfer
 2114              		.syntax unified
 2115              		.code	16
 2116              		.thumb_func
 2118              	USB_EPStartXfer:
 2119              	.LVL220:
 2120              	.LFB41:
 353:Drivers/STM32L0xx_HAL_Driver/Src/stm32l0xx_ll_usb.c ****   uint32_t len;
 2121              		.loc 1 353 1 is_stmt 1 view -0
 2122              		.cfi_startproc
 2123              		@ args = 0, pretend = 0, frame = 0
 2124              		@ frame_needed = 0, uses_anonymous_args = 0
 353:Drivers/STM32L0xx_HAL_Driver/Src/stm32l0xx_ll_usb.c ****   uint32_t len;
 2125              		.loc 1 353 1 is_stmt 0 view .LVU628
 2126 0000 70B5     		push	{r4, r5, r6, lr}
 2127              	.LCFI6:
 2128              		.cfi_def_cfa_offset 16
 2129              		.cfi_offset 4, -16
 2130              		.cfi_offset 5, -12
 2131              		.cfi_offset 6, -8
 2132              		.cfi_offset 14, -4
 2133 0002 0500     		movs	r5, r0
 2134 0004 0C00     		movs	r4, r1
 354:Drivers/STM32L0xx_HAL_Driver/Src/stm32l0xx_ll_usb.c ****   uint16_t pmabuffer;
 2135              		.loc 1 354 3 is_stmt 1 view .LVU629
 355:Drivers/STM32L0xx_HAL_Driver/Src/stm32l0xx_ll_usb.c ****   uint16_t wEPVal;
 2136              		.loc 1 355 3 view .LVU630
 356:Drivers/STM32L0xx_HAL_Driver/Src/stm32l0xx_ll_usb.c **** 
 2137              		.loc 1 356 3 view .LVU631
 359:Drivers/STM32L0xx_HAL_Driver/Src/stm32l0xx_ll_usb.c ****   {
 2138              		.loc 1 359 3 view .LVU632
 359:Drivers/STM32L0xx_HAL_Driver/Src/stm32l0xx_ll_usb.c ****   {
 2139              		.loc 1 359 9 is_stmt 0 view .LVU633
 2140 0006 4A78     		ldrb	r2, [r1, #1]
 359:Drivers/STM32L0xx_HAL_Driver/Src/stm32l0xx_ll_usb.c ****   {
 2141              		.loc 1 359 6 view .LVU634
 2142 0008 012A     		cmp	r2, #1
 2143 000a 2ED0     		beq	.L163
 489:Drivers/STM32L0xx_HAL_Driver/Src/stm32l0xx_ll_usb.c ****     {
 2144              		.loc 1 489 5 is_stmt 1 view .LVU635
 489:Drivers/STM32L0xx_HAL_Driver/Src/stm32l0xx_ll_usb.c ****     {
 2145              		.loc 1 489 11 is_stmt 0 view .LVU636
ARM GAS  /tmp/ccSuEEYJ.s 			page 56


 2146 000c 0B7B     		ldrb	r3, [r1, #12]
 489:Drivers/STM32L0xx_HAL_Driver/Src/stm32l0xx_ll_usb.c ****     {
 2147              		.loc 1 489 8 view .LVU637
 2148 000e 002B     		cmp	r3, #0
 2149 0010 00D0     		beq	.LCB2199
 2150 0012 67E2     		b	.L129	@long jump
 2151              	.LCB2199:
 492:Drivers/STM32L0xx_HAL_Driver/Src/stm32l0xx_ll_usb.c ****       {
 2152              		.loc 1 492 7 is_stmt 1 view .LVU638
 492:Drivers/STM32L0xx_HAL_Driver/Src/stm32l0xx_ll_usb.c ****       {
 2153              		.loc 1 492 13 is_stmt 0 view .LVU639
 2154 0014 8B69     		ldr	r3, [r1, #24]
 492:Drivers/STM32L0xx_HAL_Driver/Src/stm32l0xx_ll_usb.c ****       {
 2155              		.loc 1 492 28 view .LVU640
 2156 0016 0969     		ldr	r1, [r1, #16]
 2157              	.LVL221:
 492:Drivers/STM32L0xx_HAL_Driver/Src/stm32l0xx_ll_usb.c ****       {
 2158              		.loc 1 492 10 view .LVU641
 2159 0018 8B42     		cmp	r3, r1
 2160 001a 00D8     		bhi	.LCB2205
 2161 001c 49E2     		b	.L130	@long jump
 2162              	.LCB2205:
 494:Drivers/STM32L0xx_HAL_Driver/Src/stm32l0xx_ll_usb.c ****         ep->xfer_len -= len;
 2163              		.loc 1 494 9 is_stmt 1 view .LVU642
 2164              	.LVL222:
 495:Drivers/STM32L0xx_HAL_Driver/Src/stm32l0xx_ll_usb.c ****       }
 2165              		.loc 1 495 9 view .LVU643
 495:Drivers/STM32L0xx_HAL_Driver/Src/stm32l0xx_ll_usb.c ****       }
 2166              		.loc 1 495 22 is_stmt 0 view .LVU644
 2167 001e 5B1A     		subs	r3, r3, r1
 2168 0020 A361     		str	r3, [r4, #24]
 2169              	.L131:
 503:Drivers/STM32L0xx_HAL_Driver/Src/stm32l0xx_ll_usb.c ****     }
 2170              		.loc 1 503 7 is_stmt 1 view .LVU645
 2171              	.LBB60:
 503:Drivers/STM32L0xx_HAL_Driver/Src/stm32l0xx_ll_usb.c ****     }
 2172              		.loc 1 503 7 view .LVU646
 2173              	.LVL223:
 503:Drivers/STM32L0xx_HAL_Driver/Src/stm32l0xx_ll_usb.c ****     }
 2174              		.loc 1 503 7 view .LVU647
 503:Drivers/STM32L0xx_HAL_Driver/Src/stm32l0xx_ll_usb.c ****     }
 2175              		.loc 1 503 7 view .LVU648
 2176 0022 5023     		movs	r3, #80
 2177 0024 E85A     		ldrh	r0, [r5, r3]
 2178              	.LVL224:
 503:Drivers/STM32L0xx_HAL_Driver/Src/stm32l0xx_ll_usb.c ****     }
 2179              		.loc 1 503 7 is_stmt 0 view .LVU649
 2180 0026 2818     		adds	r0, r5, r0
 2181              	.LVL225:
 503:Drivers/STM32L0xx_HAL_Driver/Src/stm32l0xx_ll_usb.c ****     }
 2182              		.loc 1 503 7 is_stmt 1 view .LVU650
 2183 0028 2378     		ldrb	r3, [r4]
 2184 002a DB00     		lsls	r3, r3, #3
 2185 002c 1B18     		adds	r3, r3, r0
 2186 002e B94A     		ldr	r2, .L172
 2187 0030 9446     		mov	ip, r2
 2188 0032 6344     		add	r3, r3, ip
ARM GAS  /tmp/ccSuEEYJ.s 			page 57


 2189              	.LVL226:
 503:Drivers/STM32L0xx_HAL_Driver/Src/stm32l0xx_ll_usb.c ****     }
 2190              		.loc 1 503 7 view .LVU651
 2191              	.LBB61:
 503:Drivers/STM32L0xx_HAL_Driver/Src/stm32l0xx_ll_usb.c ****     }
 2192              		.loc 1 503 7 view .LVU652
 503:Drivers/STM32L0xx_HAL_Driver/Src/stm32l0xx_ll_usb.c ****     }
 2193              		.loc 1 503 7 view .LVU653
 2194 0034 0029     		cmp	r1, #0
 2195 0036 00D0     		beq	.LCB2241
 2196 0038 3FE2     		b	.L132	@long jump
 2197              	.LCB2241:
 503:Drivers/STM32L0xx_HAL_Driver/Src/stm32l0xx_ll_usb.c ****     }
 2198              		.loc 1 503 7 discriminator 1 view .LVU654
 2199 003a 1A88     		ldrh	r2, [r3]
 2200 003c B649     		ldr	r1, .L172+4
 2201              	.LVL227:
 503:Drivers/STM32L0xx_HAL_Driver/Src/stm32l0xx_ll_usb.c ****     }
 2202              		.loc 1 503 7 is_stmt 0 discriminator 1 view .LVU655
 2203 003e 0A40     		ands	r2, r1
 2204 0040 1A80     		strh	r2, [r3]
 503:Drivers/STM32L0xx_HAL_Driver/Src/stm32l0xx_ll_usb.c ****     }
 2205              		.loc 1 503 7 is_stmt 1 discriminator 1 view .LVU656
 2206 0042 1A88     		ldrh	r2, [r3]
 2207 0044 B549     		ldr	r1, .L172+8
 2208 0046 0A43     		orrs	r2, r1
 2209 0048 92B2     		uxth	r2, r2
 2210 004a 1A80     		strh	r2, [r3]
 2211              	.LVL228:
 2212              	.L133:
 503:Drivers/STM32L0xx_HAL_Driver/Src/stm32l0xx_ll_usb.c ****     }
 2213              		.loc 1 503 7 is_stmt 0 discriminator 1 view .LVU657
 2214              	.LBE61:
 2215              	.LBE60:
 549:Drivers/STM32L0xx_HAL_Driver/Src/stm32l0xx_ll_usb.c ****   }
 2216              		.loc 1 549 5 is_stmt 1 view .LVU658
 2217              	.LBB63:
 549:Drivers/STM32L0xx_HAL_Driver/Src/stm32l0xx_ll_usb.c ****   }
 2218              		.loc 1 549 5 view .LVU659
 549:Drivers/STM32L0xx_HAL_Driver/Src/stm32l0xx_ll_usb.c ****   }
 2219              		.loc 1 549 5 view .LVU660
 2220 004c 2078     		ldrb	r0, [r4]
 2221 004e 8000     		lsls	r0, r0, #2
 2222 0050 2D18     		adds	r5, r5, r0
 2223              	.LVL229:
 549:Drivers/STM32L0xx_HAL_Driver/Src/stm32l0xx_ll_usb.c ****   }
 2224              		.loc 1 549 5 is_stmt 0 view .LVU661
 2225 0052 2A88     		ldrh	r2, [r5]
 2226 0054 B24B     		ldr	r3, .L172+12
 2227 0056 1A40     		ands	r2, r3
 2228              	.LVL230:
 549:Drivers/STM32L0xx_HAL_Driver/Src/stm32l0xx_ll_usb.c ****   }
 2229              		.loc 1 549 5 is_stmt 1 view .LVU662
 549:Drivers/STM32L0xx_HAL_Driver/Src/stm32l0xx_ll_usb.c ****   }
 2230              		.loc 1 549 5 view .LVU663
 549:Drivers/STM32L0xx_HAL_Driver/Src/stm32l0xx_ll_usb.c ****   }
 2231              		.loc 1 549 5 view .LVU664
ARM GAS  /tmp/ccSuEEYJ.s 			page 58


 549:Drivers/STM32L0xx_HAL_Driver/Src/stm32l0xx_ll_usb.c ****   }
 2232              		.loc 1 549 5 view .LVU665
 2233 0058 C023     		movs	r3, #192
 2234 005a 9B01     		lsls	r3, r3, #6
 2235 005c 5A40     		eors	r2, r3
 2236              	.LVL231:
 549:Drivers/STM32L0xx_HAL_Driver/Src/stm32l0xx_ll_usb.c ****   }
 2237              		.loc 1 549 5 view .LVU666
 2238 005e B14B     		ldr	r3, .L172+16
 2239 0060 1343     		orrs	r3, r2
 2240 0062 9BB2     		uxth	r3, r3
 2241 0064 2B80     		strh	r3, [r5]
 2242              	.LBE63:
 552:Drivers/STM32L0xx_HAL_Driver/Src/stm32l0xx_ll_usb.c **** }
 2243              		.loc 1 552 10 is_stmt 0 view .LVU667
 2244 0066 0020     		movs	r0, #0
 2245              	.LVL232:
 2246              	.L128:
 553:Drivers/STM32L0xx_HAL_Driver/Src/stm32l0xx_ll_usb.c **** 
 2247              		.loc 1 553 1 view .LVU668
 2248              		@ sp needed
 2249              	.LVL233:
 553:Drivers/STM32L0xx_HAL_Driver/Src/stm32l0xx_ll_usb.c **** 
 2250              		.loc 1 553 1 view .LVU669
 2251 0068 70BD     		pop	{r4, r5, r6, pc}
 2252              	.LVL234:
 2253              	.L163:
 362:Drivers/STM32L0xx_HAL_Driver/Src/stm32l0xx_ll_usb.c ****     {
 2254              		.loc 1 362 5 is_stmt 1 view .LVU670
 362:Drivers/STM32L0xx_HAL_Driver/Src/stm32l0xx_ll_usb.c ****     {
 2255              		.loc 1 362 11 is_stmt 0 view .LVU671
 2256 006a 8E69     		ldr	r6, [r1, #24]
 362:Drivers/STM32L0xx_HAL_Driver/Src/stm32l0xx_ll_usb.c ****     {
 2257              		.loc 1 362 26 view .LVU672
 2258 006c 0969     		ldr	r1, [r1, #16]
 2259              	.LVL235:
 362:Drivers/STM32L0xx_HAL_Driver/Src/stm32l0xx_ll_usb.c ****     {
 2260              		.loc 1 362 8 view .LVU673
 2261 006e 8E42     		cmp	r6, r1
 2262 0070 00D9     		bls	.L79
 364:Drivers/STM32L0xx_HAL_Driver/Src/stm32l0xx_ll_usb.c ****     }
 2263              		.loc 1 364 11 view .LVU674
 2264 0072 0E00     		movs	r6, r1
 2265              	.L79:
 2266              	.LVL236:
 372:Drivers/STM32L0xx_HAL_Driver/Src/stm32l0xx_ll_usb.c ****     {
 2267              		.loc 1 372 5 is_stmt 1 view .LVU675
 372:Drivers/STM32L0xx_HAL_Driver/Src/stm32l0xx_ll_usb.c ****     {
 2268              		.loc 1 372 11 is_stmt 0 view .LVU676
 2269 0074 237B     		ldrb	r3, [r4, #12]
 372:Drivers/STM32L0xx_HAL_Driver/Src/stm32l0xx_ll_usb.c ****     {
 2270              		.loc 1 372 8 view .LVU677
 2271 0076 002B     		cmp	r3, #0
 2272 0078 21D0     		beq	.L164
 380:Drivers/STM32L0xx_HAL_Driver/Src/stm32l0xx_ll_usb.c ****       {
 2273              		.loc 1 380 7 is_stmt 1 view .LVU678
 380:Drivers/STM32L0xx_HAL_Driver/Src/stm32l0xx_ll_usb.c ****       {
ARM GAS  /tmp/ccSuEEYJ.s 			page 59


 2274              		.loc 1 380 13 is_stmt 0 view .LVU679
 2275 007a E378     		ldrb	r3, [r4, #3]
 380:Drivers/STM32L0xx_HAL_Driver/Src/stm32l0xx_ll_usb.c ****       {
 2276              		.loc 1 380 10 view .LVU680
 2277 007c 022B     		cmp	r3, #2
 2278 007e 3ED0     		beq	.L165
 467:Drivers/STM32L0xx_HAL_Driver/Src/stm32l0xx_ll_usb.c ****         {
 2279              		.loc 1 467 9 is_stmt 1 view .LVU681
 467:Drivers/STM32L0xx_HAL_Driver/Src/stm32l0xx_ll_usb.c ****         {
 2280              		.loc 1 467 14 is_stmt 0 view .LVU682
 2281 0080 2378     		ldrb	r3, [r4]
 2282 0082 9900     		lsls	r1, r3, #2
 2283 0084 6918     		adds	r1, r5, r1
 2284 0086 0988     		ldrh	r1, [r1]
 467:Drivers/STM32L0xx_HAL_Driver/Src/stm32l0xx_ll_usb.c ****         {
 2285              		.loc 1 467 12 view .LVU683
 2286 0088 4906     		lsls	r1, r1, #25
 2287 008a 00D4     		bmi	.LCB2345
 2288 008c CCE1     		b	.L113	@long jump
 2289              	.LCB2345:
 470:Drivers/STM32L0xx_HAL_Driver/Src/stm32l0xx_ll_usb.c ****           pmabuffer = ep->pmaaddr1;
 2290              		.loc 1 470 11 is_stmt 1 view .LVU684
 2291              	.LBB64:
 470:Drivers/STM32L0xx_HAL_Driver/Src/stm32l0xx_ll_usb.c ****           pmabuffer = ep->pmaaddr1;
 2292              		.loc 1 470 11 view .LVU685
 2293              	.LVL237:
 470:Drivers/STM32L0xx_HAL_Driver/Src/stm32l0xx_ll_usb.c ****           pmabuffer = ep->pmaaddr1;
 2294              		.loc 1 470 11 view .LVU686
 470:Drivers/STM32L0xx_HAL_Driver/Src/stm32l0xx_ll_usb.c ****           pmabuffer = ep->pmaaddr1;
 2295              		.loc 1 470 11 view .LVU687
 2296 008e 002A     		cmp	r2, #0
 2297 0090 00D0     		beq	.LCB2353
 2298 0092 ABE1     		b	.L114	@long jump
 2299              	.LCB2353:
 470:Drivers/STM32L0xx_HAL_Driver/Src/stm32l0xx_ll_usb.c ****           pmabuffer = ep->pmaaddr1;
 2300              		.loc 1 470 11 discriminator 1 view .LVU688
 2301              	.LBB65:
 470:Drivers/STM32L0xx_HAL_Driver/Src/stm32l0xx_ll_usb.c ****           pmabuffer = ep->pmaaddr1;
 2302              		.loc 1 470 11 discriminator 1 view .LVU689
 2303              	.LVL238:
 470:Drivers/STM32L0xx_HAL_Driver/Src/stm32l0xx_ll_usb.c ****           pmabuffer = ep->pmaaddr1;
 2304              		.loc 1 470 11 discriminator 1 view .LVU690
 470:Drivers/STM32L0xx_HAL_Driver/Src/stm32l0xx_ll_usb.c ****           pmabuffer = ep->pmaaddr1;
 2305              		.loc 1 470 11 discriminator 1 view .LVU691
 2306 0094 5032     		adds	r2, r2, #80
 2307 0096 AA5A     		ldrh	r2, [r5, r2]
 2308 0098 AA18     		adds	r2, r5, r2
 2309              	.LVL239:
 470:Drivers/STM32L0xx_HAL_Driver/Src/stm32l0xx_ll_usb.c ****           pmabuffer = ep->pmaaddr1;
 2310              		.loc 1 470 11 discriminator 1 view .LVU692
 2311 009a DB00     		lsls	r3, r3, #3
 2312 009c 9B18     		adds	r3, r3, r2
 2313 009e 9D4A     		ldr	r2, .L172
 2314              	.LVL240:
 470:Drivers/STM32L0xx_HAL_Driver/Src/stm32l0xx_ll_usb.c ****           pmabuffer = ep->pmaaddr1;
 2315              		.loc 1 470 11 is_stmt 0 discriminator 1 view .LVU693
 2316 00a0 9446     		mov	ip, r2
ARM GAS  /tmp/ccSuEEYJ.s 			page 60


 2317 00a2 6344     		add	r3, r3, ip
 2318              	.LVL241:
 470:Drivers/STM32L0xx_HAL_Driver/Src/stm32l0xx_ll_usb.c ****           pmabuffer = ep->pmaaddr1;
 2319              		.loc 1 470 11 is_stmt 1 discriminator 1 view .LVU694
 2320              	.LBB66:
 470:Drivers/STM32L0xx_HAL_Driver/Src/stm32l0xx_ll_usb.c ****           pmabuffer = ep->pmaaddr1;
 2321              		.loc 1 470 11 discriminator 1 view .LVU695
 470:Drivers/STM32L0xx_HAL_Driver/Src/stm32l0xx_ll_usb.c ****           pmabuffer = ep->pmaaddr1;
 2322              		.loc 1 470 11 discriminator 1 view .LVU696
 2323 00a4 002E     		cmp	r6, #0
 2324 00a6 00D0     		beq	.LCB2378
 2325 00a8 8BE1     		b	.L115	@long jump
 2326              	.LCB2378:
 470:Drivers/STM32L0xx_HAL_Driver/Src/stm32l0xx_ll_usb.c ****           pmabuffer = ep->pmaaddr1;
 2327              		.loc 1 470 11 discriminator 3 view .LVU697
 2328 00aa 1A88     		ldrh	r2, [r3]
 2329 00ac 9A49     		ldr	r1, .L172+4
 2330 00ae 0A40     		ands	r2, r1
 2331 00b0 1A80     		strh	r2, [r3]
 470:Drivers/STM32L0xx_HAL_Driver/Src/stm32l0xx_ll_usb.c ****           pmabuffer = ep->pmaaddr1;
 2332              		.loc 1 470 11 discriminator 3 view .LVU698
 2333 00b2 1A88     		ldrh	r2, [r3]
 2334 00b4 9949     		ldr	r1, .L172+8
 2335 00b6 0A43     		orrs	r2, r1
 2336 00b8 92B2     		uxth	r2, r2
 2337 00ba 1A80     		strh	r2, [r3]
 2338 00bc A0E1     		b	.L116
 2339              	.LVL242:
 2340              	.L164:
 470:Drivers/STM32L0xx_HAL_Driver/Src/stm32l0xx_ll_usb.c ****           pmabuffer = ep->pmaaddr1;
 2341              		.loc 1 470 11 is_stmt 0 discriminator 3 view .LVU699
 2342              	.LBE66:
 2343              	.LBE65:
 2344              	.LBE64:
 374:Drivers/STM32L0xx_HAL_Driver/Src/stm32l0xx_ll_usb.c ****       PCD_SET_EP_TX_CNT(USBx, ep->num, len);
 2345              		.loc 1 374 7 is_stmt 1 view .LVU700
 2346 00be B6B2     		uxth	r6, r6
 2347              	.LVL243:
 374:Drivers/STM32L0xx_HAL_Driver/Src/stm32l0xx_ll_usb.c ****       PCD_SET_EP_TX_CNT(USBx, ep->num, len);
 2348              		.loc 1 374 7 is_stmt 0 view .LVU701
 2349 00c0 E288     		ldrh	r2, [r4, #6]
 2350 00c2 3300     		movs	r3, r6
 2351 00c4 6169     		ldr	r1, [r4, #20]
 2352 00c6 2800     		movs	r0, r5
 2353              	.LVL244:
 374:Drivers/STM32L0xx_HAL_Driver/Src/stm32l0xx_ll_usb.c ****       PCD_SET_EP_TX_CNT(USBx, ep->num, len);
 2354              		.loc 1 374 7 view .LVU702
 2355 00c8 FFF7FEFF 		bl	USB_WritePMA
 2356              	.LVL245:
 375:Drivers/STM32L0xx_HAL_Driver/Src/stm32l0xx_ll_usb.c ****     }
 2357              		.loc 1 375 7 is_stmt 1 view .LVU703
 2358              	.LBB69:
 375:Drivers/STM32L0xx_HAL_Driver/Src/stm32l0xx_ll_usb.c ****     }
 2359              		.loc 1 375 7 view .LVU704
 375:Drivers/STM32L0xx_HAL_Driver/Src/stm32l0xx_ll_usb.c ****     }
 2360              		.loc 1 375 7 view .LVU705
 375:Drivers/STM32L0xx_HAL_Driver/Src/stm32l0xx_ll_usb.c ****     }
ARM GAS  /tmp/ccSuEEYJ.s 			page 61


 2361              		.loc 1 375 7 view .LVU706
 2362 00cc 5023     		movs	r3, #80
 2363 00ce E95A     		ldrh	r1, [r5, r3]
 2364 00d0 6918     		adds	r1, r5, r1
 2365              	.LVL246:
 375:Drivers/STM32L0xx_HAL_Driver/Src/stm32l0xx_ll_usb.c ****     }
 2366              		.loc 1 375 7 view .LVU707
 2367 00d2 2378     		ldrb	r3, [r4]
 2368 00d4 DB00     		lsls	r3, r3, #3
 2369 00d6 5B18     		adds	r3, r3, r1
 2370 00d8 934A     		ldr	r2, .L172+20
 2371 00da 9446     		mov	ip, r2
 2372 00dc 6344     		add	r3, r3, ip
 2373              	.LVL247:
 375:Drivers/STM32L0xx_HAL_Driver/Src/stm32l0xx_ll_usb.c ****     }
 2374              		.loc 1 375 7 view .LVU708
 2375 00de 1E80     		strh	r6, [r3]
 2376              	.LBE69:
 375:Drivers/STM32L0xx_HAL_Driver/Src/stm32l0xx_ll_usb.c ****     }
 2377              		.loc 1 375 7 view .LVU709
 2378              	.LVL248:
 2379              	.L81:
 481:Drivers/STM32L0xx_HAL_Driver/Src/stm32l0xx_ll_usb.c ****       }
 2380              		.loc 1 481 9 discriminator 6 view .LVU710
 481:Drivers/STM32L0xx_HAL_Driver/Src/stm32l0xx_ll_usb.c ****       }
 2381              		.loc 1 481 9 discriminator 6 view .LVU711
 485:Drivers/STM32L0xx_HAL_Driver/Src/stm32l0xx_ll_usb.c ****   }
 2382              		.loc 1 485 5 discriminator 6 view .LVU712
 2383              	.LBB70:
 485:Drivers/STM32L0xx_HAL_Driver/Src/stm32l0xx_ll_usb.c ****   }
 2384              		.loc 1 485 5 discriminator 6 view .LVU713
 485:Drivers/STM32L0xx_HAL_Driver/Src/stm32l0xx_ll_usb.c ****   }
 2385              		.loc 1 485 5 discriminator 6 view .LVU714
 2386 00e0 2078     		ldrb	r0, [r4]
 2387 00e2 8000     		lsls	r0, r0, #2
 2388 00e4 2D18     		adds	r5, r5, r0
 2389              	.LVL249:
 485:Drivers/STM32L0xx_HAL_Driver/Src/stm32l0xx_ll_usb.c ****   }
 2390              		.loc 1 485 5 is_stmt 0 discriminator 6 view .LVU715
 2391 00e6 2B88     		ldrh	r3, [r5]
 2392 00e8 904A     		ldr	r2, .L172+24
 2393 00ea 1340     		ands	r3, r2
 2394              	.LVL250:
 485:Drivers/STM32L0xx_HAL_Driver/Src/stm32l0xx_ll_usb.c ****   }
 2395              		.loc 1 485 5 is_stmt 1 discriminator 6 view .LVU716
 485:Drivers/STM32L0xx_HAL_Driver/Src/stm32l0xx_ll_usb.c ****   }
 2396              		.loc 1 485 5 discriminator 6 view .LVU717
 485:Drivers/STM32L0xx_HAL_Driver/Src/stm32l0xx_ll_usb.c ****   }
 2397              		.loc 1 485 5 discriminator 6 view .LVU718
 485:Drivers/STM32L0xx_HAL_Driver/Src/stm32l0xx_ll_usb.c ****   }
 2398              		.loc 1 485 5 discriminator 6 view .LVU719
 2399 00ec 3022     		movs	r2, #48
 2400 00ee 5340     		eors	r3, r2
 2401              	.LVL251:
 485:Drivers/STM32L0xx_HAL_Driver/Src/stm32l0xx_ll_usb.c ****   }
 2402              		.loc 1 485 5 is_stmt 0 discriminator 6 view .LVU720
 2403 00f0 9BB2     		uxth	r3, r3
ARM GAS  /tmp/ccSuEEYJ.s 			page 62


 2404              	.LVL252:
 485:Drivers/STM32L0xx_HAL_Driver/Src/stm32l0xx_ll_usb.c ****   }
 2405              		.loc 1 485 5 is_stmt 1 discriminator 6 view .LVU721
 2406 00f2 8C4A     		ldr	r2, .L172+16
 2407 00f4 1343     		orrs	r3, r2
 2408              	.LVL253:
 485:Drivers/STM32L0xx_HAL_Driver/Src/stm32l0xx_ll_usb.c ****   }
 2409              		.loc 1 485 5 is_stmt 0 discriminator 6 view .LVU722
 2410 00f6 9BB2     		uxth	r3, r3
 2411 00f8 2B80     		strh	r3, [r5]
 2412              	.LBE70:
 485:Drivers/STM32L0xx_HAL_Driver/Src/stm32l0xx_ll_usb.c ****   }
 2413              		.loc 1 485 5 is_stmt 1 discriminator 6 view .LVU723
 552:Drivers/STM32L0xx_HAL_Driver/Src/stm32l0xx_ll_usb.c **** }
 2414              		.loc 1 552 10 is_stmt 0 discriminator 6 view .LVU724
 2415 00fa 0020     		movs	r0, #0
 2416 00fc B4E7     		b	.L128
 2417              	.LVL254:
 2418              	.L165:
 382:Drivers/STM32L0xx_HAL_Driver/Src/stm32l0xx_ll_usb.c ****         {
 2419              		.loc 1 382 9 is_stmt 1 view .LVU725
 382:Drivers/STM32L0xx_HAL_Driver/Src/stm32l0xx_ll_usb.c ****         {
 2420              		.loc 1 382 15 is_stmt 0 view .LVU726
 2421 00fe 236A     		ldr	r3, [r4, #32]
 382:Drivers/STM32L0xx_HAL_Driver/Src/stm32l0xx_ll_usb.c ****         {
 2422              		.loc 1 382 12 view .LVU727
 2423 0100 9942     		cmp	r1, r3
 2424 0102 00D3     		bcc	.LCB2490
 2425 0104 42E1     		b	.L83	@long jump
 2426              	.LCB2490:
 385:Drivers/STM32L0xx_HAL_Driver/Src/stm32l0xx_ll_usb.c **** 
 2427              		.loc 1 385 11 is_stmt 1 view .LVU728
 2428              	.LBB71:
 385:Drivers/STM32L0xx_HAL_Driver/Src/stm32l0xx_ll_usb.c **** 
 2429              		.loc 1 385 11 view .LVU729
 385:Drivers/STM32L0xx_HAL_Driver/Src/stm32l0xx_ll_usb.c **** 
 2430              		.loc 1 385 11 view .LVU730
 2431 0106 2378     		ldrb	r3, [r4]
 2432 0108 9B00     		lsls	r3, r3, #2
 2433 010a EB18     		adds	r3, r5, r3
 2434 010c 1A88     		ldrh	r2, [r3]
 2435 010e 8849     		ldr	r1, .L172+28
 2436 0110 1140     		ands	r1, r2
 2437              	.LVL255:
 385:Drivers/STM32L0xx_HAL_Driver/Src/stm32l0xx_ll_usb.c **** 
 2438              		.loc 1 385 11 view .LVU731
 2439 0112 884A     		ldr	r2, .L172+32
 2440 0114 0A43     		orrs	r2, r1
 2441 0116 92B2     		uxth	r2, r2
 2442 0118 1A80     		strh	r2, [r3]
 2443              	.LBE71:
 385:Drivers/STM32L0xx_HAL_Driver/Src/stm32l0xx_ll_usb.c **** 
 2444              		.loc 1 385 11 view .LVU732
 388:Drivers/STM32L0xx_HAL_Driver/Src/stm32l0xx_ll_usb.c **** 
 2445              		.loc 1 388 11 view .LVU733
 388:Drivers/STM32L0xx_HAL_Driver/Src/stm32l0xx_ll_usb.c **** 
 2446              		.loc 1 388 27 is_stmt 0 view .LVU734
ARM GAS  /tmp/ccSuEEYJ.s 			page 63


 2447 011a 236A     		ldr	r3, [r4, #32]
 2448 011c 9B1B     		subs	r3, r3, r6
 2449 011e 2362     		str	r3, [r4, #32]
 391:Drivers/STM32L0xx_HAL_Driver/Src/stm32l0xx_ll_usb.c ****           {
 2450              		.loc 1 391 11 is_stmt 1 view .LVU735
 391:Drivers/STM32L0xx_HAL_Driver/Src/stm32l0xx_ll_usb.c ****           {
 2451              		.loc 1 391 16 is_stmt 0 view .LVU736
 2452 0120 2378     		ldrb	r3, [r4]
 2453 0122 9A00     		lsls	r2, r3, #2
 2454 0124 AA18     		adds	r2, r5, r2
 2455 0126 1288     		ldrh	r2, [r2]
 391:Drivers/STM32L0xx_HAL_Driver/Src/stm32l0xx_ll_usb.c ****           {
 2456              		.loc 1 391 14 view .LVU737
 2457 0128 5206     		lsls	r2, r2, #25
 2458 012a 00D4     		bmi	.LCB2526
 2459 012c 8DE0     		b	.L84	@long jump
 2460              	.LCB2526:
 394:Drivers/STM32L0xx_HAL_Driver/Src/stm32l0xx_ll_usb.c ****             pmabuffer = ep->pmaaddr1;
 2461              		.loc 1 394 13 is_stmt 1 view .LVU738
 2462              	.LBB72:
 394:Drivers/STM32L0xx_HAL_Driver/Src/stm32l0xx_ll_usb.c ****             pmabuffer = ep->pmaaddr1;
 2463              		.loc 1 394 13 view .LVU739
 2464              	.LVL256:
 394:Drivers/STM32L0xx_HAL_Driver/Src/stm32l0xx_ll_usb.c ****             pmabuffer = ep->pmaaddr1;
 2465              		.loc 1 394 13 view .LVU740
 394:Drivers/STM32L0xx_HAL_Driver/Src/stm32l0xx_ll_usb.c ****             pmabuffer = ep->pmaaddr1;
 2466              		.loc 1 394 13 view .LVU741
 2467 012e 6278     		ldrb	r2, [r4, #1]
 2468 0130 002A     		cmp	r2, #0
 2469 0132 28D1     		bne	.L85
 394:Drivers/STM32L0xx_HAL_Driver/Src/stm32l0xx_ll_usb.c ****             pmabuffer = ep->pmaaddr1;
 2470              		.loc 1 394 13 discriminator 1 view .LVU742
 2471              	.LBB73:
 394:Drivers/STM32L0xx_HAL_Driver/Src/stm32l0xx_ll_usb.c ****             pmabuffer = ep->pmaaddr1;
 2472              		.loc 1 394 13 discriminator 1 view .LVU743
 2473              	.LVL257:
 394:Drivers/STM32L0xx_HAL_Driver/Src/stm32l0xx_ll_usb.c ****             pmabuffer = ep->pmaaddr1;
 2474              		.loc 1 394 13 discriminator 1 view .LVU744
 394:Drivers/STM32L0xx_HAL_Driver/Src/stm32l0xx_ll_usb.c ****             pmabuffer = ep->pmaaddr1;
 2475              		.loc 1 394 13 discriminator 1 view .LVU745
 2476 0134 5032     		adds	r2, r2, #80
 2477 0136 AA5A     		ldrh	r2, [r5, r2]
 2478 0138 AA18     		adds	r2, r5, r2
 2479              	.LVL258:
 394:Drivers/STM32L0xx_HAL_Driver/Src/stm32l0xx_ll_usb.c ****             pmabuffer = ep->pmaaddr1;
 2480              		.loc 1 394 13 discriminator 1 view .LVU746
 2481 013a DB00     		lsls	r3, r3, #3
 2482 013c 9B18     		adds	r3, r3, r2
 2483 013e 754A     		ldr	r2, .L172
 2484              	.LVL259:
 394:Drivers/STM32L0xx_HAL_Driver/Src/stm32l0xx_ll_usb.c ****             pmabuffer = ep->pmaaddr1;
 2485              		.loc 1 394 13 is_stmt 0 discriminator 1 view .LVU747
 2486 0140 9446     		mov	ip, r2
 2487 0142 6344     		add	r3, r3, ip
 2488              	.LVL260:
 394:Drivers/STM32L0xx_HAL_Driver/Src/stm32l0xx_ll_usb.c ****             pmabuffer = ep->pmaaddr1;
 2489              		.loc 1 394 13 is_stmt 1 discriminator 1 view .LVU748
ARM GAS  /tmp/ccSuEEYJ.s 			page 64


 2490              	.LBB74:
 394:Drivers/STM32L0xx_HAL_Driver/Src/stm32l0xx_ll_usb.c ****             pmabuffer = ep->pmaaddr1;
 2491              		.loc 1 394 13 discriminator 1 view .LVU749
 394:Drivers/STM32L0xx_HAL_Driver/Src/stm32l0xx_ll_usb.c ****             pmabuffer = ep->pmaaddr1;
 2492              		.loc 1 394 13 discriminator 1 view .LVU750
 2493 0144 002E     		cmp	r6, #0
 2494 0146 09D1     		bne	.L86
 394:Drivers/STM32L0xx_HAL_Driver/Src/stm32l0xx_ll_usb.c ****             pmabuffer = ep->pmaaddr1;
 2495              		.loc 1 394 13 discriminator 3 view .LVU751
 2496 0148 1A88     		ldrh	r2, [r3]
 2497 014a 7349     		ldr	r1, .L172+4
 2498              	.LVL261:
 394:Drivers/STM32L0xx_HAL_Driver/Src/stm32l0xx_ll_usb.c ****             pmabuffer = ep->pmaaddr1;
 2499              		.loc 1 394 13 is_stmt 0 discriminator 3 view .LVU752
 2500 014c 0A40     		ands	r2, r1
 2501 014e 1A80     		strh	r2, [r3]
 394:Drivers/STM32L0xx_HAL_Driver/Src/stm32l0xx_ll_usb.c ****             pmabuffer = ep->pmaaddr1;
 2502              		.loc 1 394 13 is_stmt 1 discriminator 3 view .LVU753
 2503 0150 1A88     		ldrh	r2, [r3]
 2504 0152 7249     		ldr	r1, .L172+8
 2505 0154 0A43     		orrs	r2, r1
 2506 0156 92B2     		uxth	r2, r2
 2507 0158 1A80     		strh	r2, [r3]
 2508 015a 16E0     		b	.L87
 2509              	.LVL262:
 2510              	.L86:
 394:Drivers/STM32L0xx_HAL_Driver/Src/stm32l0xx_ll_usb.c ****             pmabuffer = ep->pmaaddr1;
 2511              		.loc 1 394 13 discriminator 4 view .LVU754
 2512 015c 3E2E     		cmp	r6, #62
 2513 015e 07D8     		bhi	.L88
 394:Drivers/STM32L0xx_HAL_Driver/Src/stm32l0xx_ll_usb.c ****             pmabuffer = ep->pmaaddr1;
 2514              		.loc 1 394 13 discriminator 6 view .LVU755
 394:Drivers/STM32L0xx_HAL_Driver/Src/stm32l0xx_ll_usb.c ****             pmabuffer = ep->pmaaddr1;
 2515              		.loc 1 394 13 discriminator 6 view .LVU756
 2516 0160 7208     		lsrs	r2, r6, #1
 2517              	.LVL263:
 394:Drivers/STM32L0xx_HAL_Driver/Src/stm32l0xx_ll_usb.c ****             pmabuffer = ep->pmaaddr1;
 2518              		.loc 1 394 13 discriminator 6 view .LVU757
 2519 0162 F107     		lsls	r1, r6, #31
 2520 0164 00D5     		bpl	.L89
 2521              	.LVL264:
 394:Drivers/STM32L0xx_HAL_Driver/Src/stm32l0xx_ll_usb.c ****             pmabuffer = ep->pmaaddr1;
 2522              		.loc 1 394 13 discriminator 8 view .LVU758
 2523 0166 0132     		adds	r2, r2, #1
 2524              	.LVL265:
 2525              	.L89:
 394:Drivers/STM32L0xx_HAL_Driver/Src/stm32l0xx_ll_usb.c ****             pmabuffer = ep->pmaaddr1;
 2526              		.loc 1 394 13 discriminator 10 view .LVU759
 2527 0168 9202     		lsls	r2, r2, #10
 2528              	.LVL266:
 394:Drivers/STM32L0xx_HAL_Driver/Src/stm32l0xx_ll_usb.c ****             pmabuffer = ep->pmaaddr1;
 2529              		.loc 1 394 13 is_stmt 0 discriminator 10 view .LVU760
 2530 016a 92B2     		uxth	r2, r2
 2531 016c 1A80     		strh	r2, [r3]
 394:Drivers/STM32L0xx_HAL_Driver/Src/stm32l0xx_ll_usb.c ****             pmabuffer = ep->pmaaddr1;
 2532              		.loc 1 394 13 is_stmt 1 discriminator 10 view .LVU761
 2533 016e 0CE0     		b	.L87
ARM GAS  /tmp/ccSuEEYJ.s 			page 65


 2534              	.LVL267:
 2535              	.L88:
 394:Drivers/STM32L0xx_HAL_Driver/Src/stm32l0xx_ll_usb.c ****             pmabuffer = ep->pmaaddr1;
 2536              		.loc 1 394 13 discriminator 7 view .LVU762
 394:Drivers/STM32L0xx_HAL_Driver/Src/stm32l0xx_ll_usb.c ****             pmabuffer = ep->pmaaddr1;
 2537              		.loc 1 394 13 discriminator 7 view .LVU763
 2538 0170 7209     		lsrs	r2, r6, #5
 2539              	.LVL268:
 394:Drivers/STM32L0xx_HAL_Driver/Src/stm32l0xx_ll_usb.c ****             pmabuffer = ep->pmaaddr1;
 2540              		.loc 1 394 13 discriminator 7 view .LVU764
 2541 0172 F106     		lsls	r1, r6, #27
 2542 0174 00D1     		bne	.L90
 2543              	.LVL269:
 394:Drivers/STM32L0xx_HAL_Driver/Src/stm32l0xx_ll_usb.c ****             pmabuffer = ep->pmaaddr1;
 2544              		.loc 1 394 13 discriminator 12 view .LVU765
 2545 0176 013A     		subs	r2, r2, #1
 2546              	.LVL270:
 2547              	.L90:
 394:Drivers/STM32L0xx_HAL_Driver/Src/stm32l0xx_ll_usb.c ****             pmabuffer = ep->pmaaddr1;
 2548              		.loc 1 394 13 discriminator 14 view .LVU766
 2549 0178 9202     		lsls	r2, r2, #10
 2550              	.LVL271:
 394:Drivers/STM32L0xx_HAL_Driver/Src/stm32l0xx_ll_usb.c ****             pmabuffer = ep->pmaaddr1;
 2551              		.loc 1 394 13 is_stmt 0 discriminator 14 view .LVU767
 2552 017a 92B2     		uxth	r2, r2
 2553 017c 6749     		ldr	r1, .L172+8
 2554 017e 0A43     		orrs	r2, r1
 2555 0180 92B2     		uxth	r2, r2
 2556 0182 1A80     		strh	r2, [r3]
 2557 0184 01E0     		b	.L87
 2558              	.LVL272:
 2559              	.L85:
 394:Drivers/STM32L0xx_HAL_Driver/Src/stm32l0xx_ll_usb.c ****             pmabuffer = ep->pmaaddr1;
 2560              		.loc 1 394 13 discriminator 14 view .LVU768
 2561              	.LBE74:
 2562              	.LBE73:
 394:Drivers/STM32L0xx_HAL_Driver/Src/stm32l0xx_ll_usb.c ****             pmabuffer = ep->pmaaddr1;
 2563              		.loc 1 394 13 is_stmt 1 discriminator 2 view .LVU769
 2564 0186 012A     		cmp	r2, #1
 2565 0188 26D0     		beq	.L166
 2566              	.LVL273:
 2567              	.L87:
 394:Drivers/STM32L0xx_HAL_Driver/Src/stm32l0xx_ll_usb.c ****             pmabuffer = ep->pmaaddr1;
 2568              		.loc 1 394 13 is_stmt 0 discriminator 2 view .LVU770
 2569              	.LBE72:
 394:Drivers/STM32L0xx_HAL_Driver/Src/stm32l0xx_ll_usb.c ****             pmabuffer = ep->pmaaddr1;
 2570              		.loc 1 394 13 is_stmt 1 discriminator 18 view .LVU771
 395:Drivers/STM32L0xx_HAL_Driver/Src/stm32l0xx_ll_usb.c **** 
 2571              		.loc 1 395 13 discriminator 18 view .LVU772
 395:Drivers/STM32L0xx_HAL_Driver/Src/stm32l0xx_ll_usb.c **** 
 2572              		.loc 1 395 23 is_stmt 0 discriminator 18 view .LVU773
 2573 018a 6289     		ldrh	r2, [r4, #10]
 2574              	.LVL274:
 398:Drivers/STM32L0xx_HAL_Driver/Src/stm32l0xx_ll_usb.c ****             ep->xfer_buff += len;
 2575              		.loc 1 398 13 is_stmt 1 discriminator 18 view .LVU774
 2576 018c B3B2     		uxth	r3, r6
 2577 018e 6169     		ldr	r1, [r4, #20]
ARM GAS  /tmp/ccSuEEYJ.s 			page 66


 2578 0190 2800     		movs	r0, r5
 2579              	.LVL275:
 398:Drivers/STM32L0xx_HAL_Driver/Src/stm32l0xx_ll_usb.c ****             ep->xfer_buff += len;
 2580              		.loc 1 398 13 is_stmt 0 discriminator 18 view .LVU775
 2581 0192 FFF7FEFF 		bl	USB_WritePMA
 2582              	.LVL276:
 399:Drivers/STM32L0xx_HAL_Driver/Src/stm32l0xx_ll_usb.c **** 
 2583              		.loc 1 399 13 is_stmt 1 discriminator 18 view .LVU776
 399:Drivers/STM32L0xx_HAL_Driver/Src/stm32l0xx_ll_usb.c **** 
 2584              		.loc 1 399 27 is_stmt 0 discriminator 18 view .LVU777
 2585 0196 6369     		ldr	r3, [r4, #20]
 2586 0198 9B19     		adds	r3, r3, r6
 2587 019a 6361     		str	r3, [r4, #20]
 401:Drivers/STM32L0xx_HAL_Driver/Src/stm32l0xx_ll_usb.c ****             {
 2588              		.loc 1 401 13 is_stmt 1 discriminator 18 view .LVU778
 401:Drivers/STM32L0xx_HAL_Driver/Src/stm32l0xx_ll_usb.c ****             {
 2589              		.loc 1 401 19 is_stmt 0 discriminator 18 view .LVU779
 2590 019c 236A     		ldr	r3, [r4, #32]
 401:Drivers/STM32L0xx_HAL_Driver/Src/stm32l0xx_ll_usb.c ****             {
 2591              		.loc 1 401 16 discriminator 18 view .LVU780
 2592 019e 2269     		ldr	r2, [r4, #16]
 2593 01a0 9342     		cmp	r3, r2
 2594 01a2 24D9     		bls	.L91
 403:Drivers/STM32L0xx_HAL_Driver/Src/stm32l0xx_ll_usb.c ****             }
 2595              		.loc 1 403 15 is_stmt 1 view .LVU781
 403:Drivers/STM32L0xx_HAL_Driver/Src/stm32l0xx_ll_usb.c ****             }
 2596              		.loc 1 403 31 is_stmt 0 view .LVU782
 2597 01a4 9B1B     		subs	r3, r3, r6
 2598 01a6 2362     		str	r3, [r4, #32]
 2599              	.L92:
 412:Drivers/STM32L0xx_HAL_Driver/Src/stm32l0xx_ll_usb.c ****             pmabuffer = ep->pmaaddr0;
 2600              		.loc 1 412 13 is_stmt 1 view .LVU783
 412:Drivers/STM32L0xx_HAL_Driver/Src/stm32l0xx_ll_usb.c ****             pmabuffer = ep->pmaaddr0;
 2601              		.loc 1 412 13 view .LVU784
 2602 01a8 6378     		ldrb	r3, [r4, #1]
 2603 01aa 002B     		cmp	r3, #0
 2604 01ac 38D1     		bne	.L93
 412:Drivers/STM32L0xx_HAL_Driver/Src/stm32l0xx_ll_usb.c ****             pmabuffer = ep->pmaaddr0;
 2605              		.loc 1 412 13 discriminator 1 view .LVU785
 2606              	.LBB75:
 412:Drivers/STM32L0xx_HAL_Driver/Src/stm32l0xx_ll_usb.c ****             pmabuffer = ep->pmaaddr0;
 2607              		.loc 1 412 13 discriminator 1 view .LVU786
 2608              	.LVL277:
 412:Drivers/STM32L0xx_HAL_Driver/Src/stm32l0xx_ll_usb.c ****             pmabuffer = ep->pmaaddr0;
 2609              		.loc 1 412 13 discriminator 1 view .LVU787
 412:Drivers/STM32L0xx_HAL_Driver/Src/stm32l0xx_ll_usb.c ****             pmabuffer = ep->pmaaddr0;
 2610              		.loc 1 412 13 discriminator 1 view .LVU788
 2611 01ae 5033     		adds	r3, r3, #80
 2612 01b0 E95A     		ldrh	r1, [r5, r3]
 2613 01b2 6918     		adds	r1, r5, r1
 2614              	.LVL278:
 412:Drivers/STM32L0xx_HAL_Driver/Src/stm32l0xx_ll_usb.c ****             pmabuffer = ep->pmaaddr0;
 2615              		.loc 1 412 13 discriminator 1 view .LVU789
 2616 01b4 2378     		ldrb	r3, [r4]
 2617 01b6 DB00     		lsls	r3, r3, #3
 2618 01b8 5B18     		adds	r3, r3, r1
 2619 01ba 5B4A     		ldr	r2, .L172+20
ARM GAS  /tmp/ccSuEEYJ.s 			page 67


 2620 01bc 9446     		mov	ip, r2
 2621 01be 6344     		add	r3, r3, ip
 2622              	.LVL279:
 412:Drivers/STM32L0xx_HAL_Driver/Src/stm32l0xx_ll_usb.c ****             pmabuffer = ep->pmaaddr0;
 2623              		.loc 1 412 13 discriminator 1 view .LVU790
 2624              	.LBB76:
 412:Drivers/STM32L0xx_HAL_Driver/Src/stm32l0xx_ll_usb.c ****             pmabuffer = ep->pmaaddr0;
 2625              		.loc 1 412 13 discriminator 1 view .LVU791
 412:Drivers/STM32L0xx_HAL_Driver/Src/stm32l0xx_ll_usb.c ****             pmabuffer = ep->pmaaddr0;
 2626              		.loc 1 412 13 discriminator 1 view .LVU792
 2627 01c0 002E     		cmp	r6, #0
 2628 01c2 18D1     		bne	.L94
 412:Drivers/STM32L0xx_HAL_Driver/Src/stm32l0xx_ll_usb.c ****             pmabuffer = ep->pmaaddr0;
 2629              		.loc 1 412 13 discriminator 3 view .LVU793
 2630 01c4 1A88     		ldrh	r2, [r3]
 2631 01c6 5449     		ldr	r1, .L172+4
 2632              	.LVL280:
 412:Drivers/STM32L0xx_HAL_Driver/Src/stm32l0xx_ll_usb.c ****             pmabuffer = ep->pmaaddr0;
 2633              		.loc 1 412 13 is_stmt 0 discriminator 3 view .LVU794
 2634 01c8 0A40     		ands	r2, r1
 2635 01ca 1A80     		strh	r2, [r3]
 412:Drivers/STM32L0xx_HAL_Driver/Src/stm32l0xx_ll_usb.c ****             pmabuffer = ep->pmaaddr0;
 2636              		.loc 1 412 13 is_stmt 1 discriminator 3 view .LVU795
 2637 01cc 1A88     		ldrh	r2, [r3]
 2638 01ce 5349     		ldr	r1, .L172+8
 2639 01d0 0A43     		orrs	r2, r1
 2640 01d2 92B2     		uxth	r2, r2
 2641 01d4 1A80     		strh	r2, [r3]
 2642 01d6 25E0     		b	.L95
 2643              	.LVL281:
 2644              	.L166:
 412:Drivers/STM32L0xx_HAL_Driver/Src/stm32l0xx_ll_usb.c ****             pmabuffer = ep->pmaaddr0;
 2645              		.loc 1 412 13 is_stmt 0 discriminator 3 view .LVU796
 2646              	.LBE76:
 2647              	.LBE75:
 2648              	.LBB78:
 394:Drivers/STM32L0xx_HAL_Driver/Src/stm32l0xx_ll_usb.c ****             pmabuffer = ep->pmaaddr1;
 2649              		.loc 1 394 13 is_stmt 1 discriminator 16 view .LVU797
 2650 01d8 4F32     		adds	r2, r2, #79
 2651 01da AA5A     		ldrh	r2, [r5, r2]
 2652 01dc AA18     		adds	r2, r5, r2
 2653              	.LVL282:
 394:Drivers/STM32L0xx_HAL_Driver/Src/stm32l0xx_ll_usb.c ****             pmabuffer = ep->pmaaddr1;
 2654              		.loc 1 394 13 discriminator 16 view .LVU798
 2655 01de DB00     		lsls	r3, r3, #3
 2656 01e0 9B18     		adds	r3, r3, r2
 2657 01e2 4C4A     		ldr	r2, .L172
 2658              	.LVL283:
 394:Drivers/STM32L0xx_HAL_Driver/Src/stm32l0xx_ll_usb.c ****             pmabuffer = ep->pmaaddr1;
 2659              		.loc 1 394 13 is_stmt 0 discriminator 16 view .LVU799
 2660 01e4 9446     		mov	ip, r2
 2661 01e6 6344     		add	r3, r3, ip
 2662              	.LVL284:
 394:Drivers/STM32L0xx_HAL_Driver/Src/stm32l0xx_ll_usb.c ****             pmabuffer = ep->pmaaddr1;
 2663              		.loc 1 394 13 is_stmt 1 discriminator 16 view .LVU800
 2664 01e8 B2B2     		uxth	r2, r6
 2665 01ea 1A80     		strh	r2, [r3]
ARM GAS  /tmp/ccSuEEYJ.s 			page 68


 2666 01ec CDE7     		b	.L87
 2667              	.LVL285:
 2668              	.L91:
 394:Drivers/STM32L0xx_HAL_Driver/Src/stm32l0xx_ll_usb.c ****             pmabuffer = ep->pmaaddr1;
 2669              		.loc 1 394 13 is_stmt 0 discriminator 16 view .LVU801
 2670              	.LBE78:
 407:Drivers/STM32L0xx_HAL_Driver/Src/stm32l0xx_ll_usb.c ****               ep->xfer_len_db = 0U;
 2671              		.loc 1 407 15 is_stmt 1 view .LVU802
 408:Drivers/STM32L0xx_HAL_Driver/Src/stm32l0xx_ll_usb.c ****             }
 2672              		.loc 1 408 15 view .LVU803
 408:Drivers/STM32L0xx_HAL_Driver/Src/stm32l0xx_ll_usb.c ****             }
 2673              		.loc 1 408 31 is_stmt 0 view .LVU804
 2674 01ee 0022     		movs	r2, #0
 2675 01f0 2262     		str	r2, [r4, #32]
 407:Drivers/STM32L0xx_HAL_Driver/Src/stm32l0xx_ll_usb.c ****               ep->xfer_len_db = 0U;
 2676              		.loc 1 407 19 view .LVU805
 2677 01f2 1E00     		movs	r6, r3
 2678 01f4 D8E7     		b	.L92
 2679              	.LVL286:
 2680              	.L94:
 2681              	.LBB79:
 2682              	.LBB77:
 412:Drivers/STM32L0xx_HAL_Driver/Src/stm32l0xx_ll_usb.c ****             pmabuffer = ep->pmaaddr0;
 2683              		.loc 1 412 13 is_stmt 1 discriminator 4 view .LVU806
 2684 01f6 3E2E     		cmp	r6, #62
 2685 01f8 07D8     		bhi	.L96
 412:Drivers/STM32L0xx_HAL_Driver/Src/stm32l0xx_ll_usb.c ****             pmabuffer = ep->pmaaddr0;
 2686              		.loc 1 412 13 discriminator 6 view .LVU807
 412:Drivers/STM32L0xx_HAL_Driver/Src/stm32l0xx_ll_usb.c ****             pmabuffer = ep->pmaaddr0;
 2687              		.loc 1 412 13 discriminator 6 view .LVU808
 2688 01fa 7208     		lsrs	r2, r6, #1
 2689              	.LVL287:
 412:Drivers/STM32L0xx_HAL_Driver/Src/stm32l0xx_ll_usb.c ****             pmabuffer = ep->pmaaddr0;
 2690              		.loc 1 412 13 discriminator 6 view .LVU809
 2691 01fc F107     		lsls	r1, r6, #31
 2692 01fe 00D5     		bpl	.L97
 2693              	.LVL288:
 412:Drivers/STM32L0xx_HAL_Driver/Src/stm32l0xx_ll_usb.c ****             pmabuffer = ep->pmaaddr0;
 2694              		.loc 1 412 13 discriminator 8 view .LVU810
 2695 0200 0132     		adds	r2, r2, #1
 2696              	.LVL289:
 2697              	.L97:
 412:Drivers/STM32L0xx_HAL_Driver/Src/stm32l0xx_ll_usb.c ****             pmabuffer = ep->pmaaddr0;
 2698              		.loc 1 412 13 discriminator 10 view .LVU811
 2699 0202 9202     		lsls	r2, r2, #10
 2700              	.LVL290:
 412:Drivers/STM32L0xx_HAL_Driver/Src/stm32l0xx_ll_usb.c ****             pmabuffer = ep->pmaaddr0;
 2701              		.loc 1 412 13 is_stmt 0 discriminator 10 view .LVU812
 2702 0204 92B2     		uxth	r2, r2
 2703 0206 1A80     		strh	r2, [r3]
 412:Drivers/STM32L0xx_HAL_Driver/Src/stm32l0xx_ll_usb.c ****             pmabuffer = ep->pmaaddr0;
 2704              		.loc 1 412 13 is_stmt 1 discriminator 10 view .LVU813
 2705 0208 0CE0     		b	.L95
 2706              	.LVL291:
 2707              	.L96:
 412:Drivers/STM32L0xx_HAL_Driver/Src/stm32l0xx_ll_usb.c ****             pmabuffer = ep->pmaaddr0;
 2708              		.loc 1 412 13 discriminator 7 view .LVU814
ARM GAS  /tmp/ccSuEEYJ.s 			page 69


 412:Drivers/STM32L0xx_HAL_Driver/Src/stm32l0xx_ll_usb.c ****             pmabuffer = ep->pmaaddr0;
 2709              		.loc 1 412 13 discriminator 7 view .LVU815
 2710 020a 7209     		lsrs	r2, r6, #5
 2711              	.LVL292:
 412:Drivers/STM32L0xx_HAL_Driver/Src/stm32l0xx_ll_usb.c ****             pmabuffer = ep->pmaaddr0;
 2712              		.loc 1 412 13 discriminator 7 view .LVU816
 2713 020c F106     		lsls	r1, r6, #27
 2714 020e 00D1     		bne	.L98
 2715              	.LVL293:
 412:Drivers/STM32L0xx_HAL_Driver/Src/stm32l0xx_ll_usb.c ****             pmabuffer = ep->pmaaddr0;
 2716              		.loc 1 412 13 discriminator 12 view .LVU817
 2717 0210 013A     		subs	r2, r2, #1
 2718              	.LVL294:
 2719              	.L98:
 412:Drivers/STM32L0xx_HAL_Driver/Src/stm32l0xx_ll_usb.c ****             pmabuffer = ep->pmaaddr0;
 2720              		.loc 1 412 13 discriminator 14 view .LVU818
 2721 0212 9202     		lsls	r2, r2, #10
 2722              	.LVL295:
 412:Drivers/STM32L0xx_HAL_Driver/Src/stm32l0xx_ll_usb.c ****             pmabuffer = ep->pmaaddr0;
 2723              		.loc 1 412 13 is_stmt 0 discriminator 14 view .LVU819
 2724 0214 92B2     		uxth	r2, r2
 2725 0216 4149     		ldr	r1, .L172+8
 2726 0218 0A43     		orrs	r2, r1
 2727 021a 92B2     		uxth	r2, r2
 2728 021c 1A80     		strh	r2, [r3]
 2729 021e 01E0     		b	.L95
 2730              	.LVL296:
 2731              	.L93:
 412:Drivers/STM32L0xx_HAL_Driver/Src/stm32l0xx_ll_usb.c ****             pmabuffer = ep->pmaaddr0;
 2732              		.loc 1 412 13 discriminator 14 view .LVU820
 2733              	.LBE77:
 2734              	.LBE79:
 412:Drivers/STM32L0xx_HAL_Driver/Src/stm32l0xx_ll_usb.c ****             pmabuffer = ep->pmaaddr0;
 2735              		.loc 1 412 13 is_stmt 1 discriminator 2 view .LVU821
 2736 0220 012B     		cmp	r3, #1
 2737 0222 06D0     		beq	.L167
 2738              	.L95:
 412:Drivers/STM32L0xx_HAL_Driver/Src/stm32l0xx_ll_usb.c ****             pmabuffer = ep->pmaaddr0;
 2739              		.loc 1 412 13 discriminator 18 view .LVU822
 412:Drivers/STM32L0xx_HAL_Driver/Src/stm32l0xx_ll_usb.c ****             pmabuffer = ep->pmaaddr0;
 2740              		.loc 1 412 13 discriminator 18 view .LVU823
 413:Drivers/STM32L0xx_HAL_Driver/Src/stm32l0xx_ll_usb.c **** 
 2741              		.loc 1 413 13 discriminator 18 view .LVU824
 413:Drivers/STM32L0xx_HAL_Driver/Src/stm32l0xx_ll_usb.c **** 
 2742              		.loc 1 413 23 is_stmt 0 discriminator 18 view .LVU825
 2743 0224 2289     		ldrh	r2, [r4, #8]
 2744              	.LVL297:
 416:Drivers/STM32L0xx_HAL_Driver/Src/stm32l0xx_ll_usb.c ****           }
 2745              		.loc 1 416 13 is_stmt 1 discriminator 18 view .LVU826
 2746 0226 B3B2     		uxth	r3, r6
 2747 0228 6169     		ldr	r1, [r4, #20]
 2748 022a 2800     		movs	r0, r5
 2749 022c FFF7FEFF 		bl	USB_WritePMA
 2750              	.LVL298:
 416:Drivers/STM32L0xx_HAL_Driver/Src/stm32l0xx_ll_usb.c ****           }
 2751              		.loc 1 416 13 is_stmt 0 discriminator 18 view .LVU827
 2752 0230 56E7     		b	.L81
ARM GAS  /tmp/ccSuEEYJ.s 			page 70


 2753              	.L167:
 412:Drivers/STM32L0xx_HAL_Driver/Src/stm32l0xx_ll_usb.c ****             pmabuffer = ep->pmaaddr0;
 2754              		.loc 1 412 13 is_stmt 1 discriminator 16 view .LVU828
 2755              	.LBB80:
 412:Drivers/STM32L0xx_HAL_Driver/Src/stm32l0xx_ll_usb.c ****             pmabuffer = ep->pmaaddr0;
 2756              		.loc 1 412 13 discriminator 16 view .LVU829
 2757              	.LVL299:
 412:Drivers/STM32L0xx_HAL_Driver/Src/stm32l0xx_ll_usb.c ****             pmabuffer = ep->pmaaddr0;
 2758              		.loc 1 412 13 discriminator 16 view .LVU830
 412:Drivers/STM32L0xx_HAL_Driver/Src/stm32l0xx_ll_usb.c ****             pmabuffer = ep->pmaaddr0;
 2759              		.loc 1 412 13 discriminator 16 view .LVU831
 2760 0232 4F33     		adds	r3, r3, #79
 2761 0234 EA5A     		ldrh	r2, [r5, r3]
 2762 0236 AA18     		adds	r2, r5, r2
 2763              	.LVL300:
 412:Drivers/STM32L0xx_HAL_Driver/Src/stm32l0xx_ll_usb.c ****             pmabuffer = ep->pmaaddr0;
 2764              		.loc 1 412 13 discriminator 16 view .LVU832
 2765 0238 2378     		ldrb	r3, [r4]
 2766 023a DB00     		lsls	r3, r3, #3
 2767 023c 9B18     		adds	r3, r3, r2
 2768 023e 3A4A     		ldr	r2, .L172+20
 2769              	.LVL301:
 412:Drivers/STM32L0xx_HAL_Driver/Src/stm32l0xx_ll_usb.c ****             pmabuffer = ep->pmaaddr0;
 2770              		.loc 1 412 13 is_stmt 0 discriminator 16 view .LVU833
 2771 0240 9446     		mov	ip, r2
 2772 0242 6344     		add	r3, r3, ip
 2773              	.LVL302:
 412:Drivers/STM32L0xx_HAL_Driver/Src/stm32l0xx_ll_usb.c ****             pmabuffer = ep->pmaaddr0;
 2774              		.loc 1 412 13 is_stmt 1 discriminator 16 view .LVU834
 2775 0244 B2B2     		uxth	r2, r6
 2776 0246 1A80     		strh	r2, [r3]
 2777 0248 ECE7     		b	.L95
 2778              	.LVL303:
 2779              	.L84:
 412:Drivers/STM32L0xx_HAL_Driver/Src/stm32l0xx_ll_usb.c ****             pmabuffer = ep->pmaaddr0;
 2780              		.loc 1 412 13 is_stmt 0 discriminator 16 view .LVU835
 2781              	.LBE80:
 421:Drivers/STM32L0xx_HAL_Driver/Src/stm32l0xx_ll_usb.c ****             pmabuffer = ep->pmaaddr0;
 2782              		.loc 1 421 13 is_stmt 1 view .LVU836
 421:Drivers/STM32L0xx_HAL_Driver/Src/stm32l0xx_ll_usb.c ****             pmabuffer = ep->pmaaddr0;
 2783              		.loc 1 421 13 view .LVU837
 2784 024a 6278     		ldrb	r2, [r4, #1]
 2785 024c 002A     		cmp	r2, #0
 2786 024e 28D1     		bne	.L99
 421:Drivers/STM32L0xx_HAL_Driver/Src/stm32l0xx_ll_usb.c ****             pmabuffer = ep->pmaaddr0;
 2787              		.loc 1 421 13 discriminator 1 view .LVU838
 2788              	.LBB81:
 421:Drivers/STM32L0xx_HAL_Driver/Src/stm32l0xx_ll_usb.c ****             pmabuffer = ep->pmaaddr0;
 2789              		.loc 1 421 13 discriminator 1 view .LVU839
 2790              	.LVL304:
 421:Drivers/STM32L0xx_HAL_Driver/Src/stm32l0xx_ll_usb.c ****             pmabuffer = ep->pmaaddr0;
 2791              		.loc 1 421 13 discriminator 1 view .LVU840
 421:Drivers/STM32L0xx_HAL_Driver/Src/stm32l0xx_ll_usb.c ****             pmabuffer = ep->pmaaddr0;
 2792              		.loc 1 421 13 discriminator 1 view .LVU841
 2793 0250 5032     		adds	r2, r2, #80
 2794 0252 AA5A     		ldrh	r2, [r5, r2]
 2795 0254 AA18     		adds	r2, r5, r2
ARM GAS  /tmp/ccSuEEYJ.s 			page 71


 2796              	.LVL305:
 421:Drivers/STM32L0xx_HAL_Driver/Src/stm32l0xx_ll_usb.c ****             pmabuffer = ep->pmaaddr0;
 2797              		.loc 1 421 13 discriminator 1 view .LVU842
 2798 0256 DB00     		lsls	r3, r3, #3
 2799 0258 9B18     		adds	r3, r3, r2
 2800 025a 334A     		ldr	r2, .L172+20
 2801              	.LVL306:
 421:Drivers/STM32L0xx_HAL_Driver/Src/stm32l0xx_ll_usb.c ****             pmabuffer = ep->pmaaddr0;
 2802              		.loc 1 421 13 is_stmt 0 discriminator 1 view .LVU843
 2803 025c 9446     		mov	ip, r2
 2804 025e 6344     		add	r3, r3, ip
 2805              	.LVL307:
 421:Drivers/STM32L0xx_HAL_Driver/Src/stm32l0xx_ll_usb.c ****             pmabuffer = ep->pmaaddr0;
 2806              		.loc 1 421 13 is_stmt 1 discriminator 1 view .LVU844
 2807              	.LBB82:
 421:Drivers/STM32L0xx_HAL_Driver/Src/stm32l0xx_ll_usb.c ****             pmabuffer = ep->pmaaddr0;
 2808              		.loc 1 421 13 discriminator 1 view .LVU845
 421:Drivers/STM32L0xx_HAL_Driver/Src/stm32l0xx_ll_usb.c ****             pmabuffer = ep->pmaaddr0;
 2809              		.loc 1 421 13 discriminator 1 view .LVU846
 2810 0260 002E     		cmp	r6, #0
 2811 0262 09D1     		bne	.L100
 421:Drivers/STM32L0xx_HAL_Driver/Src/stm32l0xx_ll_usb.c ****             pmabuffer = ep->pmaaddr0;
 2812              		.loc 1 421 13 discriminator 3 view .LVU847
 2813 0264 1A88     		ldrh	r2, [r3]
 2814 0266 2C49     		ldr	r1, .L172+4
 2815              	.LVL308:
 421:Drivers/STM32L0xx_HAL_Driver/Src/stm32l0xx_ll_usb.c ****             pmabuffer = ep->pmaaddr0;
 2816              		.loc 1 421 13 is_stmt 0 discriminator 3 view .LVU848
 2817 0268 0A40     		ands	r2, r1
 2818 026a 1A80     		strh	r2, [r3]
 421:Drivers/STM32L0xx_HAL_Driver/Src/stm32l0xx_ll_usb.c ****             pmabuffer = ep->pmaaddr0;
 2819              		.loc 1 421 13 is_stmt 1 discriminator 3 view .LVU849
 2820 026c 1A88     		ldrh	r2, [r3]
 2821 026e 2B49     		ldr	r1, .L172+8
 2822 0270 0A43     		orrs	r2, r1
 2823 0272 92B2     		uxth	r2, r2
 2824 0274 1A80     		strh	r2, [r3]
 2825 0276 16E0     		b	.L101
 2826              	.LVL309:
 2827              	.L100:
 421:Drivers/STM32L0xx_HAL_Driver/Src/stm32l0xx_ll_usb.c ****             pmabuffer = ep->pmaaddr0;
 2828              		.loc 1 421 13 discriminator 4 view .LVU850
 2829 0278 3E2E     		cmp	r6, #62
 2830 027a 07D8     		bhi	.L102
 421:Drivers/STM32L0xx_HAL_Driver/Src/stm32l0xx_ll_usb.c ****             pmabuffer = ep->pmaaddr0;
 2831              		.loc 1 421 13 discriminator 6 view .LVU851
 421:Drivers/STM32L0xx_HAL_Driver/Src/stm32l0xx_ll_usb.c ****             pmabuffer = ep->pmaaddr0;
 2832              		.loc 1 421 13 discriminator 6 view .LVU852
 2833 027c 7208     		lsrs	r2, r6, #1
 2834              	.LVL310:
 421:Drivers/STM32L0xx_HAL_Driver/Src/stm32l0xx_ll_usb.c ****             pmabuffer = ep->pmaaddr0;
 2835              		.loc 1 421 13 discriminator 6 view .LVU853
 2836 027e F107     		lsls	r1, r6, #31
 2837 0280 00D5     		bpl	.L103
 2838              	.LVL311:
 421:Drivers/STM32L0xx_HAL_Driver/Src/stm32l0xx_ll_usb.c ****             pmabuffer = ep->pmaaddr0;
 2839              		.loc 1 421 13 discriminator 8 view .LVU854
ARM GAS  /tmp/ccSuEEYJ.s 			page 72


 2840 0282 0132     		adds	r2, r2, #1
 2841              	.LVL312:
 2842              	.L103:
 421:Drivers/STM32L0xx_HAL_Driver/Src/stm32l0xx_ll_usb.c ****             pmabuffer = ep->pmaaddr0;
 2843              		.loc 1 421 13 discriminator 10 view .LVU855
 2844 0284 9202     		lsls	r2, r2, #10
 2845              	.LVL313:
 421:Drivers/STM32L0xx_HAL_Driver/Src/stm32l0xx_ll_usb.c ****             pmabuffer = ep->pmaaddr0;
 2846              		.loc 1 421 13 is_stmt 0 discriminator 10 view .LVU856
 2847 0286 92B2     		uxth	r2, r2
 2848 0288 1A80     		strh	r2, [r3]
 421:Drivers/STM32L0xx_HAL_Driver/Src/stm32l0xx_ll_usb.c ****             pmabuffer = ep->pmaaddr0;
 2849              		.loc 1 421 13 is_stmt 1 discriminator 10 view .LVU857
 2850 028a 0CE0     		b	.L101
 2851              	.LVL314:
 2852              	.L102:
 421:Drivers/STM32L0xx_HAL_Driver/Src/stm32l0xx_ll_usb.c ****             pmabuffer = ep->pmaaddr0;
 2853              		.loc 1 421 13 discriminator 7 view .LVU858
 421:Drivers/STM32L0xx_HAL_Driver/Src/stm32l0xx_ll_usb.c ****             pmabuffer = ep->pmaaddr0;
 2854              		.loc 1 421 13 discriminator 7 view .LVU859
 2855 028c 7209     		lsrs	r2, r6, #5
 2856              	.LVL315:
 421:Drivers/STM32L0xx_HAL_Driver/Src/stm32l0xx_ll_usb.c ****             pmabuffer = ep->pmaaddr0;
 2857              		.loc 1 421 13 discriminator 7 view .LVU860
 2858 028e F106     		lsls	r1, r6, #27
 2859 0290 00D1     		bne	.L104
 2860              	.LVL316:
 421:Drivers/STM32L0xx_HAL_Driver/Src/stm32l0xx_ll_usb.c ****             pmabuffer = ep->pmaaddr0;
 2861              		.loc 1 421 13 discriminator 12 view .LVU861
 2862 0292 013A     		subs	r2, r2, #1
 2863              	.LVL317:
 2864              	.L104:
 421:Drivers/STM32L0xx_HAL_Driver/Src/stm32l0xx_ll_usb.c ****             pmabuffer = ep->pmaaddr0;
 2865              		.loc 1 421 13 discriminator 14 view .LVU862
 2866 0294 9202     		lsls	r2, r2, #10
 2867              	.LVL318:
 421:Drivers/STM32L0xx_HAL_Driver/Src/stm32l0xx_ll_usb.c ****             pmabuffer = ep->pmaaddr0;
 2868              		.loc 1 421 13 is_stmt 0 discriminator 14 view .LVU863
 2869 0296 92B2     		uxth	r2, r2
 2870 0298 2049     		ldr	r1, .L172+8
 2871 029a 0A43     		orrs	r2, r1
 2872 029c 92B2     		uxth	r2, r2
 2873 029e 1A80     		strh	r2, [r3]
 2874 02a0 01E0     		b	.L101
 2875              	.LVL319:
 2876              	.L99:
 421:Drivers/STM32L0xx_HAL_Driver/Src/stm32l0xx_ll_usb.c ****             pmabuffer = ep->pmaaddr0;
 2877              		.loc 1 421 13 discriminator 14 view .LVU864
 2878              	.LBE82:
 2879              	.LBE81:
 421:Drivers/STM32L0xx_HAL_Driver/Src/stm32l0xx_ll_usb.c ****             pmabuffer = ep->pmaaddr0;
 2880              		.loc 1 421 13 is_stmt 1 discriminator 2 view .LVU865
 2881 02a2 012A     		cmp	r2, #1
 2882 02a4 26D0     		beq	.L168
 2883              	.LVL320:
 2884              	.L101:
 421:Drivers/STM32L0xx_HAL_Driver/Src/stm32l0xx_ll_usb.c ****             pmabuffer = ep->pmaaddr0;
ARM GAS  /tmp/ccSuEEYJ.s 			page 73


 2885              		.loc 1 421 13 discriminator 18 view .LVU866
 421:Drivers/STM32L0xx_HAL_Driver/Src/stm32l0xx_ll_usb.c ****             pmabuffer = ep->pmaaddr0;
 2886              		.loc 1 421 13 discriminator 18 view .LVU867
 422:Drivers/STM32L0xx_HAL_Driver/Src/stm32l0xx_ll_usb.c **** 
 2887              		.loc 1 422 13 discriminator 18 view .LVU868
 422:Drivers/STM32L0xx_HAL_Driver/Src/stm32l0xx_ll_usb.c **** 
 2888              		.loc 1 422 23 is_stmt 0 discriminator 18 view .LVU869
 2889 02a6 2289     		ldrh	r2, [r4, #8]
 2890              	.LVL321:
 425:Drivers/STM32L0xx_HAL_Driver/Src/stm32l0xx_ll_usb.c ****             ep->xfer_buff += len;
 2891              		.loc 1 425 13 is_stmt 1 discriminator 18 view .LVU870
 2892 02a8 B3B2     		uxth	r3, r6
 2893 02aa 6169     		ldr	r1, [r4, #20]
 2894 02ac 2800     		movs	r0, r5
 2895              	.LVL322:
 425:Drivers/STM32L0xx_HAL_Driver/Src/stm32l0xx_ll_usb.c ****             ep->xfer_buff += len;
 2896              		.loc 1 425 13 is_stmt 0 discriminator 18 view .LVU871
 2897 02ae FFF7FEFF 		bl	USB_WritePMA
 2898              	.LVL323:
 426:Drivers/STM32L0xx_HAL_Driver/Src/stm32l0xx_ll_usb.c **** 
 2899              		.loc 1 426 13 is_stmt 1 discriminator 18 view .LVU872
 426:Drivers/STM32L0xx_HAL_Driver/Src/stm32l0xx_ll_usb.c **** 
 2900              		.loc 1 426 27 is_stmt 0 discriminator 18 view .LVU873
 2901 02b2 6369     		ldr	r3, [r4, #20]
 2902 02b4 9B19     		adds	r3, r3, r6
 2903 02b6 6361     		str	r3, [r4, #20]
 428:Drivers/STM32L0xx_HAL_Driver/Src/stm32l0xx_ll_usb.c ****             {
 2904              		.loc 1 428 13 is_stmt 1 discriminator 18 view .LVU874
 428:Drivers/STM32L0xx_HAL_Driver/Src/stm32l0xx_ll_usb.c ****             {
 2905              		.loc 1 428 19 is_stmt 0 discriminator 18 view .LVU875
 2906 02b8 236A     		ldr	r3, [r4, #32]
 428:Drivers/STM32L0xx_HAL_Driver/Src/stm32l0xx_ll_usb.c ****             {
 2907              		.loc 1 428 16 discriminator 18 view .LVU876
 2908 02ba 2269     		ldr	r2, [r4, #16]
 2909 02bc 9342     		cmp	r3, r2
 2910 02be 24D9     		bls	.L105
 430:Drivers/STM32L0xx_HAL_Driver/Src/stm32l0xx_ll_usb.c ****             }
 2911              		.loc 1 430 15 is_stmt 1 view .LVU877
 430:Drivers/STM32L0xx_HAL_Driver/Src/stm32l0xx_ll_usb.c ****             }
 2912              		.loc 1 430 31 is_stmt 0 view .LVU878
 2913 02c0 9B1B     		subs	r3, r3, r6
 2914 02c2 2362     		str	r3, [r4, #32]
 2915              	.L106:
 439:Drivers/STM32L0xx_HAL_Driver/Src/stm32l0xx_ll_usb.c ****             pmabuffer = ep->pmaaddr1;
 2916              		.loc 1 439 13 is_stmt 1 view .LVU879
 2917              	.LBB83:
 439:Drivers/STM32L0xx_HAL_Driver/Src/stm32l0xx_ll_usb.c ****             pmabuffer = ep->pmaaddr1;
 2918              		.loc 1 439 13 view .LVU880
 2919              	.LVL324:
 439:Drivers/STM32L0xx_HAL_Driver/Src/stm32l0xx_ll_usb.c ****             pmabuffer = ep->pmaaddr1;
 2920              		.loc 1 439 13 view .LVU881
 439:Drivers/STM32L0xx_HAL_Driver/Src/stm32l0xx_ll_usb.c ****             pmabuffer = ep->pmaaddr1;
 2921              		.loc 1 439 13 view .LVU882
 2922 02c4 6378     		ldrb	r3, [r4, #1]
 2923 02c6 002B     		cmp	r3, #0
 2924 02c8 4BD1     		bne	.L107
 439:Drivers/STM32L0xx_HAL_Driver/Src/stm32l0xx_ll_usb.c ****             pmabuffer = ep->pmaaddr1;
ARM GAS  /tmp/ccSuEEYJ.s 			page 74


 2925              		.loc 1 439 13 discriminator 1 view .LVU883
 2926              	.LBB84:
 439:Drivers/STM32L0xx_HAL_Driver/Src/stm32l0xx_ll_usb.c ****             pmabuffer = ep->pmaaddr1;
 2927              		.loc 1 439 13 discriminator 1 view .LVU884
 2928              	.LVL325:
 439:Drivers/STM32L0xx_HAL_Driver/Src/stm32l0xx_ll_usb.c ****             pmabuffer = ep->pmaaddr1;
 2929              		.loc 1 439 13 discriminator 1 view .LVU885
 439:Drivers/STM32L0xx_HAL_Driver/Src/stm32l0xx_ll_usb.c ****             pmabuffer = ep->pmaaddr1;
 2930              		.loc 1 439 13 discriminator 1 view .LVU886
 2931 02ca 5033     		adds	r3, r3, #80
 2932 02cc E95A     		ldrh	r1, [r5, r3]
 2933 02ce 6918     		adds	r1, r5, r1
 2934              	.LVL326:
 439:Drivers/STM32L0xx_HAL_Driver/Src/stm32l0xx_ll_usb.c ****             pmabuffer = ep->pmaaddr1;
 2935              		.loc 1 439 13 discriminator 1 view .LVU887
 2936 02d0 2378     		ldrb	r3, [r4]
 2937 02d2 DB00     		lsls	r3, r3, #3
 2938 02d4 5B18     		adds	r3, r3, r1
 2939 02d6 0F4A     		ldr	r2, .L172
 2940 02d8 9446     		mov	ip, r2
 2941 02da 6344     		add	r3, r3, ip
 2942              	.LVL327:
 439:Drivers/STM32L0xx_HAL_Driver/Src/stm32l0xx_ll_usb.c ****             pmabuffer = ep->pmaaddr1;
 2943              		.loc 1 439 13 discriminator 1 view .LVU888
 2944              	.LBB85:
 439:Drivers/STM32L0xx_HAL_Driver/Src/stm32l0xx_ll_usb.c ****             pmabuffer = ep->pmaaddr1;
 2945              		.loc 1 439 13 discriminator 1 view .LVU889
 439:Drivers/STM32L0xx_HAL_Driver/Src/stm32l0xx_ll_usb.c ****             pmabuffer = ep->pmaaddr1;
 2946              		.loc 1 439 13 discriminator 1 view .LVU890
 2947 02dc 002E     		cmp	r6, #0
 2948 02de 2BD1     		bne	.L108
 439:Drivers/STM32L0xx_HAL_Driver/Src/stm32l0xx_ll_usb.c ****             pmabuffer = ep->pmaaddr1;
 2949              		.loc 1 439 13 discriminator 3 view .LVU891
 2950 02e0 1A88     		ldrh	r2, [r3]
 2951 02e2 0D49     		ldr	r1, .L172+4
 2952              	.LVL328:
 439:Drivers/STM32L0xx_HAL_Driver/Src/stm32l0xx_ll_usb.c ****             pmabuffer = ep->pmaaddr1;
 2953              		.loc 1 439 13 is_stmt 0 discriminator 3 view .LVU892
 2954 02e4 0A40     		ands	r2, r1
 2955 02e6 1A80     		strh	r2, [r3]
 439:Drivers/STM32L0xx_HAL_Driver/Src/stm32l0xx_ll_usb.c ****             pmabuffer = ep->pmaaddr1;
 2956              		.loc 1 439 13 is_stmt 1 discriminator 3 view .LVU893
 2957 02e8 1A88     		ldrh	r2, [r3]
 2958 02ea 0C49     		ldr	r1, .L172+8
 2959 02ec 0A43     		orrs	r2, r1
 2960 02ee 92B2     		uxth	r2, r2
 2961 02f0 1A80     		strh	r2, [r3]
 2962 02f2 38E0     		b	.L109
 2963              	.LVL329:
 2964              	.L168:
 439:Drivers/STM32L0xx_HAL_Driver/Src/stm32l0xx_ll_usb.c ****             pmabuffer = ep->pmaaddr1;
 2965              		.loc 1 439 13 is_stmt 0 discriminator 3 view .LVU894
 2966              	.LBE85:
 2967              	.LBE84:
 2968              	.LBE83:
 421:Drivers/STM32L0xx_HAL_Driver/Src/stm32l0xx_ll_usb.c ****             pmabuffer = ep->pmaaddr0;
 2969              		.loc 1 421 13 is_stmt 1 discriminator 16 view .LVU895
ARM GAS  /tmp/ccSuEEYJ.s 			page 75


 2970              	.LBB88:
 421:Drivers/STM32L0xx_HAL_Driver/Src/stm32l0xx_ll_usb.c ****             pmabuffer = ep->pmaaddr0;
 2971              		.loc 1 421 13 discriminator 16 view .LVU896
 421:Drivers/STM32L0xx_HAL_Driver/Src/stm32l0xx_ll_usb.c ****             pmabuffer = ep->pmaaddr0;
 2972              		.loc 1 421 13 discriminator 16 view .LVU897
 421:Drivers/STM32L0xx_HAL_Driver/Src/stm32l0xx_ll_usb.c ****             pmabuffer = ep->pmaaddr0;
 2973              		.loc 1 421 13 discriminator 16 view .LVU898
 2974 02f4 4F32     		adds	r2, r2, #79
 2975 02f6 AA5A     		ldrh	r2, [r5, r2]
 2976 02f8 AA18     		adds	r2, r5, r2
 2977              	.LVL330:
 421:Drivers/STM32L0xx_HAL_Driver/Src/stm32l0xx_ll_usb.c ****             pmabuffer = ep->pmaaddr0;
 2978              		.loc 1 421 13 discriminator 16 view .LVU899
 2979 02fa DB00     		lsls	r3, r3, #3
 2980 02fc 9B18     		adds	r3, r3, r2
 2981 02fe 0A4A     		ldr	r2, .L172+20
 2982              	.LVL331:
 421:Drivers/STM32L0xx_HAL_Driver/Src/stm32l0xx_ll_usb.c ****             pmabuffer = ep->pmaaddr0;
 2983              		.loc 1 421 13 is_stmt 0 discriminator 16 view .LVU900
 2984 0300 9446     		mov	ip, r2
 2985 0302 6344     		add	r3, r3, ip
 2986              	.LVL332:
 421:Drivers/STM32L0xx_HAL_Driver/Src/stm32l0xx_ll_usb.c ****             pmabuffer = ep->pmaaddr0;
 2987              		.loc 1 421 13 is_stmt 1 discriminator 16 view .LVU901
 2988 0304 B2B2     		uxth	r2, r6
 2989 0306 1A80     		strh	r2, [r3]
 2990 0308 CDE7     		b	.L101
 2991              	.LVL333:
 2992              	.L105:
 421:Drivers/STM32L0xx_HAL_Driver/Src/stm32l0xx_ll_usb.c ****             pmabuffer = ep->pmaaddr0;
 2993              		.loc 1 421 13 is_stmt 0 discriminator 16 view .LVU902
 2994              	.LBE88:
 434:Drivers/STM32L0xx_HAL_Driver/Src/stm32l0xx_ll_usb.c ****               ep->xfer_len_db = 0U;
 2995              		.loc 1 434 15 is_stmt 1 view .LVU903
 435:Drivers/STM32L0xx_HAL_Driver/Src/stm32l0xx_ll_usb.c ****             }
 2996              		.loc 1 435 15 view .LVU904
 435:Drivers/STM32L0xx_HAL_Driver/Src/stm32l0xx_ll_usb.c ****             }
 2997              		.loc 1 435 31 is_stmt 0 view .LVU905
 2998 030a 0022     		movs	r2, #0
 2999 030c 2262     		str	r2, [r4, #32]
 434:Drivers/STM32L0xx_HAL_Driver/Src/stm32l0xx_ll_usb.c ****               ep->xfer_len_db = 0U;
 3000              		.loc 1 434 19 view .LVU906
 3001 030e 1E00     		movs	r6, r3
 3002 0310 D8E7     		b	.L106
 3003              	.L173:
 3004 0312 C046     		.align	2
 3005              	.L172:
 3006 0314 06040000 		.word	1030
 3007 0318 FF83FFFF 		.word	-31745
 3008 031c 0080FFFF 		.word	-32768
 3009 0320 8FBFFFFF 		.word	-16497
 3010 0324 8080FFFF 		.word	-32640
 3011 0328 02040000 		.word	1026
 3012 032c BF8FFFFF 		.word	-28737
 3013 0330 8F8FFFFF 		.word	-28785
 3014 0334 8081FFFF 		.word	-32384
 3015              	.LVL334:
ARM GAS  /tmp/ccSuEEYJ.s 			page 76


 3016              	.L108:
 3017              	.LBB89:
 3018              	.LBB87:
 3019              	.LBB86:
 439:Drivers/STM32L0xx_HAL_Driver/Src/stm32l0xx_ll_usb.c ****             pmabuffer = ep->pmaaddr1;
 3020              		.loc 1 439 13 is_stmt 1 discriminator 4 view .LVU907
 3021 0338 3E2E     		cmp	r6, #62
 3022 033a 07D8     		bhi	.L110
 439:Drivers/STM32L0xx_HAL_Driver/Src/stm32l0xx_ll_usb.c ****             pmabuffer = ep->pmaaddr1;
 3023              		.loc 1 439 13 discriminator 6 view .LVU908
 439:Drivers/STM32L0xx_HAL_Driver/Src/stm32l0xx_ll_usb.c ****             pmabuffer = ep->pmaaddr1;
 3024              		.loc 1 439 13 discriminator 6 view .LVU909
 3025 033c 7208     		lsrs	r2, r6, #1
 3026              	.LVL335:
 439:Drivers/STM32L0xx_HAL_Driver/Src/stm32l0xx_ll_usb.c ****             pmabuffer = ep->pmaaddr1;
 3027              		.loc 1 439 13 discriminator 6 view .LVU910
 3028 033e F107     		lsls	r1, r6, #31
 3029 0340 00D5     		bpl	.L111
 3030              	.LVL336:
 439:Drivers/STM32L0xx_HAL_Driver/Src/stm32l0xx_ll_usb.c ****             pmabuffer = ep->pmaaddr1;
 3031              		.loc 1 439 13 discriminator 8 view .LVU911
 3032 0342 0132     		adds	r2, r2, #1
 3033              	.LVL337:
 3034              	.L111:
 439:Drivers/STM32L0xx_HAL_Driver/Src/stm32l0xx_ll_usb.c ****             pmabuffer = ep->pmaaddr1;
 3035              		.loc 1 439 13 discriminator 10 view .LVU912
 3036 0344 9202     		lsls	r2, r2, #10
 3037              	.LVL338:
 439:Drivers/STM32L0xx_HAL_Driver/Src/stm32l0xx_ll_usb.c ****             pmabuffer = ep->pmaaddr1;
 3038              		.loc 1 439 13 is_stmt 0 discriminator 10 view .LVU913
 3039 0346 92B2     		uxth	r2, r2
 3040 0348 1A80     		strh	r2, [r3]
 439:Drivers/STM32L0xx_HAL_Driver/Src/stm32l0xx_ll_usb.c ****             pmabuffer = ep->pmaaddr1;
 3041              		.loc 1 439 13 is_stmt 1 discriminator 10 view .LVU914
 3042 034a 0CE0     		b	.L109
 3043              	.LVL339:
 3044              	.L110:
 439:Drivers/STM32L0xx_HAL_Driver/Src/stm32l0xx_ll_usb.c ****             pmabuffer = ep->pmaaddr1;
 3045              		.loc 1 439 13 discriminator 7 view .LVU915
 439:Drivers/STM32L0xx_HAL_Driver/Src/stm32l0xx_ll_usb.c ****             pmabuffer = ep->pmaaddr1;
 3046              		.loc 1 439 13 discriminator 7 view .LVU916
 3047 034c 7209     		lsrs	r2, r6, #5
 3048              	.LVL340:
 439:Drivers/STM32L0xx_HAL_Driver/Src/stm32l0xx_ll_usb.c ****             pmabuffer = ep->pmaaddr1;
 3049              		.loc 1 439 13 discriminator 7 view .LVU917
 3050 034e F106     		lsls	r1, r6, #27
 3051 0350 00D1     		bne	.L112
 3052              	.LVL341:
 439:Drivers/STM32L0xx_HAL_Driver/Src/stm32l0xx_ll_usb.c ****             pmabuffer = ep->pmaaddr1;
 3053              		.loc 1 439 13 discriminator 12 view .LVU918
 3054 0352 013A     		subs	r2, r2, #1
 3055              	.LVL342:
 3056              	.L112:
 439:Drivers/STM32L0xx_HAL_Driver/Src/stm32l0xx_ll_usb.c ****             pmabuffer = ep->pmaaddr1;
 3057              		.loc 1 439 13 discriminator 14 view .LVU919
 3058 0354 9202     		lsls	r2, r2, #10
 3059              	.LVL343:
ARM GAS  /tmp/ccSuEEYJ.s 			page 77


 439:Drivers/STM32L0xx_HAL_Driver/Src/stm32l0xx_ll_usb.c ****             pmabuffer = ep->pmaaddr1;
 3060              		.loc 1 439 13 is_stmt 0 discriminator 14 view .LVU920
 3061 0356 92B2     		uxth	r2, r2
 3062 0358 C349     		ldr	r1, .L174
 3063 035a 0A43     		orrs	r2, r1
 3064 035c 92B2     		uxth	r2, r2
 3065 035e 1A80     		strh	r2, [r3]
 3066 0360 01E0     		b	.L109
 3067              	.LVL344:
 3068              	.L107:
 439:Drivers/STM32L0xx_HAL_Driver/Src/stm32l0xx_ll_usb.c ****             pmabuffer = ep->pmaaddr1;
 3069              		.loc 1 439 13 discriminator 14 view .LVU921
 3070              	.LBE86:
 3071              	.LBE87:
 439:Drivers/STM32L0xx_HAL_Driver/Src/stm32l0xx_ll_usb.c ****             pmabuffer = ep->pmaaddr1;
 3072              		.loc 1 439 13 is_stmt 1 discriminator 2 view .LVU922
 3073 0362 012B     		cmp	r3, #1
 3074 0364 06D0     		beq	.L169
 3075              	.LVL345:
 3076              	.L109:
 439:Drivers/STM32L0xx_HAL_Driver/Src/stm32l0xx_ll_usb.c ****             pmabuffer = ep->pmaaddr1;
 3077              		.loc 1 439 13 is_stmt 0 discriminator 2 view .LVU923
 3078              	.LBE89:
 439:Drivers/STM32L0xx_HAL_Driver/Src/stm32l0xx_ll_usb.c ****             pmabuffer = ep->pmaaddr1;
 3079              		.loc 1 439 13 is_stmt 1 discriminator 18 view .LVU924
 440:Drivers/STM32L0xx_HAL_Driver/Src/stm32l0xx_ll_usb.c **** 
 3080              		.loc 1 440 13 discriminator 18 view .LVU925
 440:Drivers/STM32L0xx_HAL_Driver/Src/stm32l0xx_ll_usb.c **** 
 3081              		.loc 1 440 23 is_stmt 0 discriminator 18 view .LVU926
 3082 0366 6289     		ldrh	r2, [r4, #10]
 3083              	.LVL346:
 443:Drivers/STM32L0xx_HAL_Driver/Src/stm32l0xx_ll_usb.c ****           }
 3084              		.loc 1 443 13 is_stmt 1 discriminator 18 view .LVU927
 3085 0368 B3B2     		uxth	r3, r6
 3086 036a 6169     		ldr	r1, [r4, #20]
 3087 036c 2800     		movs	r0, r5
 3088 036e FFF7FEFF 		bl	USB_WritePMA
 3089              	.LVL347:
 443:Drivers/STM32L0xx_HAL_Driver/Src/stm32l0xx_ll_usb.c ****           }
 3090              		.loc 1 443 13 is_stmt 0 discriminator 18 view .LVU928
 3091 0372 B5E6     		b	.L81
 3092              	.LVL348:
 3093              	.L169:
 3094              	.LBB90:
 439:Drivers/STM32L0xx_HAL_Driver/Src/stm32l0xx_ll_usb.c ****             pmabuffer = ep->pmaaddr1;
 3095              		.loc 1 439 13 is_stmt 1 discriminator 16 view .LVU929
 3096 0374 4F33     		adds	r3, r3, #79
 3097 0376 EA5A     		ldrh	r2, [r5, r3]
 3098 0378 AA18     		adds	r2, r5, r2
 3099              	.LVL349:
 439:Drivers/STM32L0xx_HAL_Driver/Src/stm32l0xx_ll_usb.c ****             pmabuffer = ep->pmaaddr1;
 3100              		.loc 1 439 13 discriminator 16 view .LVU930
 3101 037a 2378     		ldrb	r3, [r4]
 3102 037c DB00     		lsls	r3, r3, #3
 3103 037e 9B18     		adds	r3, r3, r2
 3104 0380 BA4A     		ldr	r2, .L174+4
 3105              	.LVL350:
ARM GAS  /tmp/ccSuEEYJ.s 			page 78


 439:Drivers/STM32L0xx_HAL_Driver/Src/stm32l0xx_ll_usb.c ****             pmabuffer = ep->pmaaddr1;
 3106              		.loc 1 439 13 is_stmt 0 discriminator 16 view .LVU931
 3107 0382 9446     		mov	ip, r2
 3108 0384 6344     		add	r3, r3, ip
 3109              	.LVL351:
 439:Drivers/STM32L0xx_HAL_Driver/Src/stm32l0xx_ll_usb.c ****             pmabuffer = ep->pmaaddr1;
 3110              		.loc 1 439 13 is_stmt 1 discriminator 16 view .LVU932
 3111 0386 B2B2     		uxth	r2, r6
 3112 0388 1A80     		strh	r2, [r3]
 3113 038a ECE7     		b	.L109
 3114              	.LVL352:
 3115              	.L83:
 439:Drivers/STM32L0xx_HAL_Driver/Src/stm32l0xx_ll_usb.c ****             pmabuffer = ep->pmaaddr1;
 3116              		.loc 1 439 13 is_stmt 0 discriminator 16 view .LVU933
 3117              	.LBE90:
 449:Drivers/STM32L0xx_HAL_Driver/Src/stm32l0xx_ll_usb.c **** 
 3118              		.loc 1 449 11 is_stmt 1 view .LVU934
 452:Drivers/STM32L0xx_HAL_Driver/Src/stm32l0xx_ll_usb.c **** 
 3119              		.loc 1 452 11 view .LVU935
 3120              	.LBB91:
 452:Drivers/STM32L0xx_HAL_Driver/Src/stm32l0xx_ll_usb.c **** 
 3121              		.loc 1 452 11 view .LVU936
 452:Drivers/STM32L0xx_HAL_Driver/Src/stm32l0xx_ll_usb.c **** 
 3122              		.loc 1 452 11 view .LVU937
 3123 038c 2278     		ldrb	r2, [r4]
 3124 038e 9200     		lsls	r2, r2, #2
 3125 0390 AA18     		adds	r2, r5, r2
 3126 0392 1188     		ldrh	r1, [r2]
 3127 0394 B648     		ldr	r0, .L174+8
 3128              	.LVL353:
 452:Drivers/STM32L0xx_HAL_Driver/Src/stm32l0xx_ll_usb.c **** 
 3129              		.loc 1 452 11 is_stmt 0 view .LVU938
 3130 0396 0840     		ands	r0, r1
 3131              	.LVL354:
 452:Drivers/STM32L0xx_HAL_Driver/Src/stm32l0xx_ll_usb.c **** 
 3132              		.loc 1 452 11 is_stmt 1 view .LVU939
 3133 0398 B649     		ldr	r1, .L174+12
 3134 039a 0143     		orrs	r1, r0
 3135 039c 89B2     		uxth	r1, r1
 3136 039e 1180     		strh	r1, [r2]
 3137              	.LBE91:
 452:Drivers/STM32L0xx_HAL_Driver/Src/stm32l0xx_ll_usb.c **** 
 3138              		.loc 1 452 11 view .LVU940
 455:Drivers/STM32L0xx_HAL_Driver/Src/stm32l0xx_ll_usb.c ****           pmabuffer = ep->pmaaddr0;
 3139              		.loc 1 455 11 view .LVU941
 3140              	.LBB92:
 455:Drivers/STM32L0xx_HAL_Driver/Src/stm32l0xx_ll_usb.c ****           pmabuffer = ep->pmaaddr0;
 3141              		.loc 1 455 11 view .LVU942
 3142              	.LVL355:
 455:Drivers/STM32L0xx_HAL_Driver/Src/stm32l0xx_ll_usb.c ****           pmabuffer = ep->pmaaddr0;
 3143              		.loc 1 455 11 view .LVU943
 455:Drivers/STM32L0xx_HAL_Driver/Src/stm32l0xx_ll_usb.c ****           pmabuffer = ep->pmaaddr0;
 3144              		.loc 1 455 11 view .LVU944
 3145 03a0 5022     		movs	r2, #80
 3146 03a2 A85A     		ldrh	r0, [r5, r2]
 3147              	.LVL356:
 455:Drivers/STM32L0xx_HAL_Driver/Src/stm32l0xx_ll_usb.c ****           pmabuffer = ep->pmaaddr0;
ARM GAS  /tmp/ccSuEEYJ.s 			page 79


 3148              		.loc 1 455 11 is_stmt 0 view .LVU945
 3149 03a4 2818     		adds	r0, r5, r0
 3150              	.LVL357:
 455:Drivers/STM32L0xx_HAL_Driver/Src/stm32l0xx_ll_usb.c ****           pmabuffer = ep->pmaaddr0;
 3151              		.loc 1 455 11 is_stmt 1 view .LVU946
 3152 03a6 2278     		ldrb	r2, [r4]
 3153 03a8 D200     		lsls	r2, r2, #3
 3154 03aa 1218     		adds	r2, r2, r0
 3155 03ac B249     		ldr	r1, .L174+16
 3156 03ae 8C46     		mov	ip, r1
 3157 03b0 6244     		add	r2, r2, ip
 3158              	.LVL358:
 455:Drivers/STM32L0xx_HAL_Driver/Src/stm32l0xx_ll_usb.c ****           pmabuffer = ep->pmaaddr0;
 3159              		.loc 1 455 11 view .LVU947
 3160 03b2 9BB2     		uxth	r3, r3
 3161              	.LVL359:
 455:Drivers/STM32L0xx_HAL_Driver/Src/stm32l0xx_ll_usb.c ****           pmabuffer = ep->pmaaddr0;
 3162              		.loc 1 455 11 is_stmt 0 view .LVU948
 3163 03b4 1380     		strh	r3, [r2]
 3164              	.LBE92:
 455:Drivers/STM32L0xx_HAL_Driver/Src/stm32l0xx_ll_usb.c ****           pmabuffer = ep->pmaaddr0;
