ARM GAS  /tmp/cc1ubFXS.s 			page 1


   1              		.cpu cortex-m0plus
   2              		.arch armv6s-m
   3              		.fpu softvfp
   4              		.eabi_attribute 20, 1
   5              		.eabi_attribute 21, 1
   6              		.eabi_attribute 23, 3
   7              		.eabi_attribute 24, 1
   8              		.eabi_attribute 25, 1
   9              		.eabi_attribute 26, 1
  10              		.eabi_attribute 30, 1
  11              		.eabi_attribute 34, 0
  12              		.eabi_attribute 18, 4
  13              		.file	"usbd_desc.c"
  14              		.text
  15              	.Ltext0:
  16              		.cfi_sections	.debug_frame
  17              		.section	.text.USBD_FS_DeviceDescriptor,"ax",%progbits
  18              		.align	1
  19              		.global	USBD_FS_DeviceDescriptor
  20              		.syntax unified
  21              		.code	16
  22              		.thumb_func
  24              	USBD_FS_DeviceDescriptor:
  25              	.LVL0:
  26              	.LFB37:
  27              		.file 1 "USB_DEVICE/App/usbd_desc.c"
   1:USB_DEVICE/App/usbd_desc.c **** /* USER CODE BEGIN Header */
   2:USB_DEVICE/App/usbd_desc.c **** /**
   3:USB_DEVICE/App/usbd_desc.c ****   ******************************************************************************
   4:USB_DEVICE/App/usbd_desc.c ****   * @file           : App/usbd_desc.c
   5:USB_DEVICE/App/usbd_desc.c ****   * @version        : v2.0_Cube
   6:USB_DEVICE/App/usbd_desc.c ****   * @brief          : This file implements the USB device descriptors.
   7:USB_DEVICE/App/usbd_desc.c ****   ******************************************************************************
   8:USB_DEVICE/App/usbd_desc.c ****   * @attention
   9:USB_DEVICE/App/usbd_desc.c ****   *
  10:USB_DEVICE/App/usbd_desc.c ****   * <h2><center>&copy; Copyright (c) 2023 STMicroelectronics.
  11:USB_DEVICE/App/usbd_desc.c ****   * All rights reserved.</center></h2>
  12:USB_DEVICE/App/usbd_desc.c ****   *
  13:USB_DEVICE/App/usbd_desc.c ****   * This software component is licensed by ST under Ultimate Liberty license
  14:USB_DEVICE/App/usbd_desc.c ****   * SLA0044, the "License"; You may not use this file except in compliance with
  15:USB_DEVICE/App/usbd_desc.c ****   * the License. You may obtain a copy of the License at:
  16:USB_DEVICE/App/usbd_desc.c ****   *                             www.st.com/SLA0044
  17:USB_DEVICE/App/usbd_desc.c ****   *
  18:USB_DEVICE/App/usbd_desc.c ****   ******************************************************************************
  19:USB_DEVICE/App/usbd_desc.c ****   */
  20:USB_DEVICE/App/usbd_desc.c **** /* USER CODE END Header */
  21:USB_DEVICE/App/usbd_desc.c **** 
  22:USB_DEVICE/App/usbd_desc.c **** /* Includes ------------------------------------------------------------------*/
  23:USB_DEVICE/App/usbd_desc.c **** #include "usbd_core.h"
  24:USB_DEVICE/App/usbd_desc.c **** #include "usbd_desc.h"
  25:USB_DEVICE/App/usbd_desc.c **** #include "usbd_conf.h"
  26:USB_DEVICE/App/usbd_desc.c **** 
  27:USB_DEVICE/App/usbd_desc.c **** /* USER CODE BEGIN INCLUDE */
  28:USB_DEVICE/App/usbd_desc.c **** 
  29:USB_DEVICE/App/usbd_desc.c **** /* USER CODE END INCLUDE */
  30:USB_DEVICE/App/usbd_desc.c **** 
  31:USB_DEVICE/App/usbd_desc.c **** /* Private typedef -----------------------------------------------------------*/
ARM GAS  /tmp/cc1ubFXS.s 			page 2


  32:USB_DEVICE/App/usbd_desc.c **** /* Private define ------------------------------------------------------------*/
  33:USB_DEVICE/App/usbd_desc.c **** /* Private macro -------------------------------------------------------------*/
  34:USB_DEVICE/App/usbd_desc.c **** 
  35:USB_DEVICE/App/usbd_desc.c **** /* USER CODE BEGIN PV */
  36:USB_DEVICE/App/usbd_desc.c **** /* Private variables ---------------------------------------------------------*/
  37:USB_DEVICE/App/usbd_desc.c **** 
  38:USB_DEVICE/App/usbd_desc.c **** /* USER CODE END PV */
  39:USB_DEVICE/App/usbd_desc.c **** 
  40:USB_DEVICE/App/usbd_desc.c **** /** @addtogroup STM32_USB_OTG_DEVICE_LIBRARY
  41:USB_DEVICE/App/usbd_desc.c ****   * @{
  42:USB_DEVICE/App/usbd_desc.c ****   */
  43:USB_DEVICE/App/usbd_desc.c **** 
  44:USB_DEVICE/App/usbd_desc.c **** /** @addtogroup USBD_DESC
  45:USB_DEVICE/App/usbd_desc.c ****   * @{
  46:USB_DEVICE/App/usbd_desc.c ****   */
  47:USB_DEVICE/App/usbd_desc.c **** 
  48:USB_DEVICE/App/usbd_desc.c **** /** @defgroup USBD_DESC_Private_TypesDefinitions USBD_DESC_Private_TypesDefinitions
  49:USB_DEVICE/App/usbd_desc.c ****   * @brief Private types.
  50:USB_DEVICE/App/usbd_desc.c ****   * @{
  51:USB_DEVICE/App/usbd_desc.c ****   */
  52:USB_DEVICE/App/usbd_desc.c **** 
  53:USB_DEVICE/App/usbd_desc.c **** /* USER CODE BEGIN PRIVATE_TYPES */
  54:USB_DEVICE/App/usbd_desc.c **** 
  55:USB_DEVICE/App/usbd_desc.c **** /* USER CODE END PRIVATE_TYPES */
  56:USB_DEVICE/App/usbd_desc.c **** 
  57:USB_DEVICE/App/usbd_desc.c **** /**
  58:USB_DEVICE/App/usbd_desc.c ****   * @}
  59:USB_DEVICE/App/usbd_desc.c ****   */
  60:USB_DEVICE/App/usbd_desc.c **** 
  61:USB_DEVICE/App/usbd_desc.c **** /** @defgroup USBD_DESC_Private_Defines USBD_DESC_Private_Defines
  62:USB_DEVICE/App/usbd_desc.c ****   * @brief Private defines.
  63:USB_DEVICE/App/usbd_desc.c ****   * @{
  64:USB_DEVICE/App/usbd_desc.c ****   */
  65:USB_DEVICE/App/usbd_desc.c **** 
  66:USB_DEVICE/App/usbd_desc.c **** #define USBD_VID     1155
  67:USB_DEVICE/App/usbd_desc.c **** #define USBD_LANGID_STRING     1033
  68:USB_DEVICE/App/usbd_desc.c **** #define USBD_MANUFACTURER_STRING     "STMicroelectronics"
  69:USB_DEVICE/App/usbd_desc.c **** #define USBD_PID_FS     22336
  70:USB_DEVICE/App/usbd_desc.c **** #define USBD_PRODUCT_STRING_FS     "STM32 Virtual ComPort"
  71:USB_DEVICE/App/usbd_desc.c **** #define USBD_CONFIGURATION_STRING_FS     "CDC Config"
  72:USB_DEVICE/App/usbd_desc.c **** #define USBD_INTERFACE_STRING_FS     "CDC Interface"
  73:USB_DEVICE/App/usbd_desc.c **** 
  74:USB_DEVICE/App/usbd_desc.c **** /* USER CODE BEGIN PRIVATE_DEFINES */
  75:USB_DEVICE/App/usbd_desc.c **** 
  76:USB_DEVICE/App/usbd_desc.c **** /* USER CODE END PRIVATE_DEFINES */
  77:USB_DEVICE/App/usbd_desc.c **** 
  78:USB_DEVICE/App/usbd_desc.c **** /**
  79:USB_DEVICE/App/usbd_desc.c ****   * @}
  80:USB_DEVICE/App/usbd_desc.c ****   */
  81:USB_DEVICE/App/usbd_desc.c **** 
  82:USB_DEVICE/App/usbd_desc.c **** /* USER CODE BEGIN 0 */
  83:USB_DEVICE/App/usbd_desc.c **** 
  84:USB_DEVICE/App/usbd_desc.c **** /* USER CODE END 0 */
  85:USB_DEVICE/App/usbd_desc.c **** 
  86:USB_DEVICE/App/usbd_desc.c **** /** @defgroup USBD_DESC_Private_Macros USBD_DESC_Private_Macros
  87:USB_DEVICE/App/usbd_desc.c ****   * @brief Private macros.
  88:USB_DEVICE/App/usbd_desc.c ****   * @{
ARM GAS  /tmp/cc1ubFXS.s 			page 3


  89:USB_DEVICE/App/usbd_desc.c ****   */
  90:USB_DEVICE/App/usbd_desc.c **** 
  91:USB_DEVICE/App/usbd_desc.c **** /* USER CODE BEGIN PRIVATE_MACRO */
  92:USB_DEVICE/App/usbd_desc.c **** 
  93:USB_DEVICE/App/usbd_desc.c **** /* USER CODE END PRIVATE_MACRO */
  94:USB_DEVICE/App/usbd_desc.c **** 
  95:USB_DEVICE/App/usbd_desc.c **** /**
  96:USB_DEVICE/App/usbd_desc.c ****   * @}
  97:USB_DEVICE/App/usbd_desc.c ****   */
  98:USB_DEVICE/App/usbd_desc.c **** 
  99:USB_DEVICE/App/usbd_desc.c **** /** @defgroup USBD_DESC_Private_FunctionPrototypes USBD_DESC_Private_FunctionPrototypes
 100:USB_DEVICE/App/usbd_desc.c ****   * @brief Private functions declaration.
 101:USB_DEVICE/App/usbd_desc.c ****   * @{
 102:USB_DEVICE/App/usbd_desc.c ****   */
 103:USB_DEVICE/App/usbd_desc.c **** 
 104:USB_DEVICE/App/usbd_desc.c **** static void Get_SerialNum(void);
 105:USB_DEVICE/App/usbd_desc.c **** static void IntToUnicode(uint32_t value, uint8_t * pbuf, uint8_t len);
 106:USB_DEVICE/App/usbd_desc.c **** 
 107:USB_DEVICE/App/usbd_desc.c **** /**
 108:USB_DEVICE/App/usbd_desc.c ****   * @}
 109:USB_DEVICE/App/usbd_desc.c ****   */
 110:USB_DEVICE/App/usbd_desc.c **** 
 111:USB_DEVICE/App/usbd_desc.c **** /** @defgroup USBD_DESC_Private_FunctionPrototypes USBD_DESC_Private_FunctionPrototypes
 112:USB_DEVICE/App/usbd_desc.c ****   * @brief Private functions declaration for FS.
 113:USB_DEVICE/App/usbd_desc.c ****   * @{
 114:USB_DEVICE/App/usbd_desc.c ****   */
 115:USB_DEVICE/App/usbd_desc.c **** 
 116:USB_DEVICE/App/usbd_desc.c **** uint8_t * USBD_FS_DeviceDescriptor(USBD_SpeedTypeDef speed, uint16_t *length);
 117:USB_DEVICE/App/usbd_desc.c **** uint8_t * USBD_FS_LangIDStrDescriptor(USBD_SpeedTypeDef speed, uint16_t *length);
 118:USB_DEVICE/App/usbd_desc.c **** uint8_t * USBD_FS_ManufacturerStrDescriptor(USBD_SpeedTypeDef speed, uint16_t *length);
 119:USB_DEVICE/App/usbd_desc.c **** uint8_t * USBD_FS_ProductStrDescriptor(USBD_SpeedTypeDef speed, uint16_t *length);
 120:USB_DEVICE/App/usbd_desc.c **** uint8_t * USBD_FS_SerialStrDescriptor(USBD_SpeedTypeDef speed, uint16_t *length);
 121:USB_DEVICE/App/usbd_desc.c **** uint8_t * USBD_FS_ConfigStrDescriptor(USBD_SpeedTypeDef speed, uint16_t *length);
 122:USB_DEVICE/App/usbd_desc.c **** uint8_t * USBD_FS_InterfaceStrDescriptor(USBD_SpeedTypeDef speed, uint16_t *length);
 123:USB_DEVICE/App/usbd_desc.c **** 
 124:USB_DEVICE/App/usbd_desc.c **** /**
 125:USB_DEVICE/App/usbd_desc.c ****   * @}
 126:USB_DEVICE/App/usbd_desc.c ****   */
 127:USB_DEVICE/App/usbd_desc.c **** 
 128:USB_DEVICE/App/usbd_desc.c **** /** @defgroup USBD_DESC_Private_Variables USBD_DESC_Private_Variables
 129:USB_DEVICE/App/usbd_desc.c ****   * @brief Private variables.
 130:USB_DEVICE/App/usbd_desc.c ****   * @{
 131:USB_DEVICE/App/usbd_desc.c ****   */
 132:USB_DEVICE/App/usbd_desc.c **** 
 133:USB_DEVICE/App/usbd_desc.c **** USBD_DescriptorsTypeDef FS_Desc =
 134:USB_DEVICE/App/usbd_desc.c **** {
 135:USB_DEVICE/App/usbd_desc.c ****   USBD_FS_DeviceDescriptor
 136:USB_DEVICE/App/usbd_desc.c **** , USBD_FS_LangIDStrDescriptor
 137:USB_DEVICE/App/usbd_desc.c **** , USBD_FS_ManufacturerStrDescriptor
 138:USB_DEVICE/App/usbd_desc.c **** , USBD_FS_ProductStrDescriptor
 139:USB_DEVICE/App/usbd_desc.c **** , USBD_FS_SerialStrDescriptor
 140:USB_DEVICE/App/usbd_desc.c **** , USBD_FS_ConfigStrDescriptor
 141:USB_DEVICE/App/usbd_desc.c **** , USBD_FS_InterfaceStrDescriptor
 142:USB_DEVICE/App/usbd_desc.c **** };
 143:USB_DEVICE/App/usbd_desc.c **** 
 144:USB_DEVICE/App/usbd_desc.c **** #if defined ( __ICCARM__ ) /* IAR Compiler */
 145:USB_DEVICE/App/usbd_desc.c ****   #pragma data_alignment=4
ARM GAS  /tmp/cc1ubFXS.s 			page 4


 146:USB_DEVICE/App/usbd_desc.c **** #endif /* defined ( __ICCARM__ ) */
 147:USB_DEVICE/App/usbd_desc.c **** /** USB standard device descriptor. */
 148:USB_DEVICE/App/usbd_desc.c **** __ALIGN_BEGIN uint8_t USBD_FS_DeviceDesc[USB_LEN_DEV_DESC] __ALIGN_END =
 149:USB_DEVICE/App/usbd_desc.c **** {
 150:USB_DEVICE/App/usbd_desc.c ****   0x12,                       /*bLength */
 151:USB_DEVICE/App/usbd_desc.c ****   USB_DESC_TYPE_DEVICE,       /*bDescriptorType*/
 152:USB_DEVICE/App/usbd_desc.c ****   0x00,                       /*bcdUSB */
 153:USB_DEVICE/App/usbd_desc.c ****   0x02,
 154:USB_DEVICE/App/usbd_desc.c ****   0x02,                       /*bDeviceClass*/
 155:USB_DEVICE/App/usbd_desc.c ****   0x02,                       /*bDeviceSubClass*/
 156:USB_DEVICE/App/usbd_desc.c ****   0x00,                       /*bDeviceProtocol*/
 157:USB_DEVICE/App/usbd_desc.c ****   USB_MAX_EP0_SIZE,           /*bMaxPacketSize*/
 158:USB_DEVICE/App/usbd_desc.c ****   LOBYTE(USBD_VID),           /*idVendor*/
 159:USB_DEVICE/App/usbd_desc.c ****   HIBYTE(USBD_VID),           /*idVendor*/
 160:USB_DEVICE/App/usbd_desc.c ****   LOBYTE(USBD_PID_FS),        /*idProduct*/
 161:USB_DEVICE/App/usbd_desc.c ****   HIBYTE(USBD_PID_FS),        /*idProduct*/
 162:USB_DEVICE/App/usbd_desc.c ****   0x00,                       /*bcdDevice rel. 2.00*/
 163:USB_DEVICE/App/usbd_desc.c ****   0x02,
 164:USB_DEVICE/App/usbd_desc.c ****   USBD_IDX_MFC_STR,           /*Index of manufacturer  string*/
 165:USB_DEVICE/App/usbd_desc.c ****   USBD_IDX_PRODUCT_STR,       /*Index of product string*/
 166:USB_DEVICE/App/usbd_desc.c ****   USBD_IDX_SERIAL_STR,        /*Index of serial number string*/
 167:USB_DEVICE/App/usbd_desc.c ****   USBD_MAX_NUM_CONFIGURATION  /*bNumConfigurations*/
 168:USB_DEVICE/App/usbd_desc.c **** };
 169:USB_DEVICE/App/usbd_desc.c **** 
 170:USB_DEVICE/App/usbd_desc.c **** /* USB_DeviceDescriptor */
 171:USB_DEVICE/App/usbd_desc.c **** 
 172:USB_DEVICE/App/usbd_desc.c **** /**
 173:USB_DEVICE/App/usbd_desc.c ****   * @}
 174:USB_DEVICE/App/usbd_desc.c ****   */
 175:USB_DEVICE/App/usbd_desc.c **** 
 176:USB_DEVICE/App/usbd_desc.c **** /** @defgroup USBD_DESC_Private_Variables USBD_DESC_Private_Variables
 177:USB_DEVICE/App/usbd_desc.c ****   * @brief Private variables.
 178:USB_DEVICE/App/usbd_desc.c ****   * @{
 179:USB_DEVICE/App/usbd_desc.c ****   */
 180:USB_DEVICE/App/usbd_desc.c **** 
 181:USB_DEVICE/App/usbd_desc.c **** #if defined ( __ICCARM__ ) /* IAR Compiler */
 182:USB_DEVICE/App/usbd_desc.c ****   #pragma data_alignment=4
 183:USB_DEVICE/App/usbd_desc.c **** #endif /* defined ( __ICCARM__ ) */
 184:USB_DEVICE/App/usbd_desc.c **** 
 185:USB_DEVICE/App/usbd_desc.c **** /** USB lang indentifier descriptor. */
 186:USB_DEVICE/App/usbd_desc.c **** __ALIGN_BEGIN uint8_t USBD_LangIDDesc[USB_LEN_LANGID_STR_DESC] __ALIGN_END =
 187:USB_DEVICE/App/usbd_desc.c **** {
 188:USB_DEVICE/App/usbd_desc.c ****      USB_LEN_LANGID_STR_DESC,
 189:USB_DEVICE/App/usbd_desc.c ****      USB_DESC_TYPE_STRING,
 190:USB_DEVICE/App/usbd_desc.c ****      LOBYTE(USBD_LANGID_STRING),
 191:USB_DEVICE/App/usbd_desc.c ****      HIBYTE(USBD_LANGID_STRING)
 192:USB_DEVICE/App/usbd_desc.c **** };
 193:USB_DEVICE/App/usbd_desc.c **** 
 194:USB_DEVICE/App/usbd_desc.c **** #if defined ( __ICCARM__ ) /* IAR Compiler */
 195:USB_DEVICE/App/usbd_desc.c ****   #pragma data_alignment=4
 196:USB_DEVICE/App/usbd_desc.c **** #endif /* defined ( __ICCARM__ ) */
 197:USB_DEVICE/App/usbd_desc.c **** /* Internal string descriptor. */
 198:USB_DEVICE/App/usbd_desc.c **** __ALIGN_BEGIN uint8_t USBD_StrDesc[USBD_MAX_STR_DESC_SIZ] __ALIGN_END;
 199:USB_DEVICE/App/usbd_desc.c **** 
 200:USB_DEVICE/App/usbd_desc.c **** #if defined ( __ICCARM__ ) /*!< IAR Compiler */
 201:USB_DEVICE/App/usbd_desc.c ****   #pragma data_alignment=4
 202:USB_DEVICE/App/usbd_desc.c **** #endif
ARM GAS  /tmp/cc1ubFXS.s 			page 5


 203:USB_DEVICE/App/usbd_desc.c **** __ALIGN_BEGIN uint8_t USBD_StringSerial[USB_SIZ_STRING_SERIAL] __ALIGN_END = {
 204:USB_DEVICE/App/usbd_desc.c ****   USB_SIZ_STRING_SERIAL,
 205:USB_DEVICE/App/usbd_desc.c ****   USB_DESC_TYPE_STRING,
 206:USB_DEVICE/App/usbd_desc.c **** };
 207:USB_DEVICE/App/usbd_desc.c **** 
 208:USB_DEVICE/App/usbd_desc.c **** /**
 209:USB_DEVICE/App/usbd_desc.c ****   * @}
 210:USB_DEVICE/App/usbd_desc.c ****   */
 211:USB_DEVICE/App/usbd_desc.c **** 
 212:USB_DEVICE/App/usbd_desc.c **** /** @defgroup USBD_DESC_Private_Functions USBD_DESC_Private_Functions
 213:USB_DEVICE/App/usbd_desc.c ****   * @brief Private functions.
 214:USB_DEVICE/App/usbd_desc.c ****   * @{
 215:USB_DEVICE/App/usbd_desc.c ****   */
 216:USB_DEVICE/App/usbd_desc.c **** 
 217:USB_DEVICE/App/usbd_desc.c **** /**
 218:USB_DEVICE/App/usbd_desc.c ****   * @brief  Return the device descriptor
 219:USB_DEVICE/App/usbd_desc.c ****   * @param  speed : Current device speed
 220:USB_DEVICE/App/usbd_desc.c ****   * @param  length : Pointer to data length variable
 221:USB_DEVICE/App/usbd_desc.c ****   * @retval Pointer to descriptor buffer
 222:USB_DEVICE/App/usbd_desc.c ****   */
 223:USB_DEVICE/App/usbd_desc.c **** uint8_t * USBD_FS_DeviceDescriptor(USBD_SpeedTypeDef speed, uint16_t *length)
 224:USB_DEVICE/App/usbd_desc.c **** {
  28              		.loc 1 224 1 view -0
  29              		.cfi_startproc
  30              		@ args = 0, pretend = 0, frame = 0
  31              		@ frame_needed = 0, uses_anonymous_args = 0
  32              		@ link register save eliminated.
 225:USB_DEVICE/App/usbd_desc.c ****   UNUSED(speed);
  33              		.loc 1 225 3 view .LVU1
 226:USB_DEVICE/App/usbd_desc.c ****   *length = sizeof(USBD_FS_DeviceDesc);
  34              		.loc 1 226 3 view .LVU2
  35              		.loc 1 226 11 is_stmt 0 view .LVU3
  36 0000 1223     		movs	r3, #18
  37 0002 0B80     		strh	r3, [r1]
 227:USB_DEVICE/App/usbd_desc.c ****   return USBD_FS_DeviceDesc;
  38              		.loc 1 227 3 is_stmt 1 view .LVU4
 228:USB_DEVICE/App/usbd_desc.c **** }
  39              		.loc 1 228 1 is_stmt 0 view .LVU5
  40 0004 0048     		ldr	r0, .L2
  41              	.LVL1:
  42              		.loc 1 228 1 view .LVU6
  43              		@ sp needed
  44 0006 7047     		bx	lr
  45              	.L3:
  46              		.align	2
  47              	.L2:
  48 0008 00000000 		.word	.LANCHOR0
  49              		.cfi_endproc
  50              	.LFE37:
  52              		.section	.text.USBD_FS_LangIDStrDescriptor,"ax",%progbits
  53              		.align	1
  54              		.global	USBD_FS_LangIDStrDescriptor
  55              		.syntax unified
  56              		.code	16
  57              		.thumb_func
  59              	USBD_FS_LangIDStrDescriptor:
  60              	.LVL2:
ARM GAS  /tmp/cc1ubFXS.s 			page 6


  61              	.LFB38:
 229:USB_DEVICE/App/usbd_desc.c **** 
 230:USB_DEVICE/App/usbd_desc.c **** /**
 231:USB_DEVICE/App/usbd_desc.c ****   * @brief  Return the LangID string descriptor
 232:USB_DEVICE/App/usbd_desc.c ****   * @param  speed : Current device speed
 233:USB_DEVICE/App/usbd_desc.c ****   * @param  length : Pointer to data length variable
 234:USB_DEVICE/App/usbd_desc.c ****   * @retval Pointer to descriptor buffer
 235:USB_DEVICE/App/usbd_desc.c ****   */
 236:USB_DEVICE/App/usbd_desc.c **** uint8_t * USBD_FS_LangIDStrDescriptor(USBD_SpeedTypeDef speed, uint16_t *length)
 237:USB_DEVICE/App/usbd_desc.c **** {
  62              		.loc 1 237 1 is_stmt 1 view -0
  63              		.cfi_startproc
  64              		@ args = 0, pretend = 0, frame = 0
  65              		@ frame_needed = 0, uses_anonymous_args = 0
  66              		@ link register save eliminated.
 238:USB_DEVICE/App/usbd_desc.c ****   UNUSED(speed);
  67              		.loc 1 238 3 view .LVU8
 239:USB_DEVICE/App/usbd_desc.c ****   *length = sizeof(USBD_LangIDDesc);
  68              		.loc 1 239 3 view .LVU9
  69              		.loc 1 239 11 is_stmt 0 view .LVU10
  70 0000 0423     		movs	r3, #4
  71 0002 0B80     		strh	r3, [r1]
 240:USB_DEVICE/App/usbd_desc.c ****   return USBD_LangIDDesc;
  72              		.loc 1 240 3 is_stmt 1 view .LVU11
 241:USB_DEVICE/App/usbd_desc.c **** }
  73              		.loc 1 241 1 is_stmt 0 view .LVU12
  74 0004 0048     		ldr	r0, .L5
  75              	.LVL3:
  76              		.loc 1 241 1 view .LVU13
  77              		@ sp needed
  78 0006 7047     		bx	lr
  79              	.L6:
  80              		.align	2
  81              	.L5:
  82 0008 00000000 		.word	.LANCHOR1
  83              		.cfi_endproc
  84              	.LFE38:
  86              		.section	.text.IntToUnicode,"ax",%progbits
  87              		.align	1
  88              		.syntax unified
  89              		.code	16
  90              		.thumb_func
  92              	IntToUnicode:
  93              	.LVL4:
  94              	.LFB45:
 242:USB_DEVICE/App/usbd_desc.c **** 
 243:USB_DEVICE/App/usbd_desc.c **** /**
 244:USB_DEVICE/App/usbd_desc.c ****   * @brief  Return the product string descriptor
 245:USB_DEVICE/App/usbd_desc.c ****   * @param  speed : Current device speed
 246:USB_DEVICE/App/usbd_desc.c ****   * @param  length : Pointer to data length variable
 247:USB_DEVICE/App/usbd_desc.c ****   * @retval Pointer to descriptor buffer
 248:USB_DEVICE/App/usbd_desc.c ****   */
 249:USB_DEVICE/App/usbd_desc.c **** uint8_t * USBD_FS_ProductStrDescriptor(USBD_SpeedTypeDef speed, uint16_t *length)
 250:USB_DEVICE/App/usbd_desc.c **** {
 251:USB_DEVICE/App/usbd_desc.c ****   if(speed == 0)
 252:USB_DEVICE/App/usbd_desc.c ****   {
 253:USB_DEVICE/App/usbd_desc.c ****     USBD_GetString((uint8_t *)USBD_PRODUCT_STRING_FS, USBD_StrDesc, length);
ARM GAS  /tmp/cc1ubFXS.s 			page 7


 254:USB_DEVICE/App/usbd_desc.c ****   }
 255:USB_DEVICE/App/usbd_desc.c ****   else
 256:USB_DEVICE/App/usbd_desc.c ****   {
 257:USB_DEVICE/App/usbd_desc.c ****     USBD_GetString((uint8_t *)USBD_PRODUCT_STRING_FS, USBD_StrDesc, length);
 258:USB_DEVICE/App/usbd_desc.c ****   }
 259:USB_DEVICE/App/usbd_desc.c ****   return USBD_StrDesc;
 260:USB_DEVICE/App/usbd_desc.c **** }
 261:USB_DEVICE/App/usbd_desc.c **** 
 262:USB_DEVICE/App/usbd_desc.c **** /**
 263:USB_DEVICE/App/usbd_desc.c ****   * @brief  Return the manufacturer string descriptor
 264:USB_DEVICE/App/usbd_desc.c ****   * @param  speed : Current device speed
 265:USB_DEVICE/App/usbd_desc.c ****   * @param  length : Pointer to data length variable
 266:USB_DEVICE/App/usbd_desc.c ****   * @retval Pointer to descriptor buffer
 267:USB_DEVICE/App/usbd_desc.c ****   */
 268:USB_DEVICE/App/usbd_desc.c **** uint8_t * USBD_FS_ManufacturerStrDescriptor(USBD_SpeedTypeDef speed, uint16_t *length)
 269:USB_DEVICE/App/usbd_desc.c **** {
 270:USB_DEVICE/App/usbd_desc.c ****   UNUSED(speed);
 271:USB_DEVICE/App/usbd_desc.c ****   USBD_GetString((uint8_t *)USBD_MANUFACTURER_STRING, USBD_StrDesc, length);
 272:USB_DEVICE/App/usbd_desc.c ****   return USBD_StrDesc;
 273:USB_DEVICE/App/usbd_desc.c **** }
 274:USB_DEVICE/App/usbd_desc.c **** 
 275:USB_DEVICE/App/usbd_desc.c **** /**
 276:USB_DEVICE/App/usbd_desc.c ****   * @brief  Return the serial number string descriptor
 277:USB_DEVICE/App/usbd_desc.c ****   * @param  speed : Current device speed
 278:USB_DEVICE/App/usbd_desc.c ****   * @param  length : Pointer to data length variable
 279:USB_DEVICE/App/usbd_desc.c ****   * @retval Pointer to descriptor buffer
 280:USB_DEVICE/App/usbd_desc.c ****   */
 281:USB_DEVICE/App/usbd_desc.c **** uint8_t * USBD_FS_SerialStrDescriptor(USBD_SpeedTypeDef speed, uint16_t *length)
 282:USB_DEVICE/App/usbd_desc.c **** {
 283:USB_DEVICE/App/usbd_desc.c ****   UNUSED(speed);
 284:USB_DEVICE/App/usbd_desc.c ****   *length = USB_SIZ_STRING_SERIAL;
 285:USB_DEVICE/App/usbd_desc.c **** 
 286:USB_DEVICE/App/usbd_desc.c ****   /* Update the serial number string descriptor with the data from the unique
 287:USB_DEVICE/App/usbd_desc.c ****    * ID */
 288:USB_DEVICE/App/usbd_desc.c ****   Get_SerialNum();
 289:USB_DEVICE/App/usbd_desc.c ****   /* USER CODE BEGIN USBD_FS_SerialStrDescriptor */
 290:USB_DEVICE/App/usbd_desc.c **** 
 291:USB_DEVICE/App/usbd_desc.c ****   /* USER CODE END USBD_FS_SerialStrDescriptor */
 292:USB_DEVICE/App/usbd_desc.c ****   return (uint8_t *) USBD_StringSerial;
 293:USB_DEVICE/App/usbd_desc.c **** }
 294:USB_DEVICE/App/usbd_desc.c **** 
 295:USB_DEVICE/App/usbd_desc.c **** /**
 296:USB_DEVICE/App/usbd_desc.c ****   * @brief  Return the configuration string descriptor
 297:USB_DEVICE/App/usbd_desc.c ****   * @param  speed : Current device speed
 298:USB_DEVICE/App/usbd_desc.c ****   * @param  length : Pointer to data length variable
 299:USB_DEVICE/App/usbd_desc.c ****   * @retval Pointer to descriptor buffer
 300:USB_DEVICE/App/usbd_desc.c ****   */
 301:USB_DEVICE/App/usbd_desc.c **** uint8_t * USBD_FS_ConfigStrDescriptor(USBD_SpeedTypeDef speed, uint16_t *length)
 302:USB_DEVICE/App/usbd_desc.c **** {
 303:USB_DEVICE/App/usbd_desc.c ****   if(speed == USBD_SPEED_HIGH)
 304:USB_DEVICE/App/usbd_desc.c ****   {
 305:USB_DEVICE/App/usbd_desc.c ****     USBD_GetString((uint8_t *)USBD_CONFIGURATION_STRING_FS, USBD_StrDesc, length);
 306:USB_DEVICE/App/usbd_desc.c ****   }
 307:USB_DEVICE/App/usbd_desc.c ****   else
 308:USB_DEVICE/App/usbd_desc.c ****   {
 309:USB_DEVICE/App/usbd_desc.c ****     USBD_GetString((uint8_t *)USBD_CONFIGURATION_STRING_FS, USBD_StrDesc, length);
 310:USB_DEVICE/App/usbd_desc.c ****   }
ARM GAS  /tmp/cc1ubFXS.s 			page 8


 311:USB_DEVICE/App/usbd_desc.c ****   return USBD_StrDesc;
 312:USB_DEVICE/App/usbd_desc.c **** }
 313:USB_DEVICE/App/usbd_desc.c **** 
 314:USB_DEVICE/App/usbd_desc.c **** /**
 315:USB_DEVICE/App/usbd_desc.c ****   * @brief  Return the interface string descriptor
 316:USB_DEVICE/App/usbd_desc.c ****   * @param  speed : Current device speed
 317:USB_DEVICE/App/usbd_desc.c ****   * @param  length : Pointer to data length variable
 318:USB_DEVICE/App/usbd_desc.c ****   * @retval Pointer to descriptor buffer
 319:USB_DEVICE/App/usbd_desc.c ****   */
 320:USB_DEVICE/App/usbd_desc.c **** uint8_t * USBD_FS_InterfaceStrDescriptor(USBD_SpeedTypeDef speed, uint16_t *length)
 321:USB_DEVICE/App/usbd_desc.c **** {
 322:USB_DEVICE/App/usbd_desc.c ****   if(speed == 0)
 323:USB_DEVICE/App/usbd_desc.c ****   {
 324:USB_DEVICE/App/usbd_desc.c ****     USBD_GetString((uint8_t *)USBD_INTERFACE_STRING_FS, USBD_StrDesc, length);
 325:USB_DEVICE/App/usbd_desc.c ****   }
 326:USB_DEVICE/App/usbd_desc.c ****   else
 327:USB_DEVICE/App/usbd_desc.c ****   {
 328:USB_DEVICE/App/usbd_desc.c ****     USBD_GetString((uint8_t *)USBD_INTERFACE_STRING_FS, USBD_StrDesc, length);
 329:USB_DEVICE/App/usbd_desc.c ****   }
 330:USB_DEVICE/App/usbd_desc.c ****   return USBD_StrDesc;
 331:USB_DEVICE/App/usbd_desc.c **** }
 332:USB_DEVICE/App/usbd_desc.c **** 
 333:USB_DEVICE/App/usbd_desc.c **** /**
 334:USB_DEVICE/App/usbd_desc.c ****   * @brief  Create the serial number string descriptor
 335:USB_DEVICE/App/usbd_desc.c ****   * @param  None
 336:USB_DEVICE/App/usbd_desc.c ****   * @retval None
 337:USB_DEVICE/App/usbd_desc.c ****   */
 338:USB_DEVICE/App/usbd_desc.c **** static void Get_SerialNum(void)
 339:USB_DEVICE/App/usbd_desc.c **** {
 340:USB_DEVICE/App/usbd_desc.c ****   uint32_t deviceserial0, deviceserial1, deviceserial2;
 341:USB_DEVICE/App/usbd_desc.c **** 
 342:USB_DEVICE/App/usbd_desc.c ****   deviceserial0 = *(uint32_t *) DEVICE_ID1;
 343:USB_DEVICE/App/usbd_desc.c ****   deviceserial1 = *(uint32_t *) DEVICE_ID2;
 344:USB_DEVICE/App/usbd_desc.c ****   deviceserial2 = *(uint32_t *) DEVICE_ID3;
 345:USB_DEVICE/App/usbd_desc.c **** 
 346:USB_DEVICE/App/usbd_desc.c ****   deviceserial0 += deviceserial2;
 347:USB_DEVICE/App/usbd_desc.c **** 
 348:USB_DEVICE/App/usbd_desc.c ****   if (deviceserial0 != 0)
 349:USB_DEVICE/App/usbd_desc.c ****   {
 350:USB_DEVICE/App/usbd_desc.c ****     IntToUnicode(deviceserial0, &USBD_StringSerial[2], 8);
 351:USB_DEVICE/App/usbd_desc.c ****     IntToUnicode(deviceserial1, &USBD_StringSerial[18], 4);
 352:USB_DEVICE/App/usbd_desc.c ****   }
 353:USB_DEVICE/App/usbd_desc.c **** }
 354:USB_DEVICE/App/usbd_desc.c **** 
 355:USB_DEVICE/App/usbd_desc.c **** /**
 356:USB_DEVICE/App/usbd_desc.c ****   * @brief  Convert Hex 32Bits value into char
 357:USB_DEVICE/App/usbd_desc.c ****   * @param  value: value to convert
 358:USB_DEVICE/App/usbd_desc.c ****   * @param  pbuf: pointer to the buffer
 359:USB_DEVICE/App/usbd_desc.c ****   * @param  len: buffer length
 360:USB_DEVICE/App/usbd_desc.c ****   * @retval None
 361:USB_DEVICE/App/usbd_desc.c ****   */
 362:USB_DEVICE/App/usbd_desc.c **** static void IntToUnicode(uint32_t value, uint8_t * pbuf, uint8_t len)
 363:USB_DEVICE/App/usbd_desc.c **** {
  95              		.loc 1 363 1 is_stmt 1 view -0
  96              		.cfi_startproc
  97              		@ args = 0, pretend = 0, frame = 0
  98              		@ frame_needed = 0, uses_anonymous_args = 0
ARM GAS  /tmp/cc1ubFXS.s 			page 9


  99              		.loc 1 363 1 is_stmt 0 view .LVU15
 100 0000 30B5     		push	{r4, r5, lr}
 101              	.LCFI0:
 102              		.cfi_def_cfa_offset 12
 103              		.cfi_offset 4, -12
 104              		.cfi_offset 5, -8
 105              		.cfi_offset 14, -4
 364:USB_DEVICE/App/usbd_desc.c ****   uint8_t idx = 0;
 106              		.loc 1 364 3 is_stmt 1 view .LVU16
 107              	.LVL5:
 365:USB_DEVICE/App/usbd_desc.c **** 
 366:USB_DEVICE/App/usbd_desc.c ****   for (idx = 0; idx < len; idx++)
 108              		.loc 1 366 3 view .LVU17
 109              		.loc 1 366 12 is_stmt 0 view .LVU18
 110 0002 0023     		movs	r3, #0
 111              		.loc 1 366 3 view .LVU19
 112 0004 0AE0     		b	.L8
 113              	.LVL6:
 114              	.L9:
 367:USB_DEVICE/App/usbd_desc.c ****   {
 368:USB_DEVICE/App/usbd_desc.c ****     if (((value >> 28)) < 0xA)
 369:USB_DEVICE/App/usbd_desc.c ****     {
 370:USB_DEVICE/App/usbd_desc.c ****       pbuf[2 * idx] = (value >> 28) + '0';
 371:USB_DEVICE/App/usbd_desc.c ****     }
 372:USB_DEVICE/App/usbd_desc.c ****     else
 373:USB_DEVICE/App/usbd_desc.c ****     {
 374:USB_DEVICE/App/usbd_desc.c ****       pbuf[2 * idx] = (value >> 28) + 'A' - 10;
 115              		.loc 1 374 7 is_stmt 1 view .LVU20
 116              		.loc 1 374 14 is_stmt 0 view .LVU21
 117 0006 5D00     		lsls	r5, r3, #1
 118              		.loc 1 374 43 view .LVU22
 119 0008 3734     		adds	r4, r4, #55
 120              		.loc 1 374 21 view .LVU23
 121 000a 4C55     		strb	r4, [r1, r5]
 122              	.L10:
 375:USB_DEVICE/App/usbd_desc.c ****     }
 376:USB_DEVICE/App/usbd_desc.c **** 
 377:USB_DEVICE/App/usbd_desc.c ****     value = value << 4;
 123              		.loc 1 377 5 is_stmt 1 discriminator 2 view .LVU24
 124              		.loc 1 377 11 is_stmt 0 discriminator 2 view .LVU25
 125 000c 0001     		lsls	r0, r0, #4
 126              	.LVL7:
 378:USB_DEVICE/App/usbd_desc.c **** 
 379:USB_DEVICE/App/usbd_desc.c ****     pbuf[2 * idx + 1] = 0;
 127              		.loc 1 379 5 is_stmt 1 discriminator 2 view .LVU26
 128              		.loc 1 379 12 is_stmt 0 discriminator 2 view .LVU27
 129 000e 5C00     		lsls	r4, r3, #1
 130              		.loc 1 379 9 discriminator 2 view .LVU28
 131 0010 0134     		adds	r4, r4, #1
 132 0012 0C19     		adds	r4, r1, r4
 133              		.loc 1 379 23 discriminator 2 view .LVU29
 134 0014 0025     		movs	r5, #0
 135 0016 2570     		strb	r5, [r4]
 366:USB_DEVICE/App/usbd_desc.c ****   {
 136              		.loc 1 366 28 is_stmt 1 discriminator 2 view .LVU30
 366:USB_DEVICE/App/usbd_desc.c ****   {
 137              		.loc 1 366 31 is_stmt 0 discriminator 2 view .LVU31
ARM GAS  /tmp/cc1ubFXS.s 			page 10


 138 0018 0133     		adds	r3, r3, #1
 139              	.LVL8:
 366:USB_DEVICE/App/usbd_desc.c ****   {
 140              		.loc 1 366 31 discriminator 2 view .LVU32
 141 001a DBB2     		uxtb	r3, r3
 142              	.LVL9:
 143              	.L8:
 366:USB_DEVICE/App/usbd_desc.c ****   {
 144              		.loc 1 366 17 is_stmt 1 discriminator 1 view .LVU33
 366:USB_DEVICE/App/usbd_desc.c ****   {
 145              		.loc 1 366 3 is_stmt 0 discriminator 1 view .LVU34
 146 001c 9342     		cmp	r3, r2
 147 001e 06D2     		bcs	.L12
 368:USB_DEVICE/App/usbd_desc.c ****     {
 148              		.loc 1 368 5 is_stmt 1 view .LVU35
 368:USB_DEVICE/App/usbd_desc.c ****     {
 149              		.loc 1 368 17 is_stmt 0 view .LVU36
 150 0020 040F     		lsrs	r4, r0, #28
 368:USB_DEVICE/App/usbd_desc.c ****     {
 151              		.loc 1 368 8 view .LVU37
 152 0022 092C     		cmp	r4, #9
 153 0024 EFD8     		bhi	.L9
 370:USB_DEVICE/App/usbd_desc.c ****     }
 154              		.loc 1 370 7 is_stmt 1 view .LVU38
 370:USB_DEVICE/App/usbd_desc.c ****     }
 155              		.loc 1 370 14 is_stmt 0 view .LVU39
 156 0026 5D00     		lsls	r5, r3, #1
 370:USB_DEVICE/App/usbd_desc.c ****     }
 157              		.loc 1 370 37 view .LVU40
 158 0028 3034     		adds	r4, r4, #48
 370:USB_DEVICE/App/usbd_desc.c ****     }
 159              		.loc 1 370 21 view .LVU41
 160 002a 4C55     		strb	r4, [r1, r5]
 161 002c EEE7     		b	.L10
 162              	.L12:
 380:USB_DEVICE/App/usbd_desc.c ****   }
 381:USB_DEVICE/App/usbd_desc.c **** }
 163              		.loc 1 381 1 view .LVU42
 164              		@ sp needed
 165 002e 30BD     		pop	{r4, r5, pc}
 166              		.cfi_endproc
 167              	.LFE45:
 169              		.section	.text.Get_SerialNum,"ax",%progbits
 170              		.align	1
 171              		.syntax unified
 172              		.code	16
 173              		.thumb_func
 175              	Get_SerialNum:
 176              	.LFB44:
 339:USB_DEVICE/App/usbd_desc.c ****   uint32_t deviceserial0, deviceserial1, deviceserial2;
 177              		.loc 1 339 1 is_stmt 1 view -0
 178              		.cfi_startproc
 179              		@ args = 0, pretend = 0, frame = 0
 180              		@ frame_needed = 0, uses_anonymous_args = 0
 181 0000 70B5     		push	{r4, r5, r6, lr}
 182              	.LCFI1:
 183              		.cfi_def_cfa_offset 16
ARM GAS  /tmp/cc1ubFXS.s 			page 11


 184              		.cfi_offset 4, -16
 185              		.cfi_offset 5, -12
 186              		.cfi_offset 6, -8
 187              		.cfi_offset 14, -4
 340:USB_DEVICE/App/usbd_desc.c **** 
 188              		.loc 1 340 3 view .LVU44
 342:USB_DEVICE/App/usbd_desc.c ****   deviceserial1 = *(uint32_t *) DEVICE_ID2;
 189              		.loc 1 342 3 view .LVU45
 342:USB_DEVICE/App/usbd_desc.c ****   deviceserial1 = *(uint32_t *) DEVICE_ID2;
 190              		.loc 1 342 17 is_stmt 0 view .LVU46
 191 0002 0B4B     		ldr	r3, .L16
 192 0004 1868     		ldr	r0, [r3]
 193              	.LVL10:
 343:USB_DEVICE/App/usbd_desc.c ****   deviceserial2 = *(uint32_t *) DEVICE_ID3;
 194              		.loc 1 343 3 is_stmt 1 view .LVU47
 343:USB_DEVICE/App/usbd_desc.c ****   deviceserial2 = *(uint32_t *) DEVICE_ID3;
 195              		.loc 1 343 17 is_stmt 0 view .LVU48
 196 0006 0B4B     		ldr	r3, .L16+4
 197 0008 1D68     		ldr	r5, [r3]
 198              	.LVL11:
 344:USB_DEVICE/App/usbd_desc.c **** 
 199              		.loc 1 344 3 is_stmt 1 view .LVU49
 344:USB_DEVICE/App/usbd_desc.c **** 
 200              		.loc 1 344 17 is_stmt 0 view .LVU50
 201 000a 0B4B     		ldr	r3, .L16+8
 202 000c 1B68     		ldr	r3, [r3]
 203              	.LVL12:
 346:USB_DEVICE/App/usbd_desc.c **** 
 204              		.loc 1 346 3 is_stmt 1 view .LVU51
 346:USB_DEVICE/App/usbd_desc.c **** 
 205              		.loc 1 346 17 is_stmt 0 view .LVU52
 206 000e C018     		adds	r0, r0, r3
 207              	.LVL13:
 348:USB_DEVICE/App/usbd_desc.c ****   {
 208              		.loc 1 348 3 is_stmt 1 view .LVU53
 348:USB_DEVICE/App/usbd_desc.c ****   {
 209              		.loc 1 348 6 is_stmt 0 view .LVU54
 210 0010 0028     		cmp	r0, #0
 211 0012 00D1     		bne	.L15
 212              	.LVL14:
 213              	.L13:
 353:USB_DEVICE/App/usbd_desc.c **** 
 214              		.loc 1 353 1 view .LVU55
 215              		@ sp needed
 216              	.LVL15:
 353:USB_DEVICE/App/usbd_desc.c **** 
 217              		.loc 1 353 1 view .LVU56
 218 0014 70BD     		pop	{r4, r5, r6, pc}
 219              	.LVL16:
 220              	.L15:
 350:USB_DEVICE/App/usbd_desc.c ****     IntToUnicode(deviceserial1, &USBD_StringSerial[18], 4);
 221              		.loc 1 350 5 is_stmt 1 view .LVU57
 222 0016 094C     		ldr	r4, .L16+12
 223 0018 A11C     		adds	r1, r4, #2
 224 001a 0822     		movs	r2, #8
 225 001c FFF7FEFF 		bl	IntToUnicode
 226              	.LVL17:
ARM GAS  /tmp/cc1ubFXS.s 			page 12


 351:USB_DEVICE/App/usbd_desc.c ****   }
 227              		.loc 1 351 5 view .LVU58
 228 0020 2100     		movs	r1, r4
 229 0022 1231     		adds	r1, r1, #18
 230 0024 0422     		movs	r2, #4
 231 0026 2800     		movs	r0, r5
 232 0028 FFF7FEFF 		bl	IntToUnicode
 233              	.LVL18:
 353:USB_DEVICE/App/usbd_desc.c **** 
 234              		.loc 1 353 1 is_stmt 0 view .LVU59
 235 002c F2E7     		b	.L13
 236              	.L17:
 237 002e C046     		.align	2
 238              	.L16:
 239 0030 5000F81F 		.word	536346704
 240 0034 5400F81F 		.word	536346708
 241 0038 5800F81F 		.word	536346712
 242 003c 00000000 		.word	.LANCHOR2
 243              		.cfi_endproc
 244              	.LFE44:
 246              		.section	.text.USBD_FS_SerialStrDescriptor,"ax",%progbits
 247              		.align	1
 248              		.global	USBD_FS_SerialStrDescriptor
 249              		.syntax unified
 250              		.code	16
 251              		.thumb_func
 253              	USBD_FS_SerialStrDescriptor:
 254              	.LVL19:
 255              	.LFB41:
 282:USB_DEVICE/App/usbd_desc.c ****   UNUSED(speed);
 256              		.loc 1 282 1 is_stmt 1 view -0
 257              		.cfi_startproc
 258              		@ args = 0, pretend = 0, frame = 0
 259              		@ frame_needed = 0, uses_anonymous_args = 0
 282:USB_DEVICE/App/usbd_desc.c ****   UNUSED(speed);
 260              		.loc 1 282 1 is_stmt 0 view .LVU61
 261 0000 10B5     		push	{r4, lr}
 262              	.LCFI2:
 263              		.cfi_def_cfa_offset 8
 264              		.cfi_offset 4, -8
 265              		.cfi_offset 14, -4
 283:USB_DEVICE/App/usbd_desc.c ****   *length = USB_SIZ_STRING_SERIAL;
 266              		.loc 1 283 3 is_stmt 1 view .LVU62
 284:USB_DEVICE/App/usbd_desc.c **** 
 267              		.loc 1 284 3 view .LVU63
 284:USB_DEVICE/App/usbd_desc.c **** 
 268              		.loc 1 284 11 is_stmt 0 view .LVU64
 269 0002 1A23     		movs	r3, #26
 270 0004 0B80     		strh	r3, [r1]
 288:USB_DEVICE/App/usbd_desc.c ****   /* USER CODE BEGIN USBD_FS_SerialStrDescriptor */
 271              		.loc 1 288 3 is_stmt 1 view .LVU65
 272 0006 FFF7FEFF 		bl	Get_SerialNum
 273              	.LVL20:
 292:USB_DEVICE/App/usbd_desc.c **** }
 274              		.loc 1 292 3 view .LVU66
 293:USB_DEVICE/App/usbd_desc.c **** 
 275              		.loc 1 293 1 is_stmt 0 view .LVU67
ARM GAS  /tmp/cc1ubFXS.s 			page 13


 276 000a 0148     		ldr	r0, .L19
 277              		@ sp needed
 278 000c 10BD     		pop	{r4, pc}
 279              	.L20:
 280 000e C046     		.align	2
 281              	.L19:
 282 0010 00000000 		.word	.LANCHOR2
 283              		.cfi_endproc
 284              	.LFE41:
 286              		.section	.rodata.USBD_FS_ProductStrDescriptor.str1.4,"aMS",%progbits,1
 287              		.align	2
 288              	.LC7:
 289 0000 53544D33 		.ascii	"STM32 Virtual ComPort\000"
 289      32205669 
 289      72747561 
 289      6C20436F 
 289      6D506F72 
 290              		.section	.text.USBD_FS_ProductStrDescriptor,"ax",%progbits
 291              		.align	1
 292              		.global	USBD_FS_ProductStrDescriptor
 293              		.syntax unified
 294              		.code	16
 295              		.thumb_func
 297              	USBD_FS_ProductStrDescriptor:
 298              	.LVL21:
 299              	.LFB39:
 250:USB_DEVICE/App/usbd_desc.c ****   if(speed == 0)
 300              		.loc 1 250 1 is_stmt 1 view -0
 301              		.cfi_startproc
 302              		@ args = 0, pretend = 0, frame = 0
 303              		@ frame_needed = 0, uses_anonymous_args = 0
 250:USB_DEVICE/App/usbd_desc.c ****   if(speed == 0)
 304              		.loc 1 250 1 is_stmt 0 view .LVU69
 305 0000 10B5     		push	{r4, lr}
 306              	.LCFI3:
 307              		.cfi_def_cfa_offset 8
 308              		.cfi_offset 4, -8
 309              		.cfi_offset 14, -4
 310 0002 0A00     		movs	r2, r1
 251:USB_DEVICE/App/usbd_desc.c ****   {
 311              		.loc 1 251 3 is_stmt 1 view .LVU70
 251:USB_DEVICE/App/usbd_desc.c ****   {
 312              		.loc 1 251 5 is_stmt 0 view .LVU71
 313 0004 0028     		cmp	r0, #0
 314 0006 05D1     		bne	.L22
 253:USB_DEVICE/App/usbd_desc.c ****   }
 315              		.loc 1 253 5 is_stmt 1 view .LVU72
 316 0008 0549     		ldr	r1, .L24
 317              	.LVL22:
 253:USB_DEVICE/App/usbd_desc.c ****   }
 318              		.loc 1 253 5 is_stmt 0 view .LVU73
 319 000a 0648     		ldr	r0, .L24+4
 320              	.LVL23:
 253:USB_DEVICE/App/usbd_desc.c ****   }
 321              		.loc 1 253 5 view .LVU74
 322 000c FFF7FEFF 		bl	USBD_GetString
 323              	.LVL24:
ARM GAS  /tmp/cc1ubFXS.s 			page 14


 324              	.L23:
 259:USB_DEVICE/App/usbd_desc.c **** }
 325              		.loc 1 259 3 is_stmt 1 view .LVU75
 260:USB_DEVICE/App/usbd_desc.c **** 
 326              		.loc 1 260 1 is_stmt 0 view .LVU76
 327 0010 0348     		ldr	r0, .L24
 328              		@ sp needed
 329 0012 10BD     		pop	{r4, pc}
 330              	.LVL25:
 331              	.L22:
 257:USB_DEVICE/App/usbd_desc.c ****   }
 332              		.loc 1 257 5 is_stmt 1 view .LVU77
 333 0014 0249     		ldr	r1, .L24
 334              	.LVL26:
 257:USB_DEVICE/App/usbd_desc.c ****   }
 335              		.loc 1 257 5 is_stmt 0 view .LVU78
 336 0016 0348     		ldr	r0, .L24+4
 337              	.LVL27:
 257:USB_DEVICE/App/usbd_desc.c ****   }
 338              		.loc 1 257 5 view .LVU79
 339 0018 FFF7FEFF 		bl	USBD_GetString
 340              	.LVL28:
 257:USB_DEVICE/App/usbd_desc.c ****   }
 341              		.loc 1 257 5 view .LVU80
 342 001c F8E7     		b	.L23
 343              	.L25:
 344 001e C046     		.align	2
 345              	.L24:
 346 0020 00000000 		.word	USBD_StrDesc
 347 0024 00000000 		.word	.LC7
 348              		.cfi_endproc
 349              	.LFE39:
 351              		.section	.rodata.USBD_FS_ManufacturerStrDescriptor.str1.4,"aMS",%progbits,1
 352              		.align	2
 353              	.LC10:
 354 0000 53544D69 		.ascii	"STMicroelectronics\000"
 354      63726F65 
 354      6C656374 
 354      726F6E69 
 354      637300
 355              		.section	.text.USBD_FS_ManufacturerStrDescriptor,"ax",%progbits
 356              		.align	1
 357              		.global	USBD_FS_ManufacturerStrDescriptor
 358              		.syntax unified
 359              		.code	16
 360              		.thumb_func
 362              	USBD_FS_ManufacturerStrDescriptor:
 363              	.LVL29:
 364              	.LFB40:
 269:USB_DEVICE/App/usbd_desc.c ****   UNUSED(speed);
 365              		.loc 1 269 1 is_stmt 1 view -0
 366              		.cfi_startproc
 367              		@ args = 0, pretend = 0, frame = 0
 368              		@ frame_needed = 0, uses_anonymous_args = 0
 269:USB_DEVICE/App/usbd_desc.c ****   UNUSED(speed);
 369              		.loc 1 269 1 is_stmt 0 view .LVU82
 370 0000 10B5     		push	{r4, lr}
ARM GAS  /tmp/cc1ubFXS.s 			page 15


 371              	.LCFI4:
 372              		.cfi_def_cfa_offset 8
 373              		.cfi_offset 4, -8
 374              		.cfi_offset 14, -4
 375 0002 0A00     		movs	r2, r1
 270:USB_DEVICE/App/usbd_desc.c ****   USBD_GetString((uint8_t *)USBD_MANUFACTURER_STRING, USBD_StrDesc, length);
 376              		.loc 1 270 3 is_stmt 1 view .LVU83
 271:USB_DEVICE/App/usbd_desc.c ****   return USBD_StrDesc;
 377              		.loc 1 271 3 view .LVU84
 378 0004 034C     		ldr	r4, .L27
 379 0006 2100     		movs	r1, r4
 380              	.LVL30:
 271:USB_DEVICE/App/usbd_desc.c ****   return USBD_StrDesc;
 381              		.loc 1 271 3 is_stmt 0 view .LVU85
 382 0008 0348     		ldr	r0, .L27+4
 383              	.LVL31:
 271:USB_DEVICE/App/usbd_desc.c ****   return USBD_StrDesc;
 384              		.loc 1 271 3 view .LVU86
 385 000a FFF7FEFF 		bl	USBD_GetString
 386              	.LVL32:
 272:USB_DEVICE/App/usbd_desc.c **** }
 387              		.loc 1 272 3 is_stmt 1 view .LVU87
 273:USB_DEVICE/App/usbd_desc.c **** 
 388              		.loc 1 273 1 is_stmt 0 view .LVU88
 389 000e 2000     		movs	r0, r4
 390              		@ sp needed
 391 0010 10BD     		pop	{r4, pc}
 392              	.L28:
 393 0012 C046     		.align	2
 394              	.L27:
 395 0014 00000000 		.word	USBD_StrDesc
 396 0018 00000000 		.word	.LC10
 397              		.cfi_endproc
 398              	.LFE40:
 400              		.section	.rodata.USBD_FS_ConfigStrDescriptor.str1.4,"aMS",%progbits,1
 401              		.align	2
 402              	.LC13:
 403 0000 43444320 		.ascii	"CDC Config\000"
 403      436F6E66 
 403      696700
 404              		.section	.text.USBD_FS_ConfigStrDescriptor,"ax",%progbits
 405              		.align	1
 406              		.global	USBD_FS_ConfigStrDescriptor
 407              		.syntax unified
 408              		.code	16
 409              		.thumb_func
 411              	USBD_FS_ConfigStrDescriptor:
 412              	.LVL33:
 413              	.LFB42:
 302:USB_DEVICE/App/usbd_desc.c ****   if(speed == USBD_SPEED_HIGH)
 414              		.loc 1 302 1 is_stmt 1 view -0
 415              		.cfi_startproc
 416              		@ args = 0, pretend = 0, frame = 0
 417              		@ frame_needed = 0, uses_anonymous_args = 0
 302:USB_DEVICE/App/usbd_desc.c ****   if(speed == USBD_SPEED_HIGH)
 418              		.loc 1 302 1 is_stmt 0 view .LVU90
 419 0000 10B5     		push	{r4, lr}
ARM GAS  /tmp/cc1ubFXS.s 			page 16


 420              	.LCFI5:
 421              		.cfi_def_cfa_offset 8
 422              		.cfi_offset 4, -8
 423              		.cfi_offset 14, -4
 424 0002 0A00     		movs	r2, r1
 303:USB_DEVICE/App/usbd_desc.c ****   {
 425              		.loc 1 303 3 is_stmt 1 view .LVU91
 303:USB_DEVICE/App/usbd_desc.c ****   {
 426              		.loc 1 303 5 is_stmt 0 view .LVU92
 427 0004 0028     		cmp	r0, #0
 428 0006 05D1     		bne	.L30
 305:USB_DEVICE/App/usbd_desc.c ****   }
 429              		.loc 1 305 5 is_stmt 1 view .LVU93
 430 0008 0549     		ldr	r1, .L32
 431              	.LVL34:
 305:USB_DEVICE/App/usbd_desc.c ****   }
 432              		.loc 1 305 5 is_stmt 0 view .LVU94
 433 000a 0648     		ldr	r0, .L32+4
 434              	.LVL35:
 305:USB_DEVICE/App/usbd_desc.c ****   }
 435              		.loc 1 305 5 view .LVU95
 436 000c FFF7FEFF 		bl	USBD_GetString
 437              	.LVL36:
 438              	.L31:
 311:USB_DEVICE/App/usbd_desc.c **** }
 439              		.loc 1 311 3 is_stmt 1 view .LVU96
 312:USB_DEVICE/App/usbd_desc.c **** 
 440              		.loc 1 312 1 is_stmt 0 view .LVU97
 441 0010 0348     		ldr	r0, .L32
 442              		@ sp needed
 443 0012 10BD     		pop	{r4, pc}
 444              	.LVL37:
 445              	.L30:
 309:USB_DEVICE/App/usbd_desc.c ****   }
 446              		.loc 1 309 5 is_stmt 1 view .LVU98
 447 0014 0249     		ldr	r1, .L32
 448              	.LVL38:
 309:USB_DEVICE/App/usbd_desc.c ****   }
 449              		.loc 1 309 5 is_stmt 0 view .LVU99
 450 0016 0348     		ldr	r0, .L32+4
 451              	.LVL39:
 309:USB_DEVICE/App/usbd_desc.c ****   }
 452              		.loc 1 309 5 view .LVU100
 453 0018 FFF7FEFF 		bl	USBD_GetString
 454              	.LVL40:
 309:USB_DEVICE/App/usbd_desc.c ****   }
 455              		.loc 1 309 5 view .LVU101
 456 001c F8E7     		b	.L31
 457              	.L33:
 458 001e C046     		.align	2
 459              	.L32:
 460 0020 00000000 		.word	USBD_StrDesc
 461 0024 00000000 		.word	.LC13
 462              		.cfi_endproc
 463              	.LFE42:
 465              		.section	.rodata.USBD_FS_InterfaceStrDescriptor.str1.4,"aMS",%progbits,1
 466              		.align	2
ARM GAS  /tmp/cc1ubFXS.s 			page 17


 467              	.LC16:
 468 0000 43444320 		.ascii	"CDC Interface\000"
 468      496E7465 
 468      72666163 
 468      6500
 469              		.section	.text.USBD_FS_InterfaceStrDescriptor,"ax",%progbits
 470              		.align	1
 471              		.global	USBD_FS_InterfaceStrDescriptor
 472              		.syntax unified
 473              		.code	16
 474              		.thumb_func
 476              	USBD_FS_InterfaceStrDescriptor:
 477              	.LVL41:
 478              	.LFB43:
 321:USB_DEVICE/App/usbd_desc.c ****   if(speed == 0)
 479              		.loc 1 321 1 is_stmt 1 view -0
 480              		.cfi_startproc
 481              		@ args = 0, pretend = 0, frame = 0
 482              		@ frame_needed = 0, uses_anonymous_args = 0
 321:USB_DEVICE/App/usbd_desc.c ****   if(speed == 0)
 483              		.loc 1 321 1 is_stmt 0 view .LVU103
 484 0000 10B5     		push	{r4, lr}
 485              	.LCFI6:
 486              		.cfi_def_cfa_offset 8
 487              		.cfi_offset 4, -8
 488              		.cfi_offset 14, -4
 489 0002 0A00     		movs	r2, r1
 322:USB_DEVICE/App/usbd_desc.c ****   {
 490              		.loc 1 322 3 is_stmt 1 view .LVU104
 322:USB_DEVICE/App/usbd_desc.c ****   {
 491              		.loc 1 322 5 is_stmt 0 view .LVU105
 492 0004 0028     		cmp	r0, #0
 493 0006 05D1     		bne	.L35
 324:USB_DEVICE/App/usbd_desc.c ****   }
 494              		.loc 1 324 5 is_stmt 1 view .LVU106
 495 0008 0549     		ldr	r1, .L37
 496              	.LVL42:
 324:USB_DEVICE/App/usbd_desc.c ****   }
 497              		.loc 1 324 5 is_stmt 0 view .LVU107
 498 000a 0648     		ldr	r0, .L37+4
 499              	.LVL43:
 324:USB_DEVICE/App/usbd_desc.c ****   }
 500              		.loc 1 324 5 view .LVU108
 501 000c FFF7FEFF 		bl	USBD_GetString
 502              	.LVL44:
 503              	.L36:
 330:USB_DEVICE/App/usbd_desc.c **** }
 504              		.loc 1 330 3 is_stmt 1 view .LVU109
 331:USB_DEVICE/App/usbd_desc.c **** 
 505              		.loc 1 331 1 is_stmt 0 view .LVU110
 506 0010 0348     		ldr	r0, .L37
 507              		@ sp needed
 508 0012 10BD     		pop	{r4, pc}
 509              	.LVL45:
 510              	.L35:
 328:USB_DEVICE/App/usbd_desc.c ****   }
 511              		.loc 1 328 5 is_stmt 1 view .LVU111
ARM GAS  /tmp/cc1ubFXS.s 			page 18


 512 0014 0249     		ldr	r1, .L37
 513              	.LVL46:
 328:USB_DEVICE/App/usbd_desc.c ****   }
 514              		.loc 1 328 5 is_stmt 0 view .LVU112
 515 0016 0348     		ldr	r0, .L37+4
 516              	.LVL47:
 328:USB_DEVICE/App/usbd_desc.c ****   }
 517              		.loc 1 328 5 view .LVU113
 518 0018 FFF7FEFF 		bl	USBD_GetString
 519              	.LVL48:
 328:USB_DEVICE/App/usbd_desc.c ****   }
 520              		.loc 1 328 5 view .LVU114
 521 001c F8E7     		b	.L36
 522              	.L38:
 523 001e C046     		.align	2
 524              	.L37:
 525 0020 00000000 		.word	USBD_StrDesc
 526 0024 00000000 		.word	.LC16
 527              		.cfi_endproc
 528              	.LFE43:
 530              		.global	USBD_StringSerial
 531              		.global	USBD_StrDesc
 532              		.global	USBD_LangIDDesc
 533              		.global	USBD_FS_DeviceDesc
 534              		.global	FS_Desc
 535              		.section	.bss.USBD_StrDesc,"aw",%nobits
 536              		.align	2
 539              	USBD_StrDesc:
 540 0000 00000000 		.space	512
 540      00000000 
 540      00000000 
 540      00000000 
 540      00000000 
 541              		.section	.data.FS_Desc,"aw"
 542              		.align	2
 545              	FS_Desc:
 546 0000 00000000 		.word	USBD_FS_DeviceDescriptor
 547 0004 00000000 		.word	USBD_FS_LangIDStrDescriptor
 548 0008 00000000 		.word	USBD_FS_ManufacturerStrDescriptor
 549 000c 00000000 		.word	USBD_FS_ProductStrDescriptor
 550 0010 00000000 		.word	USBD_FS_SerialStrDescriptor
 551 0014 00000000 		.word	USBD_FS_ConfigStrDescriptor
 552 0018 00000000 		.word	USBD_FS_InterfaceStrDescriptor
 553              		.section	.data.USBD_FS_DeviceDesc,"aw"
 554              		.align	2
 555              		.set	.LANCHOR0,. + 0
 558              	USBD_FS_DeviceDesc:
 559 0000 12010002 		.ascii	"\022\001\000\002\002\002\000@\203\004@W\000\002\001"
 559      02020040 
 559      83044057 
 559      000201
 560 000f 020301   		.ascii	"\002\003\001"
 561              		.section	.data.USBD_LangIDDesc,"aw"
 562              		.align	2
 563              		.set	.LANCHOR1,. + 0
 566              	USBD_LangIDDesc:
 567 0000 04030904 		.ascii	"\004\003\011\004"
ARM GAS  /tmp/cc1ubFXS.s 			page 19


 568              		.section	.data.USBD_StringSerial,"aw"
 569              		.align	2
 570              		.set	.LANCHOR2,. + 0
 573              	USBD_StringSerial:
 574 0000 1A0300   		.ascii	"\032\003\000"
 575 0003 00000000 		.space	23
 575      00000000 
 575      00000000 
 575      00000000 
 575      00000000 
 576              		.text
 577              	.Letext0:
 578              		.file 2 "/home/thomas/programme/gcc-arm-none-eabi-10.3-2021.10/arm-none-eabi/include/machine/_defa
 579              		.file 3 "/home/thomas/programme/gcc-arm-none-eabi-10.3-2021.10/arm-none-eabi/include/sys/_stdint.h
 580              		.file 4 "Middlewares/ST/STM32_USB_Device_Library/Core/Inc/usbd_def.h"
 581              		.file 5 "USB_DEVICE/App/usbd_desc.h"
 582              		.file 6 "Middlewares/ST/STM32_USB_Device_Library/Core/Inc/usbd_ctlreq.h"
ARM GAS  /tmp/cc1ubFXS.s 			page 20

